libLTO.so.8:LLVM_8
libLTO.so.8:lto_api_version
libLTO.so.8:lto_codegen_add_module
libLTO.so.8:lto_codegen_add_must_preserve_symbol
libLTO.so.8:lto_codegen_compile
libLTO.so.8:lto_codegen_compile_optimized
libLTO.so.8:lto_codegen_compile_to_file
libLTO.so.8:lto_codegen_create
libLTO.so.8:lto_codegen_create_in_local_context
libLTO.so.8:lto_codegen_debug_options
libLTO.so.8:lto_codegen_dispose
libLTO.so.8:lto_codegen_optimize
libLTO.so.8:lto_codegen_set_assembler_args
libLTO.so.8:lto_codegen_set_assembler_path
libLTO.so.8:lto_codegen_set_cpu
libLTO.so.8:lto_codegen_set_debug_model
libLTO.so.8:lto_codegen_set_diagnostic_handler
libLTO.so.8:lto_codegen_set_module
libLTO.so.8:lto_codegen_set_pic_model
libLTO.so.8:lto_codegen_set_should_embed_uselists
libLTO.so.8:lto_codegen_set_should_internalize
libLTO.so.8:lto_codegen_write_merged_modules
libLTO.so.8:lto_get_error_message
libLTO.so.8:lto_get_version
libLTO.so.8:lto_initialize_disassembler
libLTO.so.8:lto_module_create
libLTO.so.8:lto_module_create_from_fd
libLTO.so.8:lto_module_create_from_fd_at_offset
libLTO.so.8:lto_module_create_from_memory
libLTO.so.8:lto_module_create_from_memory_with_path
libLTO.so.8:lto_module_create_in_codegen_context
libLTO.so.8:lto_module_create_in_local_context
libLTO.so.8:lto_module_dispose
libLTO.so.8:lto_module_get_linkeropts
libLTO.so.8:lto_module_get_num_symbols
libLTO.so.8:lto_module_get_symbol_attribute
libLTO.so.8:lto_module_get_symbol_name
libLTO.so.8:lto_module_get_target_triple
libLTO.so.8:lto_module_has_objc_category
libLTO.so.8:lto_module_is_object_file
libLTO.so.8:lto_module_is_object_file_for_target
libLTO.so.8:lto_module_is_object_file_in_memory
libLTO.so.8:lto_module_is_object_file_in_memory_for_target
libLTO.so.8:lto_module_is_thinlto
libLTO.so.8:lto_module_set_target_triple
libLTO.so.8:thinlto_codegen_add_cross_referenced_symbol
libLTO.so.8:thinlto_codegen_add_module
libLTO.so.8:thinlto_codegen_add_must_preserve_symbol
libLTO.so.8:thinlto_codegen_disable_codegen
libLTO.so.8:thinlto_codegen_dispose
libLTO.so.8:thinlto_codegen_process
libLTO.so.8:thinlto_codegen_set_cache_dir
libLTO.so.8:thinlto_codegen_set_cache_entry_expiration
libLTO.so.8:thinlto_codegen_set_cache_pruning_interval
libLTO.so.8:thinlto_codegen_set_cache_size_bytes
libLTO.so.8:thinlto_codegen_set_cache_size_files
libLTO.so.8:thinlto_codegen_set_cache_size_megabytes
libLTO.so.8:thinlto_codegen_set_codegen_only
libLTO.so.8:thinlto_codegen_set_cpu
libLTO.so.8:thinlto_codegen_set_final_cache_size_relative_to_available_space
libLTO.so.8:thinlto_codegen_set_pic_model
libLTO.so.8:thinlto_codegen_set_savetemps_dir
libLTO.so.8:thinlto_create_codegen
libLTO.so.8:thinlto_debug_options
libLTO.so.8:thinlto_module_get_num_object_files
libLTO.so.8:thinlto_module_get_num_objects
libLTO.so.8:thinlto_module_get_object
libLTO.so.8:thinlto_module_get_object_file
libLTO.so.8:thinlto_set_generated_objects_dir
libOptRemarks.so.8:LLVMOptRemarkVersion
libOptRemarks.so.8:LLVM_8
libclang.so.8:LLVM_8
libclang.so.8:_ZNSt6vectorINSt7__cxx1112basic_stringIcSt11char_traitsIcESaIcEEESaIS5_EE17_M_realloc_insertIJS5_EEEvN9__gnu_cxx17__normal_iteratorIPS5_S7_EEDpOT_
libclang.so.8:clang_BlockCommandComment_getArgText
libclang.so.8:clang_BlockCommandComment_getCommandName
libclang.so.8:clang_BlockCommandComment_getNumArgs
libclang.so.8:clang_BlockCommandComment_getParagraph
libclang.so.8:clang_CXCursorSet_contains
libclang.so.8:clang_CXCursorSet_insert
libclang.so.8:clang_CXIndex_getGlobalOptions
libclang.so.8:clang_CXIndex_setGlobalOptions
libclang.so.8:clang_CXIndex_setInvocationEmissionPathOption
libclang.so.8:clang_CXXConstructor_isConvertingConstructor
libclang.so.8:clang_CXXConstructor_isCopyConstructor
libclang.so.8:clang_CXXConstructor_isDefaultConstructor
libclang.so.8:clang_CXXConstructor_isMoveConstructor
libclang.so.8:clang_CXXField_isMutable
libclang.so.8:clang_CXXMethod_isConst
libclang.so.8:clang_CXXMethod_isDefaulted
libclang.so.8:clang_CXXMethod_isPureVirtual
libclang.so.8:clang_CXXMethod_isStatic
libclang.so.8:clang_CXXMethod_isVirtual
libclang.so.8:clang_CXXRecord_isAbstract
libclang.so.8:clang_Comment_getChild
libclang.so.8:clang_Comment_getKind
libclang.so.8:clang_Comment_getNumChildren
libclang.so.8:clang_Comment_isWhitespace
libclang.so.8:clang_CompilationDatabase_dispose
libclang.so.8:clang_CompilationDatabase_fromDirectory
libclang.so.8:clang_CompilationDatabase_getAllCompileCommands
libclang.so.8:clang_CompilationDatabase_getCompileCommands
libclang.so.8:clang_CompileCommand_getArg
libclang.so.8:clang_CompileCommand_getDirectory
libclang.so.8:clang_CompileCommand_getFilename
libclang.so.8:clang_CompileCommand_getMappedSourceContent
libclang.so.8:clang_CompileCommand_getMappedSourcePath
libclang.so.8:clang_CompileCommand_getNumArgs
libclang.so.8:clang_CompileCommands_dispose
libclang.so.8:clang_CompileCommands_getCommand
libclang.so.8:clang_CompileCommands_getSize
libclang.so.8:clang_Cursor_Evaluate
libclang.so.8:clang_Cursor_getArgument
libclang.so.8:clang_Cursor_getBriefCommentText
libclang.so.8:clang_Cursor_getCXXManglings
libclang.so.8:clang_Cursor_getCommentRange
libclang.so.8:clang_Cursor_getMangling
libclang.so.8:clang_Cursor_getModule
libclang.so.8:clang_Cursor_getNumArguments
libclang.so.8:clang_Cursor_getNumTemplateArguments
libclang.so.8:clang_Cursor_getObjCDeclQualifiers
libclang.so.8:clang_Cursor_getObjCManglings
libclang.so.8:clang_Cursor_getObjCPropertyAttributes
libclang.so.8:clang_Cursor_getObjCPropertyGetterName
libclang.so.8:clang_Cursor_getObjCPropertySetterName
libclang.so.8:clang_Cursor_getObjCSelectorIndex
libclang.so.8:clang_Cursor_getOffsetOfField
libclang.so.8:clang_Cursor_getParsedComment
libclang.so.8:clang_Cursor_getRawCommentText
libclang.so.8:clang_Cursor_getReceiverType
libclang.so.8:clang_Cursor_getSpellingNameRange
libclang.so.8:clang_Cursor_getStorageClass
libclang.so.8:clang_Cursor_getTemplateArgumentKind
libclang.so.8:clang_Cursor_getTemplateArgumentType
libclang.so.8:clang_Cursor_getTemplateArgumentUnsignedValue
libclang.so.8:clang_Cursor_getTemplateArgumentValue
libclang.so.8:clang_Cursor_getTranslationUnit
libclang.so.8:clang_Cursor_hasAttrs
libclang.so.8:clang_Cursor_isAnonymous
libclang.so.8:clang_Cursor_isBitField
libclang.so.8:clang_Cursor_isDynamicCall
libclang.so.8:clang_Cursor_isExternalSymbol
libclang.so.8:clang_Cursor_isFunctionInlined
libclang.so.8:clang_Cursor_isMacroBuiltin
libclang.so.8:clang_Cursor_isMacroFunctionLike
libclang.so.8:clang_Cursor_isNull
libclang.so.8:clang_Cursor_isObjCOptional
libclang.so.8:clang_Cursor_isVariadic
libclang.so.8:clang_EnumDecl_isScoped
libclang.so.8:clang_EvalResult_dispose
libclang.so.8:clang_EvalResult_getAsDouble
libclang.so.8:clang_EvalResult_getAsInt
libclang.so.8:clang_EvalResult_getAsLongLong
libclang.so.8:clang_EvalResult_getAsStr
libclang.so.8:clang_EvalResult_getAsUnsigned
libclang.so.8:clang_EvalResult_getKind
libclang.so.8:clang_EvalResult_isUnsignedInt
libclang.so.8:clang_File_isEqual
libclang.so.8:clang_File_tryGetRealPathName
libclang.so.8:clang_FullComment_getAsHTML
libclang.so.8:clang_FullComment_getAsXML
libclang.so.8:clang_HTMLStartTagComment_isSelfClosing
libclang.so.8:clang_HTMLStartTag_getAttrName
libclang.so.8:clang_HTMLStartTag_getAttrValue
libclang.so.8:clang_HTMLStartTag_getNumAttrs
libclang.so.8:clang_HTMLTagComment_getAsString
libclang.so.8:clang_HTMLTagComment_getTagName
libclang.so.8:clang_IndexAction_create
libclang.so.8:clang_IndexAction_dispose
libclang.so.8:clang_InlineCommandComment_getArgText
libclang.so.8:clang_InlineCommandComment_getCommandName
libclang.so.8:clang_InlineCommandComment_getNumArgs
libclang.so.8:clang_InlineCommandComment_getRenderKind
libclang.so.8:clang_InlineContentComment_hasTrailingNewline
libclang.so.8:clang_Location_isFromMainFile
libclang.so.8:clang_Location_isInSystemHeader
libclang.so.8:clang_ModuleMapDescriptor_create
libclang.so.8:clang_ModuleMapDescriptor_dispose
libclang.so.8:clang_ModuleMapDescriptor_setFrameworkModuleName
libclang.so.8:clang_ModuleMapDescriptor_setUmbrellaHeader
libclang.so.8:clang_ModuleMapDescriptor_writeToBuffer
libclang.so.8:clang_Module_getASTFile
libclang.so.8:clang_Module_getFullName
libclang.so.8:clang_Module_getName
libclang.so.8:clang_Module_getNumTopLevelHeaders
libclang.so.8:clang_Module_getParent
libclang.so.8:clang_Module_getTopLevelHeader
libclang.so.8:clang_Module_isSystem
libclang.so.8:clang_ParamCommandComment_getDirection
libclang.so.8:clang_ParamCommandComment_getParamIndex
libclang.so.8:clang_ParamCommandComment_getParamName
libclang.so.8:clang_ParamCommandComment_isDirectionExplicit
libclang.so.8:clang_ParamCommandComment_isParamIndexValid
libclang.so.8:clang_PrintingPolicy_dispose
libclang.so.8:clang_PrintingPolicy_getProperty
libclang.so.8:clang_PrintingPolicy_setProperty
libclang.so.8:clang_Range_isNull
libclang.so.8:clang_TParamCommandComment_getDepth
libclang.so.8:clang_TParamCommandComment_getIndex
libclang.so.8:clang_TParamCommandComment_getParamName
libclang.so.8:clang_TParamCommandComment_isParamPositionValid
libclang.so.8:clang_TargetInfo_dispose
libclang.so.8:clang_TargetInfo_getPointerWidth
libclang.so.8:clang_TargetInfo_getTriple
libclang.so.8:clang_TextComment_getText
libclang.so.8:clang_Type_getAlignOf
libclang.so.8:clang_Type_getCXXRefQualifier
libclang.so.8:clang_Type_getClassType
libclang.so.8:clang_Type_getModifiedType
libclang.so.8:clang_Type_getNamedType
libclang.so.8:clang_Type_getNullability
libclang.so.8:clang_Type_getNumObjCProtocolRefs
libclang.so.8:clang_Type_getNumObjCTypeArgs
libclang.so.8:clang_Type_getNumTemplateArguments
libclang.so.8:clang_Type_getObjCEncoding
libclang.so.8:clang_Type_getObjCObjectBaseType
libclang.so.8:clang_Type_getObjCProtocolDecl
libclang.so.8:clang_Type_getObjCTypeArg
libclang.so.8:clang_Type_getOffsetOf
libclang.so.8:clang_Type_getSizeOf
libclang.so.8:clang_Type_getTemplateArgumentAsType
libclang.so.8:clang_Type_isTransparentTagTypedef
libclang.so.8:clang_Type_visitFields
libclang.so.8:clang_VerbatimBlockLineComment_getText
libclang.so.8:clang_VerbatimLineComment_getText
libclang.so.8:clang_VirtualFileOverlay_addFileMapping
libclang.so.8:clang_VirtualFileOverlay_create
libclang.so.8:clang_VirtualFileOverlay_dispose
libclang.so.8:clang_VirtualFileOverlay_setCaseSensitivity
libclang.so.8:clang_VirtualFileOverlay_writeToBuffer
libclang.so.8:clang_annotateTokens
libclang.so.8:clang_codeCompleteAt
libclang.so.8:clang_codeCompleteGetContainerKind
libclang.so.8:clang_codeCompleteGetContainerUSR
libclang.so.8:clang_codeCompleteGetContexts
libclang.so.8:clang_codeCompleteGetDiagnostic
libclang.so.8:clang_codeCompleteGetNumDiagnostics
libclang.so.8:clang_codeCompleteGetObjCSelector
libclang.so.8:clang_constructUSR_ObjCCategory
libclang.so.8:clang_constructUSR_ObjCClass
libclang.so.8:clang_constructUSR_ObjCIvar
libclang.so.8:clang_constructUSR_ObjCMethod
libclang.so.8:clang_constructUSR_ObjCProperty
libclang.so.8:clang_constructUSR_ObjCProtocol
libclang.so.8:clang_createCXCursorSet
libclang.so.8:clang_createIndex
libclang.so.8:clang_createTranslationUnit
libclang.so.8:clang_createTranslationUnit2
libclang.so.8:clang_createTranslationUnitFromSourceFile
libclang.so.8:clang_defaultCodeCompleteOptions
libclang.so.8:clang_defaultDiagnosticDisplayOptions
libclang.so.8:clang_defaultEditingTranslationUnitOptions
libclang.so.8:clang_defaultReparseOptions
libclang.so.8:clang_defaultSaveOptions
libclang.so.8:clang_disposeCXCursorSet
libclang.so.8:clang_disposeCXPlatformAvailability
libclang.so.8:clang_disposeCXTUResourceUsage
libclang.so.8:clang_disposeCodeCompleteResults
libclang.so.8:clang_disposeDiagnostic
libclang.so.8:clang_disposeDiagnosticSet
libclang.so.8:clang_disposeIndex
libclang.so.8:clang_disposeOverriddenCursors
libclang.so.8:clang_disposeSourceRangeList
libclang.so.8:clang_disposeString
libclang.so.8:clang_disposeStringSet
libclang.so.8:clang_disposeTokens
libclang.so.8:clang_disposeTranslationUnit
libclang.so.8:clang_enableStackTraces
libclang.so.8:clang_equalCursors
libclang.so.8:clang_equalLocations
libclang.so.8:clang_equalRanges
libclang.so.8:clang_equalTypes
libclang.so.8:clang_executeOnThread
libclang.so.8:clang_findIncludesInFile
libclang.so.8:clang_findIncludesInFileWithBlock
libclang.so.8:clang_findReferencesInFile
libclang.so.8:clang_findReferencesInFileWithBlock
libclang.so.8:clang_formatDiagnostic
libclang.so.8:clang_free
libclang.so.8:clang_getAddressSpace
libclang.so.8:clang_getAllSkippedRanges
libclang.so.8:clang_getArgType
libclang.so.8:clang_getArrayElementType
libclang.so.8:clang_getArraySize
libclang.so.8:clang_getBuildSessionTimestamp
libclang.so.8:clang_getCString
libclang.so.8:clang_getCXTUResourceUsage
libclang.so.8:clang_getCXXAccessSpecifier
libclang.so.8:clang_getCanonicalCursor
libclang.so.8:clang_getCanonicalType
libclang.so.8:clang_getChildDiagnostics
libclang.so.8:clang_getClangVersion
libclang.so.8:clang_getCompletionAnnotation
libclang.so.8:clang_getCompletionAvailability
libclang.so.8:clang_getCompletionBriefComment
libclang.so.8:clang_getCompletionChunkCompletionString
libclang.so.8:clang_getCompletionChunkKind
libclang.so.8:clang_getCompletionChunkText
libclang.so.8:clang_getCompletionFixIt
libclang.so.8:clang_getCompletionNumAnnotations
libclang.so.8:clang_getCompletionNumFixIts
libclang.so.8:clang_getCompletionParent
libclang.so.8:clang_getCompletionPriority
libclang.so.8:clang_getCursor
libclang.so.8:clang_getCursorAvailability
libclang.so.8:clang_getCursorCompletionString
libclang.so.8:clang_getCursorDefinition
libclang.so.8:clang_getCursorDisplayName
libclang.so.8:clang_getCursorExceptionSpecificationType
libclang.so.8:clang_getCursorExtent
libclang.so.8:clang_getCursorKind
libclang.so.8:clang_getCursorKindSpelling
libclang.so.8:clang_getCursorLanguage
libclang.so.8:clang_getCursorLexicalParent
libclang.so.8:clang_getCursorLinkage
libclang.so.8:clang_getCursorLocation
libclang.so.8:clang_getCursorPlatformAvailability
libclang.so.8:clang_getCursorPrettyPrinted
libclang.so.8:clang_getCursorPrintingPolicy
libclang.so.8:clang_getCursorReferenceNameRange
libclang.so.8:clang_getCursorReferenced
libclang.so.8:clang_getCursorResultType
libclang.so.8:clang_getCursorSemanticParent
libclang.so.8:clang_getCursorSpelling
libclang.so.8:clang_getCursorTLSKind
libclang.so.8:clang_getCursorType
libclang.so.8:clang_getCursorUSR
libclang.so.8:clang_getCursorVisibility
libclang.so.8:clang_getDeclObjCTypeEncoding
libclang.so.8:clang_getDefinitionSpellingAndExtent
libclang.so.8:clang_getDiagnostic
libclang.so.8:clang_getDiagnosticCategory
libclang.so.8:clang_getDiagnosticCategoryName
libclang.so.8:clang_getDiagnosticCategoryText
libclang.so.8:clang_getDiagnosticFixIt
libclang.so.8:clang_getDiagnosticInSet
libclang.so.8:clang_getDiagnosticLocation
libclang.so.8:clang_getDiagnosticNumFixIts
libclang.so.8:clang_getDiagnosticNumRanges
libclang.so.8:clang_getDiagnosticOption
libclang.so.8:clang_getDiagnosticRange
libclang.so.8:clang_getDiagnosticSetFromTU
libclang.so.8:clang_getDiagnosticSeverity
libclang.so.8:clang_getDiagnosticSpelling
libclang.so.8:clang_getElementType
libclang.so.8:clang_getEnumConstantDeclUnsignedValue
libclang.so.8:clang_getEnumConstantDeclValue
libclang.so.8:clang_getEnumDeclIntegerType
libclang.so.8:clang_getExceptionSpecificationType
libclang.so.8:clang_getExpansionLocation
libclang.so.8:clang_getFieldDeclBitWidth
libclang.so.8:clang_getFile
libclang.so.8:clang_getFileContents
libclang.so.8:clang_getFileLocation
libclang.so.8:clang_getFileName
libclang.so.8:clang_getFileTime
libclang.so.8:clang_getFileUniqueID
libclang.so.8:clang_getFunctionTypeCallingConv
libclang.so.8:clang_getIBOutletCollectionType
libclang.so.8:clang_getIncludedFile
libclang.so.8:clang_getInclusions
libclang.so.8:clang_getInstantiationLocation
libclang.so.8:clang_getLocation
libclang.so.8:clang_getLocationForOffset
libclang.so.8:clang_getModuleForFile
libclang.so.8:clang_getNullCursor
libclang.so.8:clang_getNullLocation
libclang.so.8:clang_getNullRange
libclang.so.8:clang_getNumArgTypes
libclang.so.8:clang_getNumCompletionChunks
libclang.so.8:clang_getNumDiagnostics
libclang.so.8:clang_getNumDiagnosticsInSet
libclang.so.8:clang_getNumElements
libclang.so.8:clang_getNumOverloadedDecls
libclang.so.8:clang_getOverloadedDecl
libclang.so.8:clang_getOverriddenCursors
libclang.so.8:clang_getPointeeType
libclang.so.8:clang_getPresumedLocation
libclang.so.8:clang_getRange
libclang.so.8:clang_getRangeEnd
libclang.so.8:clang_getRangeStart
libclang.so.8:clang_getRemappings
libclang.so.8:clang_getRemappingsFromFileList
libclang.so.8:clang_getResultType
libclang.so.8:clang_getSkippedRanges
libclang.so.8:clang_getSpecializedCursorTemplate
libclang.so.8:clang_getSpellingLocation
libclang.so.8:clang_getTUResourceUsageName
libclang.so.8:clang_getTemplateCursorKind
libclang.so.8:clang_getToken
libclang.so.8:clang_getTokenExtent
libclang.so.8:clang_getTokenKind
libclang.so.8:clang_getTokenLocation
libclang.so.8:clang_getTokenSpelling
libclang.so.8:clang_getTranslationUnitCursor
libclang.so.8:clang_getTranslationUnitSpelling
libclang.so.8:clang_getTranslationUnitTargetInfo
libclang.so.8:clang_getTypeDeclaration
libclang.so.8:clang_getTypeKindSpelling
libclang.so.8:clang_getTypeSpelling
libclang.so.8:clang_getTypedefDeclUnderlyingType
libclang.so.8:clang_getTypedefName
libclang.so.8:clang_hashCursor
libclang.so.8:clang_indexLoc_getCXSourceLocation
libclang.so.8:clang_indexLoc_getFileLocation
libclang.so.8:clang_indexSourceFile
libclang.so.8:clang_indexSourceFileFullArgv
libclang.so.8:clang_indexTranslationUnit
libclang.so.8:clang_index_getCXXClassDeclInfo
libclang.so.8:clang_index_getClientContainer
libclang.so.8:clang_index_getClientEntity
libclang.so.8:clang_index_getIBOutletCollectionAttrInfo
libclang.so.8:clang_index_getObjCCategoryDeclInfo
libclang.so.8:clang_index_getObjCContainerDeclInfo
libclang.so.8:clang_index_getObjCInterfaceDeclInfo
libclang.so.8:clang_index_getObjCPropertyDeclInfo
libclang.so.8:clang_index_getObjCProtocolRefListInfo
libclang.so.8:clang_index_isEntityObjCContainerKind
libclang.so.8:clang_index_setClientContainer
libclang.so.8:clang_index_setClientEntity
libclang.so.8:clang_isAttribute
libclang.so.8:clang_isConstQualifiedType
libclang.so.8:clang_isCursorDefinition
libclang.so.8:clang_isDeclaration
libclang.so.8:clang_isExpression
libclang.so.8:clang_isFileMultipleIncludeGuarded
libclang.so.8:clang_isFunctionTypeVariadic
libclang.so.8:clang_isInvalid
libclang.so.8:clang_isInvalidDeclaration
libclang.so.8:clang_isPODType
libclang.so.8:clang_isPreprocessing
libclang.so.8:clang_isReference
libclang.so.8:clang_isRestrictQualifiedType
libclang.so.8:clang_isStatement
libclang.so.8:clang_isTranslationUnit
libclang.so.8:clang_isUnexposed
libclang.so.8:clang_isVirtualBase
libclang.so.8:clang_isVolatileQualifiedType
libclang.so.8:clang_loadDiagnostics
libclang.so.8:clang_parseTranslationUnit
libclang.so.8:clang_parseTranslationUnit2
libclang.so.8:clang_parseTranslationUnit2FullArgv
libclang.so.8:clang_remap_dispose
libclang.so.8:clang_remap_getFilenames
libclang.so.8:clang_remap_getNumFiles
libclang.so.8:clang_reparseTranslationUnit
libclang.so.8:clang_saveTranslationUnit
libclang.so.8:clang_sortCodeCompletionResults
libclang.so.8:clang_suspendTranslationUnit
libclang.so.8:clang_toggleCrashRecovery
libclang.so.8:clang_tokenize
libclang.so.8:clang_visitChildren
libclang.so.8:clang_visitChildrenWithBlock
libclangARCMigrate.so.8:_ZN5clang5arcmt11CheckAction15BeginInvocationERNS_16CompilerInstanceE
libclangARCMigrate.so.8:_ZN5clang5arcmt11CheckActionC1ESt10unique_ptrINS_14FrontendActionESt14default_deleteIS3_EE
libclangARCMigrate.so.8:_ZN5clang5arcmt11CheckActionC2ESt10unique_ptrINS_14FrontendActionESt14default_deleteIS3_EE
libclangARCMigrate.so.8:_ZN5clang5arcmt12FileRemapper11flushToDiskEN4llvm9StringRefERNS_17DiagnosticsEngineE
libclangARCMigrate.so.8:_ZN5clang5arcmt12FileRemapper11flushToFileEN4llvm9StringRefERNS_17DiagnosticsEngineE
libclangARCMigrate.so.8:_ZN5clang5arcmt12FileRemapper11resetTargetERN4llvm12PointerUnionIPKNS_9FileEntryEPNS2_12MemoryBufferEEE
libclangARCMigrate.so.8:_ZN5clang5arcmt12FileRemapper12initFromDiskEN4llvm9StringRefERNS_17DiagnosticsEngineEb
libclangARCMigrate.so.8:_ZN5clang5arcmt12FileRemapper12initFromFileEN4llvm9StringRefERNS_17DiagnosticsEngineEb
libclangARCMigrate.so.8:_ZN5clang5arcmt12FileRemapper15getOriginalFileEN4llvm9StringRefE
libclangARCMigrate.so.8:_ZN5clang5arcmt12FileRemapper16getRemapInfoFileB5cxx11EN4llvm9StringRefE
libclangARCMigrate.so.8:_ZN5clang5arcmt12FileRemapper17overwriteOriginalERNS_17DiagnosticsEngineEN4llvm9StringRefE
libclangARCMigrate.so.8:_ZN5clang5arcmt12FileRemapper5clearEN4llvm9StringRefE
libclangARCMigrate.so.8:_ZN5clang5arcmt12FileRemapper5remapEN4llvm9StringRefESt10unique_ptrINS2_12MemoryBufferESt14default_deleteIS5_EE
libclangARCMigrate.so.8:_ZN5clang5arcmt12FileRemapper5remapEPKNS_9FileEntryES4_
libclangARCMigrate.so.8:_ZN5clang5arcmt12FileRemapper5remapEPKNS_9FileEntryESt10unique_ptrIN4llvm12MemoryBufferESt14default_deleteIS7_EE
libclangARCMigrate.so.8:_ZN5clang5arcmt12FileRemapper6reportERKN4llvm5TwineERNS_17DiagnosticsEngineE
libclangARCMigrate.so.8:_ZN5clang5arcmt12FileRemapperC1Ev
libclangARCMigrate.so.8:_ZN5clang5arcmt12FileRemapperC2Ev
libclangARCMigrate.so.8:_ZN5clang5arcmt12FileRemapperD1Ev
libclangARCMigrate.so.8:_ZN5clang5arcmt12FileRemapperD2Ev
libclangARCMigrate.so.8:_ZN5clang5arcmt12ModifyAction15BeginInvocationERNS_16CompilerInstanceE
libclangARCMigrate.so.8:_ZN5clang5arcmt12ModifyActionC1ESt10unique_ptrINS_14FrontendActionESt14default_deleteIS3_EE
libclangARCMigrate.so.8:_ZN5clang5arcmt12ModifyActionC2ESt10unique_ptrINS_14FrontendActionESt14default_deleteIS3_EE
libclangARCMigrate.so.8:_ZN5clang5arcmt13MigrateAction15BeginInvocationERNS_16CompilerInstanceE
libclangARCMigrate.so.8:_ZN5clang5arcmt13MigrateActionC1ESt10unique_ptrINS_14FrontendActionESt14default_deleteIS3_EEN4llvm9StringRefES8_b
libclangARCMigrate.so.8:_ZN5clang5arcmt13MigrateActionC2ESt10unique_ptrINS_14FrontendActionESt14default_deleteIS3_EEN4llvm9StringRefES8_b
libclangARCMigrate.so.8:_ZN5clang5arcmt13MigrationPass26CFBridgingFunctionsDefinedEv
libclangARCMigrate.so.8:_ZN5clang5arcmt16CapturedDiagList15clearDiagnosticEN4llvm8ArrayRefIjEENS_11SourceRangeE
libclangARCMigrate.so.8:_ZN5clang5arcmt16MigrationProcess14applyTransformEPFvRNS0_13MigrationPassEEPNS1_15RewriteListenerE
libclangARCMigrate.so.8:_ZN5clang5arcmt16MigrationProcess15RewriteListenerD0Ev
libclangARCMigrate.so.8:_ZN5clang5arcmt16MigrationProcess15RewriteListenerD1Ev
libclangARCMigrate.so.8:_ZN5clang5arcmt16MigrationProcess15RewriteListenerD2Ev
libclangARCMigrate.so.8:_ZN5clang5arcmt16MigrationProcessC1ERKNS_18CompilerInvocationESt10shared_ptrINS_22PCHContainerOperationsEEPNS_18DiagnosticConsumerEN4llvm9StringRefE
libclangARCMigrate.so.8:_ZN5clang5arcmt16MigrationProcessC2ERKNS_18CompilerInvocationESt10shared_ptrINS_22PCHContainerOperationsEEPNS_18DiagnosticConsumerEN4llvm9StringRefE
libclangARCMigrate.so.8:_ZN5clang5arcmt16TransformActions10removeStmtEPNS_4StmtE
libclangARCMigrate.so.8:_ZN5clang5arcmt16TransformActions10reportNoteEN4llvm9StringRefENS_14SourceLocationENS_11SourceRangeE
libclangARCMigrate.so.8:_ZN5clang5arcmt16TransformActions11replaceStmtEPNS_4StmtEN4llvm9StringRefE
libclangARCMigrate.so.8:_ZN5clang5arcmt16TransformActions11replaceTextENS_14SourceLocationEN4llvm9StringRefES4_
libclangARCMigrate.so.8:_ZN5clang5arcmt16TransformActions11reportErrorEN4llvm9StringRefENS_14SourceLocationENS_11SourceRangeE
libclangARCMigrate.so.8:_ZN5clang5arcmt16TransformActions13applyRewritesERNS1_15RewriteReceiverE
libclangARCMigrate.so.8:_ZN5clang5arcmt16TransformActions13reportWarningEN4llvm9StringRefENS_14SourceLocationENS_11SourceRangeE
libclangARCMigrate.so.8:_ZN5clang5arcmt16TransformActions15RewriteReceiverD0Ev
libclangARCMigrate.so.8:_ZN5clang5arcmt16TransformActions15RewriteReceiverD1Ev
libclangARCMigrate.so.8:_ZN5clang5arcmt16TransformActions15RewriteReceiverD2Ev
libclangARCMigrate.so.8:_ZN5clang5arcmt16TransformActions15clearDiagnosticEN4llvm8ArrayRefIjEENS_11SourceRangeE
libclangARCMigrate.so.8:_ZN5clang5arcmt16TransformActions16abortTransactionEv
libclangARCMigrate.so.8:_ZN5clang5arcmt16TransformActions16insertAfterTokenENS_14SourceLocationEN4llvm9StringRefE
libclangARCMigrate.so.8:_ZN5clang5arcmt16TransformActions16startTransactionEv
libclangARCMigrate.so.8:_ZN5clang5arcmt16TransformActions17commitTransactionEv
libclangARCMigrate.so.8:_ZN5clang5arcmt16TransformActions19increaseIndentationENS_11SourceRangeENS_14SourceLocationE
libclangARCMigrate.so.8:_ZN5clang5arcmt16TransformActions6insertENS_14SourceLocationEN4llvm9StringRefE
libclangARCMigrate.so.8:_ZN5clang5arcmt16TransformActions6removeENS_11SourceRangeE
libclangARCMigrate.so.8:_ZN5clang5arcmt16TransformActions6reportENS_14SourceLocationEjNS_11SourceRangeE
libclangARCMigrate.so.8:_ZN5clang5arcmt16TransformActions7replaceENS_11SourceRangeEN4llvm9StringRefE
libclangARCMigrate.so.8:_ZN5clang5arcmt16TransformActions7replaceENS_11SourceRangeES2_
libclangARCMigrate.so.8:_ZN5clang5arcmt16TransformActionsC1ERNS_17DiagnosticsEngineERNS0_16CapturedDiagListERNS_10ASTContextERNS_12PreprocessorE
libclangARCMigrate.so.8:_ZN5clang5arcmt16TransformActionsC2ERNS_17DiagnosticsEngineERNS0_16CapturedDiagListERNS_10ASTContextERNS_12PreprocessorE
libclangARCMigrate.so.8:_ZN5clang5arcmt16TransformActionsD1Ev
libclangARCMigrate.so.8:_ZN5clang5arcmt16TransformActionsD2Ev
libclangARCMigrate.so.8:_ZN5clang5arcmt17ObjCMigrateAction15BeginInvocationERNS_16CompilerInstanceE
libclangARCMigrate.so.8:_ZN5clang5arcmt17ObjCMigrateAction17CreateASTConsumerERNS_16CompilerInstanceEN4llvm9StringRefE
libclangARCMigrate.so.8:_ZN5clang5arcmt17ObjCMigrateActionC1ESt10unique_ptrINS_14FrontendActionESt14default_deleteIS3_EEN4llvm9StringRefEj
libclangARCMigrate.so.8:_ZN5clang5arcmt17ObjCMigrateActionC2ESt10unique_ptrINS_14FrontendActionESt14default_deleteIS3_EEN4llvm9StringRefEj
libclangARCMigrate.so.8:_ZN5clang5arcmt17getFileRemappingsERSt6vectorISt4pairINSt7__cxx1112basic_stringIcSt11char_traitsIcESaIcEEES8_ESaIS9_EEN4llvm9StringRefEPNS_18DiagnosticConsumerE
libclangARCMigrate.so.8:_ZN5clang5arcmt19MigrateSourceAction15BeginInvocationERNS_16CompilerInstanceE
libclangARCMigrate.so.8:_ZN5clang5arcmt19MigrateSourceAction17CreateASTConsumerERNS_16CompilerInstanceEN4llvm9StringRefE
libclangARCMigrate.so.8:_ZN5clang5arcmt20applyTransformationsERNS_18CompilerInvocationERKNS_17FrontendInputFileESt10shared_ptrINS_22PCHContainerOperationsEEPNS_18DiagnosticConsumerE
libclangARCMigrate.so.8:_ZN5clang5arcmt20checkForManualIssuesERNS_18CompilerInvocationERKNS_17FrontendInputFileESt10shared_ptrINS_22PCHContainerOperationsEEPNS_18DiagnosticConsumerEbN4llvm9StringRefE
libclangARCMigrate.so.8:_ZN5clang5arcmt20writeARCDiagsToPlistERKNSt7__cxx1112basic_stringIcSt11char_traitsIcESaIcEEEN4llvm8ArrayRefINS_16StoredDiagnosticEEERNS_13SourceManagerERKNS_11LangOptionsE
libclangARCMigrate.so.8:_ZN5clang5arcmt21getAllTransformationsENS_11LangOptions6GCModeEb
libclangARCMigrate.so.8:_ZN5clang5arcmt25migrateWithTemporaryFilesERNS_18CompilerInvocationERKNS_17FrontendInputFileESt10shared_ptrINS_22PCHContainerOperationsEEPNS_18DiagnosticConsumerEN4llvm9StringRefEbSC_
libclangARCMigrate.so.8:_ZN5clang5arcmt29getFileRemappingsFromFileListERSt6vectorISt4pairINSt7__cxx1112basic_stringIcSt11char_traitsIcESaIcEEES8_ESaIS9_EEN4llvm8ArrayRefINSD_9StringRefEEEPNS_18DiagnosticConsumerE
libclangARCMigrate.so.8:_ZN5clang5arcmt5trans11clearRefsInEPNS_4StmtERN4llvm8DenseSetIPNS_4ExprENS4_12DenseMapInfoIS7_EEEE
libclangARCMigrate.so.8:_ZN5clang5arcmt5trans11collectRefsEPNS_9ValueDeclEPNS_4StmtERN4llvm8DenseSetIPNS_4ExprENS6_12DenseMapInfoIS9_EEEE
libclangARCMigrate.so.8:_ZN5clang5arcmt5trans11isGlobalVarEPNS_4ExprE
libclangARCMigrate.so.8:_ZN5clang5arcmt5trans12ASTTraverserD0Ev
libclangARCMigrate.so.8:_ZN5clang5arcmt5trans12ASTTraverserD1Ev
libclangARCMigrate.so.8:_ZN5clang5arcmt5trans12ASTTraverserD2Ev
libclangARCMigrate.so.8:_ZN5clang5arcmt5trans12canApplyWeakERNS_10ASTContextENS_8QualTypeEb
libclangARCMigrate.so.8:_ZN5clang5arcmt5trans12checkAPIUsesERNS0_13MigrationPassE
libclangARCMigrate.so.8:_ZN5clang5arcmt5trans12getNilStringERNS0_13MigrationPassE
libclangARCMigrate.so.8:_ZN5clang5arcmt5trans14hasSideEffectsEPNS_4ExprERNS_10ASTContextE
libclangARCMigrate.so.8:_ZN5clang5arcmt5trans15isPlusOneAssignEPKNS_14BinaryOperatorE
libclangARCMigrate.so.8:_ZN5clang5arcmt5trans16GCAttrsTraverser10traverseTUERNS1_16MigrationContextE
libclangARCMigrate.so.8:_ZN5clang5arcmt5trans16MigrationContext11dumpGCAttrsEv
libclangARCMigrate.so.8:_ZN5clang5arcmt5trans16MigrationContext16isGCOwnedNonObjCENS_8QualTypeE
libclangARCMigrate.so.8:_ZN5clang5arcmt5trans16MigrationContext20addPropertyAttributeEN4llvm9StringRefENS_14SourceLocationE
libclangARCMigrate.so.8:_ZN5clang5arcmt5trans16MigrationContext24rewritePropertyAttributeEN4llvm9StringRefES4_NS_14SourceLocationE
libclangARCMigrate.so.8:_ZN5clang5arcmt5trans16MigrationContext8traverseEPNS_19TranslationUnitDeclE
libclangARCMigrate.so.8:_ZN5clang5arcmt5trans16MigrationContextD1Ev
libclangARCMigrate.so.8:_ZN5clang5arcmt5trans16MigrationContextD2Ev
libclangARCMigrate.so.8:_ZN5clang5arcmt5trans17collectRemovablesEPNS_4StmtERN4llvm8DenseSetIPNS_4ExprENS4_12DenseMapInfoIS7_EEEE
libclangARCMigrate.so.8:_ZN5clang5arcmt5trans17makeAssignARCSafeERNS0_13MigrationPassE
libclangARCMigrate.so.8:_ZN5clang5arcmt5trans21findLocationAfterSemiENS_14SourceLocationERNS_10ASTContextEb
libclangARCMigrate.so.8:_ZN5clang5arcmt5trans21findSemiAfterLocationENS_14SourceLocationERNS_10ASTContextEb
libclangARCMigrate.so.8:_ZN5clang5arcmt5trans21rewriteUnbridgedCastsERNS0_13MigrationPassE
libclangARCMigrate.so.8:_ZN5clang5arcmt5trans22rewriteAutoreleasePoolERNS0_13MigrationPassE
libclangARCMigrate.so.8:_ZN5clang5arcmt5trans23ProtectedScopeTraverser12traverseBodyERNS1_11BodyContextE
libclangARCMigrate.so.8:_ZN5clang5arcmt5trans24PropertyRewriteTraverser26traverseObjCImplementationERNS1_25ObjCImplementationContextE
libclangARCMigrate.so.8:_ZN5clang5arcmt5trans25rewriteUnusedInitDelegateERNS0_13MigrationPassE
libclangARCMigrate.so.8:_ZN5clang5arcmt5trans26BlockObjCVariableTraverser12traverseBodyERNS1_11BodyContextE
libclangARCMigrate.so.8:_ZN5clang5arcmt5trans27GCCollectableCallsTraverser12traverseBodyERNS1_11BodyContextE
libclangARCMigrate.so.8:_ZN5clang5arcmt5trans34removeRetainReleaseDeallocFinalizeERNS0_13MigrationPassE
libclangARCMigrate.so.8:_ZN5clang5arcmt5trans35removeZeroOutPropsInDeallocFinalizeERNS0_13MigrationPassE
libclangARCMigrate.so.8:_ZN5clang5arcmt5trans39removeEmptyStatementsAndDeallocFinalizeERNS0_13MigrationPassE
libclangARCMigrate.so.8:_ZN5clang5arcmt5trans9isPlusOneEPKNS_4ExprE
libclangARCMigrate.so.8:_ZNK5clang5arcmt12FileRemapper13applyMappingsERNS_19PreprocessorOptionsE
libclangARCMigrate.so.8:_ZNK5clang5arcmt16CapturedDiagList13hasDiagnosticEN4llvm8ArrayRefIjEENS_11SourceRangeE
libclangARCMigrate.so.8:_ZNK5clang5arcmt16CapturedDiagList17reportDiagnosticsERNS_17DiagnosticsEngineE
libclangARCMigrate.so.8:_ZNK5clang5arcmt16CapturedDiagList9hasErrorsEv
libclangAST.so.8:_ZN4llvm12DenseMapInfoIN5clang7APValue10LValueBaseEE11getEmptyKeyEv
libclangAST.so.8:_ZN4llvm12DenseMapInfoIN5clang7APValue10LValueBaseEE12getHashValueERKS3_
libclangAST.so.8:_ZN4llvm12DenseMapInfoIN5clang7APValue10LValueBaseEE15getTombstoneKeyEv
libclangAST.so.8:_ZN4llvm12DenseMapInfoIN5clang7APValue10LValueBaseEE7isEqualERKS3_S6_
libclangAST.so.8:_ZN5clang10ASTContext10getParentsERKNS_15ast_type_traits12DynTypedNodeE
libclangAST.so.8:_ZN5clang10ASTContext10mergeTypesENS_8QualTypeES1_bbb
libclangAST.so.8:_ZN5clang10ASTContext12createCXXABIERKNS_10TargetInfoE
libclangAST.so.8:_ZN5clang10ASTContext12getDeclAttrsEPKNS_4DeclE
libclangAST.so.8:_ZN5clang10ASTContext14eraseDeclAttrsEPKNS_4DeclE
libclangAST.so.8:_ZN5clang10ASTContext14hasSimilarTypeENS_8QualTypeES1_
libclangAST.so.8:_ZN5clang10ASTContext15AddDeallocationEPFvPvES1_
libclangAST.so.8:_ZN5clang10ASTContext15InitBuiltinTypeERNS_7CanQualINS_4TypeEEENS_11BuiltinType4KindE
libclangAST.so.8:_ZN5clang10ASTContext15ResetObjCLayoutEPKNS_17ObjCContainerDeclE
libclangAST.so.8:_ZN5clang10ASTContext16InitBuiltinTypesERKNS_10TargetInfoEPS2_
libclangAST.so.8:_ZN5clang10ASTContext16getVTableContextEv
libclangAST.so.8:_ZN5clang10ASTContext17DeclMustBeEmittedEPKNS_4DeclE
libclangAST.so.8:_ZN5clang10ASTContext17getAttributedTypeENS_4attr4KindENS_8QualTypeES3_
libclangAST.so.8:_ZN5clang10ASTContext17hasCvrSimilarTypeENS_8QualTypeES1_
libclangAST.so.8:_ZN5clang10ASTContext17setExternalSourceEN4llvm18IntrusiveRefCntPtrINS_17ExternalASTSourceEEE
libclangAST.so.8:_ZN5clang10ASTContext17setManglingNumberEPKNS_9NamedDeclEj
libclangAST.so.8:_ZN5clang10ASTContext17setNonKeyFunctionEPKNS_13CXXMethodDeclE
libclangAST.so.8:_ZN5clang10ASTContext17setParameterIndexEPKNS_11ParmVarDeclEj
libclangAST.so.8:_ZN5clang10ASTContext17setTraversalScopeERKSt6vectorIPNS_4DeclESaIS3_EE
libclangAST.so.8:_ZN5clang10ASTContext18UnwrapSimilarTypesERNS_8QualTypeES2_
libclangAST.so.8:_ZN5clang10ASTContext18adjustFunctionTypeEPKNS_12FunctionTypeENS1_7ExtInfoE
libclangAST.so.8:_ZN5clang10ASTContext18isSentinelNullExprEPKNS_4ExprE
libclangAST.so.8:_ZN5clang10ASTContext18mergeFunctionTypesENS_8QualTypeES1_bb
libclangAST.so.8:_ZN5clang10ASTContext18typesAreCompatibleENS_8QualTypeES1_b
libclangAST.so.8:_ZN5clang10ASTContext19ObjCMethodsAreEqualEPKNS_14ObjCMethodDeclES3_
libclangAST.so.8:_ZN5clang10ASTContext19addOverriddenMethodEPKNS_13CXXMethodDeclES3_
libclangAST.so.8:_ZN5clang10ASTContext19adjustExceptionSpecEPNS_12FunctionDeclERKNS_17FunctionProtoType17ExceptionSpecInfoEb
libclangAST.so.8:_ZN5clang10ASTContext19createMangleContextEv
libclangAST.so.8:_ZN5clang10ASTContext19hasSameTemplateNameENS_12TemplateNameES1_
libclangAST.so.8:_ZN5clang10ASTContext19setBlockVarCopyInitEPKNS_7VarDeclEPNS_4ExprEb
libclangAST.so.8:_ZN5clang10ASTContext20BlockRequiresCopyingENS_8QualTypeEPKNS_7VarDeclE
libclangAST.so.8:_ZN5clang10ASTContext20addModuleInitializerEPNS_6ModuleEPNS_4DeclE
libclangAST.so.8:_ZN5clang10ASTContext20addedLocalImportDeclEPNS_10ImportDeclE
libclangAST.so.8:_ZN5clang10ASTContext20getPackExpansionTypeENS_8QualTypeEN4llvm8OptionalIjEE
libclangAST.so.8:_ZN5clang10ASTContext20setStaticLocalNumberEPKNS_7VarDeclEj
libclangAST.so.8:_ZN5clang10ASTContext21PerModuleInitializers7resolveERS0_
libclangAST.so.8:_ZN5clang10ASTContext21canBindObjCObjectTypeENS_8QualTypeES1_
libclangAST.so.8:_ZN5clang10ASTContext21getCurrentKeyFunctionEPKNS_13CXXRecordDeclE
libclangAST.so.8:_ZN5clang10ASTContext21getModuleInitializersEPNS_6ModuleE
libclangAST.so.8:_ZN5clang10ASTContext21getObjCImplementationEPNS_16ObjCCategoryDeclE
libclangAST.so.8:_ZN5clang10ASTContext21getObjCImplementationEPNS_17ObjCInterfaceDeclE
libclangAST.so.8:_ZN5clang10ASTContext21mergeExtParameterInfoEPKNS_17FunctionProtoTypeES3_RbS4_RN4llvm15SmallVectorImplINS_12FunctionType16ExtParameterInfoEEE
libclangAST.so.8:_ZN5clang10ASTContext21mergeObjCGCQualifiersENS_8QualTypeES1_
libclangAST.so.8:_ZN5clang10ASTContext21setObjCImplementationEPNS_16ObjCCategoryDeclEPNS_20ObjCCategoryImplDeclE
libclangAST.so.8:_ZN5clang10ASTContext21setObjCImplementationEPNS_17ObjCInterfaceDeclEPNS_22ObjCImplementationDeclE
libclangAST.so.8:_ZN5clang10ASTContext22ReleaseDeclContextMapsEv
libclangAST.so.8:_ZN5clang10ASTContext22getInjectedTemplateArgEPNS_9NamedDeclE
libclangAST.so.8:_ZN5clang10ASTContext23UnwrapSimilarArrayTypesERNS_8QualTypeES2_
libclangAST.so.8:_ZN5clang10ASTContext23areCommonBaseCompatibleEPKNS_21ObjCObjectPointerTypeES3_
libclangAST.so.8:_ZN5clang10ASTContext23canAssignObjCInterfacesEPKNS_14ObjCObjectTypeES3_
libclangAST.so.8:_ZN5clang10ASTContext23canAssignObjCInterfacesEPKNS_21ObjCObjectPointerTypeES3_
libclangAST.so.8:_ZN5clang10ASTContext23getInjectedTemplateArgsEPKNS_21TemplateParameterListERN4llvm15SmallVectorImplINS_16TemplateArgumentEEE
libclangAST.so.8:_ZN5clang10ASTContext23getObjCInstanceTypeDeclEv
libclangAST.so.8:_ZN5clang10ASTContext23getUnqualifiedArrayTypeENS_8QualTypeERNS_10QualifiersE
libclangAST.so.8:_ZN5clang10ASTContext23setCFConstantStringTypeENS_8QualTypeE
libclangAST.so.8:_ZN5clang10ASTContext24GetGVALinkageForVariableEPKNS_7VarDeclE
libclangAST.so.8:_ZN5clang10ASTContext24areCompatibleVectorTypesENS_8QualTypeES1_
libclangAST.so.8:_ZN5clang10ASTContext24getManglingNumberContextEPKNS_11DeclContextE
libclangAST.so.8:_ZN5clang10ASTContext25CollectInheritedProtocolsEPKNS_4DeclERN4llvm11SmallPtrSetIPNS_16ObjCProtocolDeclELj8EEE
libclangAST.so.8:_ZN5clang10ASTContext25addLazyModuleInitializersEPNS_6ModuleEN4llvm8ArrayRefIjEE
libclangAST.so.8:_ZN5clang10ASTContext25mergeDefinitionIntoModuleEPNS_9NamedDeclEPNS_6ModuleEb
libclangAST.so.8:_ZN5clang10ASTContext25mergeTransparentUnionTypeENS_8QualTypeES1_bb
libclangAST.so.8:_ZN5clang10ASTContext26propertyTypesAreCompatibleENS_8QualTypeES1_
libclangAST.so.8:_ZN5clang10ASTContext26setObjCMethodRedeclarationEPKNS_14ObjCMethodDeclES3_
libclangAST.so.8:_ZN5clang10ASTContext27mergeFunctionParameterTypesENS_8QualTypeES1_bb
libclangAST.so.8:_ZN5clang10ASTContext28getInstantiatedFromUsingDeclEPNS_9NamedDeclE
libclangAST.so.8:_ZN5clang10ASTContext28setInstantiatedFromUsingDeclEPNS_9NamedDeclES2_
libclangAST.so.8:_ZN5clang10ASTContext29CanonicalTemplateTemplateParm7ProfileERN4llvm16FoldingSetNodeIDEPNS_24TemplateTemplateParmDeclE
libclangAST.so.8:_ZN5clang10ASTContext29areComparableObjCPointerTypesENS_8QualTypeES1_
libclangAST.so.8:_ZN5clang10ASTContext29getMaterializedTemporaryValueEPKNS_24MaterializeTemporaryExprEb
libclangAST.so.8:_ZN5clang10ASTContext30ObjCObjectAdoptsQTypeProtocolsENS_8QualTypeEPNS_17ObjCInterfaceDeclE
libclangAST.so.8:_ZN5clang10ASTContext30addDeclaratorForUnnamedTagDeclEPNS_7TagDeclEPNS_14DeclaratorDeclE
libclangAST.so.8:_ZN5clang10ASTContext30deduplicateMergedDefinitonsForEPNS_9NamedDeclE
libclangAST.so.8:_ZN5clang10ASTContext30getDeclaratorForUnnamedTagDeclEPKNS_7TagDeclE
libclangAST.so.8:_ZN5clang10ASTContext30setObjCConstantStringInterfaceEPNS_17ObjCInterfaceDeclE
libclangAST.so.8:_ZN5clang10ASTContext30typesAreBlockPointerCompatibleENS_8QualTypeES1_
libclangAST.so.8:_ZN5clang10ASTContext31addTypedefNameForUnnamedTagDeclEPNS_7TagDeclEPNS_15TypedefNameDeclE
libclangAST.so.8:_ZN5clang10ASTContext31adjustDeducedFunctionResultTypeEPNS_12FunctionDeclENS_8QualTypeE
libclangAST.so.8:_ZN5clang10ASTContext31getTemplateOrSpecializationInfoEPKNS_7VarDeclE
libclangAST.so.8:_ZN5clang10ASTContext31getTypedefNameForUnnamedTagDeclEPKNS_7TagDeclE
libclangAST.so.8:_ZN5clang10ASTContext31setTemplateOrSpecializationInfoEPNS_7VarDeclEN4llvm12PointerUnionIPNS_15VarTemplateDeclEPNS_24MemberSpecializationInfoEEE
libclangAST.so.8:_ZN5clang10ASTContext32getFunctionTypeWithExceptionSpecENS_8QualTypeERKNS_17FunctionProtoType17ExceptionSpecInfoE
libclangAST.so.8:_ZN5clang10ASTContext32getSubstTemplateTypeParmPackTypeEPKNS_20TemplateTypeParmTypeERKNS_16TemplateArgumentE
libclangAST.so.8:_ZN5clang10ASTContext33ObjCQualifiedIdTypesAreCompatibleENS_8QualTypeES1_b
libclangAST.so.8:_ZN5clang10ASTContext34getClassScopeSpecializationPatternEPKNS_12FunctionDeclE
libclangAST.so.8:_ZN5clang10ASTContext34getInstantiatedFromUsingShadowDeclEPNS_15UsingShadowDeclE
libclangAST.so.8:_ZN5clang10ASTContext34setClassScopeSpecializationPatternEPNS_12FunctionDeclES2_
libclangAST.so.8:_ZN5clang10ASTContext34setInstantiatedFromUsingShadowDeclEPNS_15UsingShadowDeclES2_
libclangAST.so.8:_ZN5clang10ASTContext35getInstantiatedFromStaticDataMemberEPKNS_7VarDeclE
libclangAST.so.8:_ZN5clang10ASTContext35getInstantiatedFromUnnamedFieldDeclEPNS_9FieldDeclE
libclangAST.so.8:_ZN5clang10ASTContext35setInstantiatedFromStaticDataMemberEPNS_7VarDeclES2_NS_26TemplateSpecializationKindENS_14SourceLocationE
libclangAST.so.8:_ZN5clang10ASTContext35setInstantiatedFromUnnamedFieldDeclEPNS_9FieldDeclES2_
libclangAST.so.8:_ZN5clang10ASTContext36ObjCQualifiedClassTypesAreCompatibleENS_8QualTypeES1_
libclangAST.so.8:_ZN5clang10ASTContext36QIdProtocolsAdoptObjCObjectProtocolsENS_8QualTypeEPNS_17ObjCInterfaceDeclE
libclangAST.so.8:_ZN5clang10ASTContext36addCopyConstructorForExceptionObjectEPNS_13CXXRecordDeclEPNS_18CXXConstructorDeclE
libclangAST.so.8:_ZN5clang10ASTContext36getCopyConstructorForExceptionObjectEPNS_13CXXRecordDeclE
libclangAST.so.8:_ZN5clang10ASTContext37canAssignObjCInterfacesInBlockPointerEPKNS_21ObjCObjectPointerTypeES3_b
libclangAST.so.8:_ZN5clang10ASTContext40hasSameFunctionTypeIgnoringExceptionSpecENS_8QualTypeES1_
libclangAST.so.8:_ZN5clang10ASTContext9ParentMapC1ERS0_
libclangAST.so.8:_ZN5clang10ASTContext9ParentMapC2ERS0_
libclangAST.so.8:_ZN5clang10ASTContextC1ERNS_11LangOptionsERNS_13SourceManagerERNS_15IdentifierTableERNS_13SelectorTableERNS_7Builtin7ContextE
libclangAST.so.8:_ZN5clang10ASTContextC2ERNS_11LangOptionsERNS_13SourceManagerERNS_15IdentifierTableERNS_13SelectorTableERNS_7Builtin7ContextE
libclangAST.so.8:_ZN5clang10ASTContextD1Ev
libclangAST.so.8:_ZN5clang10ASTContextD2Ev
libclangAST.so.8:_ZN5clang10AtomicExpr14getNumSubExprsENS0_8AtomicOpE
libclangAST.so.8:_ZN5clang10AtomicExprC1ENS_14SourceLocationEN4llvm8ArrayRefIPNS_4ExprEEENS_8QualTypeENS0_8AtomicOpES1_
libclangAST.so.8:_ZN5clang10AtomicExprC2ENS_14SourceLocationEN4llvm8ArrayRefIPNS_4ExprEEENS_8QualTypeENS0_8AtomicOpES1_
libclangAST.so.8:_ZN5clang10CXXNewExpr11CreateEmptyERKNS_10ASTContextEbbjb
libclangAST.so.8:_ZN5clang10CXXNewExpr6CreateERKNS_10ASTContextEbPNS_12FunctionDeclES5_bbN4llvm8ArrayRefIPNS_4ExprEEENS_11SourceRangeES9_NS0_19InitializationStyleES9_NS_8QualTypeEPNS_14TypeSourceInfoESB_SB_
libclangAST.so.8:_ZN5clang10CXXNewExprC1ENS_4Stmt10EmptyShellEbjb
libclangAST.so.8:_ZN5clang10CXXNewExprC1EbPNS_12FunctionDeclES2_bbN4llvm8ArrayRefIPNS_4ExprEEENS_11SourceRangeES6_NS0_19InitializationStyleES6_NS_8QualTypeEPNS_14TypeSourceInfoES8_S8_
libclangAST.so.8:_ZN5clang10CXXNewExprC2ENS_4Stmt10EmptyShellEbjb
libclangAST.so.8:_ZN5clang10CXXNewExprC2EbPNS_12FunctionDeclES2_bbN4llvm8ArrayRefIPNS_4ExprEEENS_11SourceRangeES6_NS0_19InitializationStyleES6_NS_8QualTypeEPNS_14TypeSourceInfoES8_S8_
libclangAST.so.8:_ZN5clang10CXXTryStmt6CreateERKNS_10ASTContextENS_14SourceLocationEPNS_4StmtEN4llvm8ArrayRefIS6_EE
libclangAST.so.8:_ZN5clang10CXXTryStmt6CreateERKNS_10ASTContextENS_4Stmt10EmptyShellEj
libclangAST.so.8:_ZN5clang10CXXTryStmtC1ENS_14SourceLocationEPNS_4StmtEN4llvm8ArrayRefIS3_EE
libclangAST.so.8:_ZN5clang10CXXTryStmtC2ENS_14SourceLocationEPNS_4StmtEN4llvm8ArrayRefIS3_EE
libclangAST.so.8:_ZN5clang10ExportDecl18CreateDeserializedERNS_10ASTContextEj
libclangAST.so.8:_ZN5clang10ExportDecl6CreateERNS_10ASTContextEPNS_11DeclContextENS_14SourceLocationE
libclangAST.so.8:_ZN5clang10ExportDecl6anchorEv
libclangAST.so.8:_ZN5clang10FriendDecl18CreateDeserializedERNS_10ASTContextEjj
libclangAST.so.8:_ZN5clang10FriendDecl21getNextFriendSlowCaseEv
libclangAST.so.8:_ZN5clang10FriendDecl6CreateERNS_10ASTContextEPNS_11DeclContextENS_14SourceLocationEN4llvm12PointerUnionIPNS_9NamedDeclEPNS_14TypeSourceInfoEEES5_NS6_8ArrayRefIPNS_21TemplateParameterListEEE
libclangAST.so.8:_ZN5clang10FriendDecl6anchorEv
libclangAST.so.8:_ZN5clang10GCCAsmStmt12getInputExprEj
libclangAST.so.8:_ZN5clang10GCCAsmStmt12setInputExprEjPNS_4ExprE
libclangAST.so.8:_ZN5clang10GCCAsmStmt13getOutputExprEj
libclangAST.so.8:_ZN5clang10GCCAsmStmt30setOutputsAndInputsAndClobbersERKNS_10ASTContextEPPNS_14IdentifierInfoEPPNS_13StringLiteralEPPNS_4StmtEjjS9_j
libclangAST.so.8:_ZN5clang10GCCAsmStmtC1ERKNS_10ASTContextENS_14SourceLocationEbbjjPPNS_14IdentifierInfoEPPNS_13StringLiteralEPPNS_4ExprES9_jSA_S4_
libclangAST.so.8:_ZN5clang10GCCAsmStmtC2ERKNS_10ASTContextENS_14SourceLocationEbbjjPPNS_14IdentifierInfoEPPNS_13StringLiteralEPPNS_4ExprES9_jSA_S4_
libclangAST.so.8:_ZN5clang10ImportDecl14CreateImplicitERNS_10ASTContextEPNS_11DeclContextENS_14SourceLocationEPNS_6ModuleES5_
libclangAST.so.8:_ZN5clang10ImportDecl18CreateDeserializedERNS_10ASTContextEjj
libclangAST.so.8:_ZN5clang10ImportDecl6CreateERNS_10ASTContextEPNS_11DeclContextENS_14SourceLocationEPNS_6ModuleEN4llvm8ArrayRefIS5_EE
libclangAST.so.8:_ZN5clang10ImportDeclC1EPNS_11DeclContextENS_14SourceLocationEPNS_6ModuleEN4llvm8ArrayRefIS3_EE
libclangAST.so.8:_ZN5clang10ImportDeclC1EPNS_11DeclContextENS_14SourceLocationEPNS_6ModuleES3_
libclangAST.so.8:_ZN5clang10ImportDeclC2EPNS_11DeclContextENS_14SourceLocationEPNS_6ModuleEN4llvm8ArrayRefIS3_EE
libclangAST.so.8:_ZN5clang10ImportDeclC2EPNS_11DeclContextENS_14SourceLocationEPNS_6ModuleES3_
libclangAST.so.8:_ZN5clang10LambdaExpr18CreateDeserializedERKNS_10ASTContextEj
libclangAST.so.8:_ZN5clang10LambdaExpr6CreateERKNS_10ASTContextEPNS_13CXXRecordDeclENS_11SourceRangeENS_20LambdaCaptureDefaultENS_14SourceLocationEN4llvm8ArrayRefINS_13LambdaCaptureEEEbbNSA_IPNS_4ExprEEES8_b
libclangAST.so.8:_ZN5clang10LambdaExprC1ENS_8QualTypeENS_11SourceRangeENS_20LambdaCaptureDefaultENS_14SourceLocationEN4llvm8ArrayRefINS_13LambdaCaptureEEEbbNS6_IPNS_4ExprEEES4_b
libclangAST.so.8:_ZN5clang10LambdaExprC2ENS_8QualTypeENS_11SourceRangeENS_20LambdaCaptureDefaultENS_14SourceLocationEN4llvm8ArrayRefINS_13LambdaCaptureEEEbbNS6_IPNS_4ExprEEES4_b
libclangAST.so.8:_ZN5clang10MemberExpr6CreateERKNS_10ASTContextEPNS_4ExprEbNS_14SourceLocationENS_22NestedNameSpecifierLocES6_PNS_9ValueDeclENS_14DeclAccessPairENS_19DeclarationNameInfoEPKNS_24TemplateArgumentListInfoENS_8QualTypeENS_13ExprValueKindENS_14ExprObjectKindE
libclangAST.so.8:_ZN5clang10RawCommentC1ERKNS_13SourceManagerENS_11SourceRangeERKNS_14CommentOptionsEb
libclangAST.so.8:_ZN5clang10RawCommentC2ERKNS_13SourceManagerENS_11SourceRangeERKNS_14CommentOptionsEb
libclangAST.so.8:_ZN5clang10RecordDecl17setCapturedRecordEv
libclangAST.so.8:_ZN5clang10RecordDecl18CreateDeserializedERKNS_10ASTContextEj
libclangAST.so.8:_ZN5clang10RecordDecl18completeDefinitionEv
libclangAST.so.8:_ZN5clang10RecordDecl6CreateERKNS_10ASTContextENS_11TagTypeKindEPNS_11DeclContextENS_14SourceLocationES7_PNS_14IdentifierInfoEPS0_
libclangAST.so.8:_ZN5clang10RecordDeclC1ENS_4Decl4KindENS_11TagTypeKindERKNS_10ASTContextEPNS_11DeclContextENS_14SourceLocationES9_PNS_14IdentifierInfoEPS0_
libclangAST.so.8:_ZN5clang10RecordDeclC2ENS_4Decl4KindENS_11TagTypeKindERKNS_10ASTContextEPNS_11DeclContextENS_14SourceLocationES9_PNS_14IdentifierInfoEPS0_
libclangAST.so.8:_ZN5clang10ReturnStmt11CreateEmptyERKNS_10ASTContextEb
libclangAST.so.8:_ZN5clang10ReturnStmt6CreateERKNS_10ASTContextENS_14SourceLocationEPNS_4ExprEPKNS_7VarDeclE
libclangAST.so.8:_ZN5clang10ReturnStmtC1ENS_14SourceLocationEPNS_4ExprEPKNS_7VarDeclE
libclangAST.so.8:_ZN5clang10ReturnStmtC1ENS_4Stmt10EmptyShellEb
libclangAST.so.8:_ZN5clang10ReturnStmtC2ENS_14SourceLocationEPNS_4ExprEPKNS_7VarDeclE
libclangAST.so.8:_ZN5clang10ReturnStmtC2ENS_4Stmt10EmptyShellEb
libclangAST.so.8:_ZN5clang10SEHTryStmt6CreateERKNS_10ASTContextEbNS_14SourceLocationEPNS_4StmtES6_
libclangAST.so.8:_ZN5clang10SEHTryStmtC1EbNS_14SourceLocationEPNS_4StmtES3_
libclangAST.so.8:_ZN5clang10SEHTryStmtC2EbNS_14SourceLocationEPNS_4StmtES3_
libclangAST.so.8:_ZN5clang10SwitchStmt11CreateEmptyERKNS_10ASTContextEbb
libclangAST.so.8:_ZN5clang10SwitchStmt20getConditionVariableEv
libclangAST.so.8:_ZN5clang10SwitchStmt20setConditionVariableERKNS_10ASTContextEPNS_7VarDeclE
libclangAST.so.8:_ZN5clang10SwitchStmt6CreateERKNS_10ASTContextEPNS_4StmtEPNS_7VarDeclEPNS_4ExprE
libclangAST.so.8:_ZN5clang10SwitchStmtC1ENS_4Stmt10EmptyShellEbb
libclangAST.so.8:_ZN5clang10SwitchStmtC1ERKNS_10ASTContextEPNS_4StmtEPNS_7VarDeclEPNS_4ExprE
libclangAST.so.8:_ZN5clang10SwitchStmtC2ENS_4Stmt10EmptyShellEbb
libclangAST.so.8:_ZN5clang10SwitchStmtC2ERKNS_10ASTContextEPNS_4StmtEPNS_7VarDeclEPNS_4ExprE
libclangAST.so.8:_ZN5clang10VTTBuilder16AddVTablePointerENS_13BaseSubobjectEmPKNS_13CXXRecordDeclE
libclangAST.so.8:_ZN5clang10VTTBuilder17LayoutVirtualVTTsEPKNS_13CXXRecordDeclERN4llvm11SmallPtrSetIS3_Lj4EEE
libclangAST.so.8:_ZN5clang10VTTBuilder19LayoutSecondaryVTTsENS_13BaseSubobjectE
libclangAST.so.8:_ZN5clang10VTTBuilder30LayoutSecondaryVirtualPointersENS_13BaseSubobjectEbmPKNS_13CXXRecordDeclERN4llvm11SmallPtrSetIS4_Lj4EEE
libclangAST.so.8:_ZN5clang10VTTBuilder30LayoutSecondaryVirtualPointersENS_13BaseSubobjectEm
libclangAST.so.8:_ZN5clang10VTTBuilder9LayoutVTTENS_13BaseSubobjectEb
libclangAST.so.8:_ZN5clang10VTTBuilderC1ERNS_10ASTContextEPKNS_13CXXRecordDeclEb
libclangAST.so.8:_ZN5clang10VTTBuilderC2ERNS_10ASTContextEPKNS_13CXXRecordDeclEb
libclangAST.so.8:_ZN5clang10VectorTypeC1ENS_4Type9TypeClassENS_8QualTypeEjS3_NS0_10VectorKindE
libclangAST.so.8:_ZN5clang10VectorTypeC1ENS_8QualTypeEjS1_NS0_10VectorKindE
libclangAST.so.8:_ZN5clang10VectorTypeC2ENS_4Type9TypeClassENS_8QualTypeEjS3_NS0_10VectorKindE
libclangAST.so.8:_ZN5clang10VectorTypeC2ENS_8QualTypeEjS1_NS0_10VectorKindE
libclangAST.so.8:_ZN5clang11ASTConsumer18HandleTopLevelDeclENS_12DeclGroupRefE
libclangAST.so.8:_ZN5clang11ASTConsumer21HandleInterestingDeclENS_12DeclGroupRefE
libclangAST.so.8:_ZN5clang11ASTConsumer24HandleImplicitImportDeclEPNS_10ImportDeclE
libclangAST.so.8:_ZN5clang11ASTConsumer33HandleTopLevelDeclInObjCContainerENS_12DeclGroupRefE
libclangAST.so.8:_ZN5clang11ASTImporter10Import_NewENS_11SourceRangeE
libclangAST.so.8:_ZN5clang11ASTImporter10Import_NewENS_12TemplateNameE
libclangAST.so.8:_ZN5clang11ASTImporter10Import_NewENS_14SourceLocationE
libclangAST.so.8:_ZN5clang11ASTImporter10Import_NewENS_15DeclarationNameE
libclangAST.so.8:_ZN5clang11ASTImporter10Import_NewENS_22NestedNameSpecifierLocE
libclangAST.so.8:_ZN5clang11ASTImporter10Import_NewENS_6FileIDE
libclangAST.so.8:_ZN5clang11ASTImporter10Import_NewENS_8QualTypeE
libclangAST.so.8:_ZN5clang11ASTImporter10Import_NewENS_8SelectorE
libclangAST.so.8:_ZN5clang11ASTImporter10Import_NewEPKNS_16CXXBaseSpecifierE
libclangAST.so.8:_ZN5clang11ASTImporter10Import_NewEPKNS_4AttrE
libclangAST.so.8:_ZN5clang11ASTImporter10Import_NewEPNS_14TypeSourceInfoE
libclangAST.so.8:_ZN5clang11ASTImporter10Import_NewEPNS_18CXXCtorInitializerE
libclangAST.so.8:_ZN5clang11ASTImporter10Import_NewEPNS_19NestedNameSpecifierE
libclangAST.so.8:_ZN5clang11ASTImporter10Import_NewEPNS_4DeclE
libclangAST.so.8:_ZN5clang11ASTImporter10Import_NewEPNS_4ExprE
libclangAST.so.8:_ZN5clang11ASTImporter10Import_NewEPNS_4StmtE
libclangAST.so.8:_ZN5clang11ASTImporter10importIntoINS_14SourceLocationEEEN4llvm5ErrorERT_RKS5_
libclangAST.so.8:_ZN5clang11ASTImporter10importIntoINS_8QualTypeEEEN4llvm5ErrorERT_RKS5_
libclangAST.so.8:_ZN5clang11ASTImporter11MapImportedEPNS_4DeclES2_
libclangAST.so.8:_ZN5clang11ASTImporter12CompleteDeclEPNS_4DeclE
libclangAST.so.8:_ZN5clang11ASTImporter13ImportContextEPNS_11DeclContextE
libclangAST.so.8:_ZN5clang11ASTImporter13getFieldIndexEPNS_4DeclE
libclangAST.so.8:_ZN5clang11ASTImporter16AddToLookupTableEPNS_4DeclE
libclangAST.so.8:_ZN5clang11ASTImporter16ImportDefinitionEPNS_4DeclE
libclangAST.so.8:_ZN5clang11ASTImporter16findDeclsInToCtxEPNS_11DeclContextENS_15DeclarationNameE
libclangAST.so.8:_ZN5clang11ASTImporter18HandleNameConflictENS_15DeclarationNameEPNS_11DeclContextEjPPNS_9NamedDeclEj
libclangAST.so.8:_ZN5clang11ASTImporter20ImportDefinition_NewEPNS_4DeclE
libclangAST.so.8:_ZN5clang11ASTImporter24IsStructurallyEquivalentENS_8QualTypeES1_b
libclangAST.so.8:_ZN5clang11ASTImporter6ImportENS_11SourceRangeE
libclangAST.so.8:_ZN5clang11ASTImporter6ImportENS_12TemplateNameE
libclangAST.so.8:_ZN5clang11ASTImporter6ImportENS_14SourceLocationE
libclangAST.so.8:_ZN5clang11ASTImporter6ImportENS_15DeclarationNameE
libclangAST.so.8:_ZN5clang11ASTImporter6ImportENS_22NestedNameSpecifierLocE
libclangAST.so.8:_ZN5clang11ASTImporter6ImportENS_6FileIDE
libclangAST.so.8:_ZN5clang11ASTImporter6ImportENS_8QualTypeE
libclangAST.so.8:_ZN5clang11ASTImporter6ImportENS_8SelectorE
libclangAST.so.8:_ZN5clang11ASTImporter6ImportEPKNS_14IdentifierInfoE
libclangAST.so.8:_ZN5clang11ASTImporter6ImportEPKNS_16CXXBaseSpecifierE
libclangAST.so.8:_ZN5clang11ASTImporter6ImportEPKNS_4AttrE
libclangAST.so.8:_ZN5clang11ASTImporter6ImportEPNS_14TypeSourceInfoE
libclangAST.so.8:_ZN5clang11ASTImporter6ImportEPNS_18CXXCtorInitializerE
libclangAST.so.8:_ZN5clang11ASTImporter6ImportEPNS_19NestedNameSpecifierE
libclangAST.so.8:_ZN5clang11ASTImporter6ImportEPNS_4DeclE
libclangAST.so.8:_ZN5clang11ASTImporter6ImportEPNS_4ExprE
libclangAST.so.8:_ZN5clang11ASTImporter6ImportEPNS_4StmtE
libclangAST.so.8:_ZN5clang11ASTImporter6ToDiagENS_14SourceLocationEj
libclangAST.so.8:_ZN5clang11ASTImporter8FromDiagENS_14SourceLocationEj
libclangAST.so.8:_ZN5clang11ASTImporterC1ERNS_10ASTContextERNS_11FileManagerES2_S4_bPNS_22ASTImporterLookupTableE
libclangAST.so.8:_ZN5clang11ASTImporterC2ERNS_10ASTContextERNS_11FileManagerES2_S4_bPNS_22ASTImporterLookupTableE
libclangAST.so.8:_ZN5clang11ASTImporterD0Ev
libclangAST.so.8:_ZN5clang11ASTImporterD1Ev
libclangAST.so.8:_ZN5clang11ASTImporterD2Ev
libclangAST.so.8:_ZN5clang11BindingDecl18CreateDeserializedERNS_10ASTContextEj
libclangAST.so.8:_ZN5clang11BindingDecl6CreateERNS_10ASTContextEPNS_11DeclContextENS_14SourceLocationEPNS_14IdentifierInfoE
libclangAST.so.8:_ZN5clang11BindingDecl6anchorEv
libclangAST.so.8:_ZN5clang11DeclContext10removeDeclEPNS_4DeclE
libclangAST.so.8:_ZN5clang11DeclContext11buildLookupEv
libclangAST.so.8:_ZN5clang11DeclContext13addHiddenDeclEPNS_4DeclE
libclangAST.so.8:_ZN5clang11DeclContext13noload_lookupENS_15DeclarationNameE
libclangAST.so.8:_ZN5clang11DeclContext14BuildDeclChainEN4llvm8ArrayRefIPNS_4DeclEEEb
libclangAST.so.8:_ZN5clang11DeclContext15addDeclInternalEPNS_4DeclE
libclangAST.so.8:_ZN5clang11DeclContext15buildLookupImplEPS0_b
libclangAST.so.8:_ZN5clang11DeclContext15getLookupParentEv
libclangAST.so.8:_ZN5clang11DeclContext16getRedeclContextEv
libclangAST.so.8:_ZN5clang11DeclContext17getPrimaryContextEv
libclangAST.so.8:_ZN5clang11DeclContext18collectAllContextsERN4llvm15SmallVectorImplIPS0_EE
libclangAST.so.8:_ZN5clang11DeclContext19localUncachedLookupENS_15DeclarationNameERN4llvm15SmallVectorImplIPNS_9NamedDeclEEE
libclangAST.so.8:_ZN5clang11DeclContext21getNonClosureAncestorEv
libclangAST.so.8:_ZN5clang11DeclContext24makeDeclVisibleInContextEPNS_9NamedDeclE
libclangAST.so.8:_ZN5clang11DeclContext27loadLazyLocalLexicalLookupsEv
libclangAST.so.8:_ZN5clang11DeclContext28getEnclosingNamespaceContextEv
libclangAST.so.8:_ZN5clang11DeclContext28getOuterLexicalRecordContextEv
libclangAST.so.8:_ZN5clang11DeclContext28makeDeclVisibleInContextImplEPNS_9NamedDeclEb
libclangAST.so.8:_ZN5clang11DeclContext33makeDeclVisibleInContextWithFlagsEPNS_9NamedDeclEbb
libclangAST.so.8:_ZN5clang11DeclContext7addDeclEPNS_4DeclE
libclangAST.so.8:_ZN5clang11DeclContext7classofEPKNS_4DeclE
libclangAST.so.8:_ZN5clang11DeclContextC1ENS_4Decl4KindE
libclangAST.so.8:_ZN5clang11DeclContextC2ENS_4Decl4KindE
libclangAST.so.8:_ZN5clang11DeclContextD1Ev
libclangAST.so.8:_ZN5clang11DeclContextD2Ev
libclangAST.so.8:_ZN5clang11DeclRefExpr11CreateEmptyERKNS_10ASTContextEbbbj
libclangAST.so.8:_ZN5clang11DeclRefExpr17computeDependenceERKNS_10ASTContextE
libclangAST.so.8:_ZN5clang11DeclRefExpr6CreateERKNS_10ASTContextENS_22NestedNameSpecifierLocENS_14SourceLocationEPNS_9ValueDeclEbRKNS_19DeclarationNameInfoENS_8QualTypeENS_13ExprValueKindEPNS_9NamedDeclEPKNS_24TemplateArgumentListInfoE
libclangAST.so.8:_ZN5clang11DeclRefExpr6CreateERKNS_10ASTContextENS_22NestedNameSpecifierLocENS_14SourceLocationEPNS_9ValueDeclEbS5_NS_8QualTypeENS_13ExprValueKindEPNS_9NamedDeclEPKNS_24TemplateArgumentListInfoE
libclangAST.so.8:_ZN5clang11DeclRefExprC1ERKNS_10ASTContextENS_22NestedNameSpecifierLocENS_14SourceLocationEPNS_9ValueDeclEbRKNS_19DeclarationNameInfoEPNS_9NamedDeclEPKNS_24TemplateArgumentListInfoENS_8QualTypeENS_13ExprValueKindE
libclangAST.so.8:_ZN5clang11DeclRefExprC1ERKNS_10ASTContextEPNS_9ValueDeclEbNS_8QualTypeENS_13ExprValueKindENS_14SourceLocationERKNS_18DeclarationNameLocE
libclangAST.so.8:_ZN5clang11DeclRefExprC2ERKNS_10ASTContextENS_22NestedNameSpecifierLocENS_14SourceLocationEPNS_9ValueDeclEbRKNS_19DeclarationNameInfoEPNS_9NamedDeclEPKNS_24TemplateArgumentListInfoENS_8QualTypeENS_13ExprValueKindE
libclangAST.so.8:_ZN5clang11DeclRefExprC2ERKNS_10ASTContextEPNS_9ValueDeclEbNS_8QualTypeENS_13ExprValueKindENS_14SourceLocationERKNS_18DeclarationNameLocE
libclangAST.so.8:_ZN5clang11OMPToClause11CreateEmptyERKNS_10ASTContextEjjjj
libclangAST.so.8:_ZN5clang11OMPToClause6CreateERKNS_10ASTContextENS_14SourceLocationES4_S4_N4llvm8ArrayRefIPNS_4ExprEEENS6_IPNS_9ValueDeclEEENS6_INS5_11SmallVectorINS_27OMPClauseMappableExprCommon17MappableComponentELj8EEEEE
libclangAST.so.8:_ZN5clang11ParmVarDecl13getDefaultArgEv
libclangAST.so.8:_ZN5clang11ParmVarDecl13setDefaultArgEPNS_4ExprE
libclangAST.so.8:_ZN5clang11ParmVarDecl18CreateDeserializedERNS_10ASTContextEj
libclangAST.so.8:_ZN5clang11ParmVarDecl22setParameterIndexLargeEj
libclangAST.so.8:_ZN5clang11ParmVarDecl27getUninstantiatedDefaultArgEv
libclangAST.so.8:_ZN5clang11ParmVarDecl27setUninstantiatedDefaultArgEPNS_4ExprE
libclangAST.so.8:_ZN5clang11ParmVarDecl6CreateERNS_10ASTContextEPNS_11DeclContextENS_14SourceLocationES5_PNS_14IdentifierInfoENS_8QualTypeEPNS_14TypeSourceInfoENS_12StorageClassEPNS_4ExprE
libclangAST.so.8:_ZN5clang11TypedefDecl18CreateDeserializedERNS_10ASTContextEj
libclangAST.so.8:_ZN5clang11TypedefDecl6CreateERNS_10ASTContextEPNS_11DeclContextENS_14SourceLocationES5_PNS_14IdentifierInfoEPNS_14TypeSourceInfoE
libclangAST.so.8:_ZN5clang11updateFlagsEPKNS_4DeclEPS0_
libclangAST.so.8:_ZN5clang12CXXBasePaths11found_declsEv
libclangAST.so.8:_ZN5clang12CXXBasePaths11isAmbiguousENS_7CanQualINS_4TypeEEE
libclangAST.so.8:_ZN5clang12CXXBasePaths13lookupInBasesERNS_10ASTContextEPKNS_13CXXRecordDeclEN4llvm12function_refIFbPKNS_16CXXBaseSpecifierERNS_11CXXBasePathEEEEb
libclangAST.so.8:_ZN5clang12CXXBasePaths17ComputeDeclsFoundEv
libclangAST.so.8:_ZN5clang12CXXBasePaths4swapERS0_
libclangAST.so.8:_ZN5clang12CXXBasePaths5clearEv
libclangAST.so.8:_ZN5clang12CXXTemporary6CreateERKNS_10ASTContextEPKNS_17CXXDestructorDeclE
libclangAST.so.8:_ZN5clang12CapturedDecl10setNothrowEb
libclangAST.so.8:_ZN5clang12CapturedDecl18CreateDeserializedERNS_10ASTContextEjj
libclangAST.so.8:_ZN5clang12CapturedDecl6CreateERNS_10ASTContextEPNS_11DeclContextEj
libclangAST.so.8:_ZN5clang12CapturedDecl7setBodyEPNS_4StmtE
libclangAST.so.8:_ZN5clang12CapturedDeclC1EPNS_11DeclContextEj
libclangAST.so.8:_ZN5clang12CapturedDeclC2EPNS_11DeclContextEj
libclangAST.so.8:_ZN5clang12CapturedStmt15getCapturedDeclEv
libclangAST.so.8:_ZN5clang12CapturedStmt15setCapturedDeclEPNS_12CapturedDeclE
libclangAST.so.8:_ZN5clang12CapturedStmt18CreateDeserializedERKNS_10ASTContextEj
libclangAST.so.8:_ZN5clang12CapturedStmt21setCapturedRegionKindENS_18CapturedRegionKindE
libclangAST.so.8:_ZN5clang12CapturedStmt6CreateERKNS_10ASTContextEPNS_4StmtENS_18CapturedRegionKindEN4llvm8ArrayRefINS0_7CaptureEEENS8_IPNS_4ExprEEEPNS_12CapturedDeclEPNS_10RecordDeclE
libclangAST.so.8:_ZN5clang12CapturedStmt7CaptureC1ENS_14SourceLocationENS0_19VariableCaptureKindEPNS_7VarDeclE
libclangAST.so.8:_ZN5clang12CapturedStmt7CaptureC2ENS_14SourceLocationENS0_19VariableCaptureKindEPNS_7VarDeclE
libclangAST.so.8:_ZN5clang12CapturedStmt8childrenEv
libclangAST.so.8:_ZN5clang12CapturedStmtC1ENS_4Stmt10EmptyShellEj
libclangAST.so.8:_ZN5clang12CapturedStmtC1EPNS_4StmtENS_18CapturedRegionKindEN4llvm8ArrayRefINS0_7CaptureEEENS5_IPNS_4ExprEEEPNS_12CapturedDeclEPNS_10RecordDeclE
libclangAST.so.8:_ZN5clang12CapturedStmtC2ENS_4Stmt10EmptyShellEj
libclangAST.so.8:_ZN5clang12CapturedStmtC2EPNS_4StmtENS_18CapturedRegionKindEN4llvm8ArrayRefINS0_7CaptureEEENS5_IPNS_4ExprEEEPNS_12CapturedDeclEPNS_10RecordDeclE
libclangAST.so.8:_ZN5clang12CompoundStmt11CreateEmptyERKNS_10ASTContextEj
libclangAST.so.8:_ZN5clang12CompoundStmt6CreateERKNS_10ASTContextEN4llvm8ArrayRefIPNS_4StmtEEENS_14SourceLocationES9_
libclangAST.so.8:_ZN5clang12CompoundStmt8setStmtsEN4llvm8ArrayRefIPNS_4StmtEEE
libclangAST.so.8:_ZN5clang12CompoundStmtC1EN4llvm8ArrayRefIPNS_4StmtEEENS_14SourceLocationES6_
libclangAST.so.8:_ZN5clang12CompoundStmtC2EN4llvm8ArrayRefIPNS_4StmtEEENS_14SourceLocationES6_
libclangAST.so.8:_ZN5clang12DecltypeTypeC1EPNS_4ExprENS_8QualTypeES3_
libclangAST.so.8:_ZN5clang12DecltypeTypeC2EPNS_4ExprENS_8QualTypeES3_
libclangAST.so.8:_ZN5clang12FunctionDecl10getODRHashEv
libclangAST.so.8:_ZN5clang12FunctionDecl16getCanonicalDeclEv
libclangAST.so.8:_ZN5clang12FunctionDecl18CreateDeserializedERNS_10ASTContextEj
libclangAST.so.8:_ZN5clang12FunctionDecl22setPreviousDeclarationEPS0_
libclangAST.so.8:_ZN5clang12FunctionDecl28setDescribedFunctionTemplateEPNS_20FunctionTemplateDeclE
libclangAST.so.8:_ZN5clang12FunctionDecl29setTemplateSpecializationKindENS_26TemplateSpecializationKindENS_14SourceLocationE
libclangAST.so.8:_ZN5clang12FunctionDecl32setInstantiationOfMemberFunctionERNS_10ASTContextEPS0_NS_26TemplateSpecializationKindE
libclangAST.so.8:_ZN5clang12FunctionDecl33setFunctionTemplateSpecializationERNS_10ASTContextEPNS_20FunctionTemplateDeclEPKNS_20TemplateArgumentListEPvNS_26TemplateSpecializationKindEPKNS_24TemplateArgumentListInfoENS_14SourceLocationE
libclangAST.so.8:_ZN5clang12FunctionDecl34setDependentTemplateSpecializationERNS_10ASTContextERKNS_17UnresolvedSetImplERKNS_24TemplateArgumentListInfoE
libclangAST.so.8:_ZN5clang12FunctionDecl6CreateERNS_10ASTContextEPNS_11DeclContextENS_14SourceLocationERKNS_19DeclarationNameInfoENS_8QualTypeEPNS_14TypeSourceInfoENS_12StorageClassEbbb
libclangAST.so.8:_ZN5clang12FunctionDecl7setBodyEPNS_4StmtE
libclangAST.so.8:_ZN5clang12FunctionDecl7setPureEb
libclangAST.so.8:_ZN5clang12FunctionDecl9setParamsERNS_10ASTContextEN4llvm8ArrayRefIPNS_11ParmVarDeclEEE
libclangAST.so.8:_ZN5clang12FunctionDeclC1ENS_4Decl4KindERNS_10ASTContextEPNS_11DeclContextENS_14SourceLocationERKNS_19DeclarationNameInfoENS_8QualTypeEPNS_14TypeSourceInfoENS_12StorageClassEbb
libclangAST.so.8:_ZN5clang12FunctionDeclC2ENS_4Decl4KindERNS_10ASTContextEPNS_11DeclContextENS_14SourceLocationERKNS_19DeclarationNameInfoENS_8QualTypeEPNS_14TypeSourceInfoENS_12StorageClassEbb
libclangAST.so.8:_ZN5clang12FunctionType18getNameForCallConvENS_11CallingConvE
libclangAST.so.8:_ZN5clang12InitListExpr10updateInitERKNS_10ASTContextEjPNS_4ExprE
libclangAST.so.8:_ZN5clang12InitListExpr11resizeInitsERKNS_10ASTContextEj
libclangAST.so.8:_ZN5clang12InitListExpr12reserveInitsERKNS_10ASTContextEj
libclangAST.so.8:_ZN5clang12InitListExpr14setArrayFillerEPNS_4ExprE
libclangAST.so.8:_ZN5clang12InitListExprC1ERKNS_10ASTContextENS_14SourceLocationEN4llvm8ArrayRefIPNS_4ExprEEES4_
libclangAST.so.8:_ZN5clang12InitListExprC2ERKNS_10ASTContextENS_14SourceLocationEN4llvm8ArrayRefIPNS_4ExprEEES4_
libclangAST.so.8:_ZN5clang12OMPMapClause11CreateEmptyERKNS_10ASTContextEjjjj
libclangAST.so.8:_ZN5clang12OMPMapClause6CreateERKNS_10ASTContextENS_14SourceLocationES4_S4_N4llvm8ArrayRefIPNS_4ExprEEENS6_IPNS_9ValueDeclEEENS6_INS5_11SmallVectorINS_27OMPClauseMappableExprCommon17MappableComponentELj8EEEEENS6_INS_21OpenMPMapModifierKindEEENS6_IS4_EENS_19OpenMPMapClauseKindEbS4_
libclangAST.so.8:_ZN5clang12ObjCImplDecl17setClassInterfaceEPNS_17ObjCInterfaceDeclE
libclangAST.so.8:_ZN5clang12ObjCImplDecl25addPropertyImplementationEPNS_20ObjCPropertyImplDeclE
libclangAST.so.8:_ZN5clang12ObjCImplDecl6anchorEv
libclangAST.so.8:_ZN5clang12ObjCIvarDecl18CreateDeserializedERNS_10ASTContextEj
libclangAST.so.8:_ZN5clang12ObjCIvarDecl6CreateERNS_10ASTContextEPNS_17ObjCContainerDeclENS_14SourceLocationES5_PNS_14IdentifierInfoENS_8QualTypeEPNS_14TypeSourceInfoENS0_13AccessControlEPNS_4ExprEb
libclangAST.so.8:_ZN5clang12ObjCIvarDecl6anchorEv
libclangAST.so.8:_ZN5clang12ObjCListBase3setEPKPvjRNS_10ASTContextE
libclangAST.so.8:_ZN5clang12OffsetOfExpr11CreateEmptyERKNS_10ASTContextEjj
libclangAST.so.8:_ZN5clang12OffsetOfExpr6CreateERKNS_10ASTContextENS_8QualTypeENS_14SourceLocationEPNS_14TypeSourceInfoEN4llvm8ArrayRefINS_12OffsetOfNodeEEENS9_IPNS_4ExprEEES5_
libclangAST.so.8:_ZN5clang12OffsetOfExprC1ERKNS_10ASTContextENS_8QualTypeENS_14SourceLocationEPNS_14TypeSourceInfoEN4llvm8ArrayRefINS_12OffsetOfNodeEEENS9_IPNS_4ExprEEES5_
libclangAST.so.8:_ZN5clang12OffsetOfExprC2ERKNS_10ASTContextENS_8QualTypeENS_14SourceLocationEPNS_14TypeSourceInfoEN4llvm8ArrayRefINS_12OffsetOfNodeEEENS9_IPNS_4ExprEEES5_
libclangAST.so.8:_ZN5clang12OverloadExprC1ENS_4Stmt9StmtClassENS1_10EmptyShellEjb
libclangAST.so.8:_ZN5clang12OverloadExprC1ENS_4Stmt9StmtClassERKNS_10ASTContextENS_22NestedNameSpecifierLocENS_14SourceLocationERKNS_19DeclarationNameInfoEPKNS_24TemplateArgumentListInfoENS_21UnresolvedSetIteratorESE_bbb
libclangAST.so.8:_ZN5clang12OverloadExprC2ENS_4Stmt9StmtClassENS1_10EmptyShellEjb
libclangAST.so.8:_ZN5clang12OverloadExprC2ENS_4Stmt9StmtClassERKNS_10ASTContextENS_22NestedNameSpecifierLocENS_14SourceLocationERKNS_19DeclarationNameInfoEPKNS_24TemplateArgumentListInfoENS_21UnresolvedSetIteratorESE_bbb
libclangAST.so.8:_ZN5clang12TemplateDecl6anchorEv
libclangAST.so.8:_ZN5clang12TemplateNameC1EPNS_12TemplateDeclE
libclangAST.so.8:_ZN5clang12TemplateNameC1EPNS_21DependentTemplateNameE
libclangAST.so.8:_ZN5clang12TemplateNameC1EPNS_21QualifiedTemplateNameE
libclangAST.so.8:_ZN5clang12TemplateNameC1EPNS_25OverloadedTemplateStorageE
libclangAST.so.8:_ZN5clang12TemplateNameC1EPNS_32SubstTemplateTemplateParmStorageE
libclangAST.so.8:_ZN5clang12TemplateNameC1EPNS_36SubstTemplateTemplateParmPackStorageE
libclangAST.so.8:_ZN5clang12TemplateNameC1EPv
libclangAST.so.8:_ZN5clang12TemplateNameC2EPNS_12TemplateDeclE
libclangAST.so.8:_ZN5clang12TemplateNameC2EPNS_21DependentTemplateNameE
libclangAST.so.8:_ZN5clang12TemplateNameC2EPNS_21QualifiedTemplateNameE
libclangAST.so.8:_ZN5clang12TemplateNameC2EPNS_25OverloadedTemplateStorageE
libclangAST.so.8:_ZN5clang12TemplateNameC2EPNS_32SubstTemplateTemplateParmStorageE
libclangAST.so.8:_ZN5clang12TemplateNameC2EPNS_36SubstTemplateTemplateParmPackStorageE
libclangAST.so.8:_ZN5clang12TemplateNameC2EPv
libclangAST.so.8:_ZN5clang12VTableLayoutC1EN4llvm8ArrayRefImEENS2_INS_15VTableComponentEEENS2_ISt4pairImNS_9ThunkInfoEEEERKNS1_8DenseMapINS_13BaseSubobjectENS0_20AddressPointLocationENS1_12DenseMapInfoISB_EENS1_6detail12DenseMapPairISB_SC_EEEE
libclangAST.so.8:_ZN5clang12VTableLayoutC2EN4llvm8ArrayRefImEENS2_INS_15VTableComponentEEENS2_ISt4pairImNS_9ThunkInfoEEEERKNS1_8DenseMapINS_13BaseSubobjectENS0_20AddressPointLocationENS1_12DenseMapInfoISB_EENS1_6detail12DenseMapPairISB_SC_EEEE
libclangAST.so.8:_ZN5clang12VTableLayoutD1Ev
libclangAST.so.8:_ZN5clang12VTableLayoutD2Ev
libclangAST.so.8:_ZN5clang13CXXMethodDecl11getThisTypeEPKNS_17FunctionProtoTypeEPKNS_13CXXRecordDeclE
libclangAST.so.8:_ZN5clang13CXXMethodDecl18CreateDeserializedERNS_10ASTContextEj
libclangAST.so.8:_ZN5clang13CXXMethodDecl19addOverriddenMethodEPKS0_
libclangAST.so.8:_ZN5clang13CXXMethodDecl22getDevirtualizedMethodEPKNS_4ExprEb
libclangAST.so.8:_ZN5clang13CXXMethodDecl29getCorrespondingMethodInClassEPKNS_13CXXRecordDeclEb
libclangAST.so.8:_ZN5clang13CXXMethodDecl6CreateERNS_10ASTContextEPNS_13CXXRecordDeclENS_14SourceLocationERKNS_19DeclarationNameInfoENS_8QualTypeEPNS_14TypeSourceInfoENS_12StorageClassEbbS5_
libclangAST.so.8:_ZN5clang13CXXMethodDecl6anchorEv
libclangAST.so.8:_ZN5clang13CXXRecordDecl11addedMemberEPNS_4DeclE
libclangAST.so.8:_ZN5clang13CXXRecordDecl12CreateLambdaERKNS_10ASTContextEPNS_11DeclContextEPNS_14TypeSourceInfoENS_14SourceLocationEbbNS_20LambdaCaptureDefaultE
libclangAST.so.8:_ZN5clang13CXXRecordDecl13FindBaseClassEPKNS_16CXXBaseSpecifierERNS_11CXXBasePathEPKS0_
libclangAST.so.8:_ZN5clang13CXXRecordDecl13FindTagMemberEPKNS_16CXXBaseSpecifierERNS_11CXXBasePathENS_15DeclarationNameE
libclangAST.so.8:_ZN5clang13CXXRecordDecl14DefinitionDataC1EPS0_
libclangAST.so.8:_ZN5clang13CXXRecordDecl14DefinitionDataC2EPS0_
libclangAST.so.8:_ZN5clang13CXXRecordDecl16removeConversionEPKNS_9NamedDeclE
libclangAST.so.8:_ZN5clang13CXXRecordDecl18CreateDeserializedERKNS_10ASTContextEj
libclangAST.so.8:_ZN5clang13CXXRecordDecl18FindOrdinaryMemberEPKNS_16CXXBaseSpecifierERNS_11CXXBasePathENS_15DeclarationNameE
libclangAST.so.8:_ZN5clang13CXXRecordDecl18completeDefinitionEPNS_20CXXFinalOverriderMapE
libclangAST.so.8:_ZN5clang13CXXRecordDecl18completeDefinitionEv
libclangAST.so.8:_ZN5clang13CXXRecordDecl19addedClassSubobjectEPS0_
libclangAST.so.8:_ZN5clang13CXXRecordDecl19lookupDependentNameERKNS_15DeclarationNameEN4llvm12function_refIFbPKNS_9NamedDeclEEEE
libclangAST.so.8:_ZN5clang13CXXRecordDecl20FindVirtualBaseClassEPKNS_16CXXBaseSpecifierERNS_11CXXBasePathEPKS0_
libclangAST.so.8:_ZN5clang13CXXRecordDecl22FindOMPReductionMemberEPKNS_16CXXBaseSpecifierERNS_11CXXBasePathENS_15DeclarationNameE
libclangAST.so.8:_ZN5clang13CXXRecordDecl22setTrivialForCallFlagsEPNS_13CXXMethodDeclE
libclangAST.so.8:_ZN5clang13CXXRecordDecl25markedVirtualFunctionPureEv
libclangAST.so.8:_ZN5clang13CXXRecordDecl25setDescribedClassTemplateEPNS_17ClassTemplateDeclE
libclangAST.so.8:_ZN5clang13CXXRecordDecl29FindNestedNameSpecifierMemberEPKNS_16CXXBaseSpecifierERNS_11CXXBasePathENS_15DeclarationNameE
libclangAST.so.8:_ZN5clang13CXXRecordDecl29getVisibleConversionFunctionsEv
libclangAST.so.8:_ZN5clang13CXXRecordDecl29setInstantiationOfMemberClassEPS0_NS_26TemplateSpecializationKindE
libclangAST.so.8:_ZN5clang13CXXRecordDecl29setTemplateSpecializationKindENS_26TemplateSpecializationKindE
libclangAST.so.8:_ZN5clang13CXXRecordDecl32finishedDefaultedOrDeletedMemberEPNS_13CXXMethodDeclE
libclangAST.so.8:_ZN5clang13CXXRecordDecl36FindOrdinaryMemberInDependentClassesEPKNS_16CXXBaseSpecifierERNS_11CXXBasePathENS_15DeclarationNameE
libclangAST.so.8:_ZN5clang13CXXRecordDecl39hasSubobjectAtOffsetZeroOfEmptyBaseTypeERNS_10ASTContextEPKS0_
libclangAST.so.8:_ZN5clang13CXXRecordDecl6CreateERKNS_10ASTContextENS_11TagTypeKindEPNS_11DeclContextENS_14SourceLocationES7_PNS_14IdentifierInfoEPS0_b
libclangAST.so.8:_ZN5clang13CXXRecordDecl8setBasesEPKPKNS_16CXXBaseSpecifierEj
libclangAST.so.8:_ZN5clang13CXXRecordDeclC1ENS_4Decl4KindENS_11TagTypeKindERKNS_10ASTContextEPNS_11DeclContextENS_14SourceLocationES9_PNS_14IdentifierInfoEPS0_
libclangAST.so.8:_ZN5clang13CXXRecordDeclC2ENS_4Decl4KindENS_11TagTypeKindERKNS_10ASTContextEPNS_11DeclContextENS_14SourceLocationES9_PNS_14IdentifierInfoEPS0_
libclangAST.so.8:_ZN5clang13LambdaCaptureC1ENS_14SourceLocationEbNS_17LambdaCaptureKindEPNS_7VarDeclES1_
libclangAST.so.8:_ZN5clang13LambdaCaptureC2ENS_14SourceLocationEbNS_17LambdaCaptureKindEPNS_7VarDeclES1_
libclangAST.so.8:_ZN5clang13MangleContext10mangleNameEPKNS_9NamedDeclERN4llvm11raw_ostreamE
libclangAST.so.8:_ZN5clang13MangleContext11mangleBlockEPKNS_11DeclContextEPKNS_9BlockDeclERN4llvm11raw_ostreamE
libclangAST.so.8:_ZN5clang13MangleContext15mangleCtorBlockEPKNS_18CXXConstructorDeclENS_11CXXCtorTypeEPKNS_9BlockDeclERN4llvm11raw_ostreamE
libclangAST.so.8:_ZN5clang13MangleContext15mangleDtorBlockEPKNS_17CXXDestructorDeclENS_11CXXDtorTypeEPKNS_9BlockDeclERN4llvm11raw_ostreamE
libclangAST.so.8:_ZN5clang13MangleContext17mangleGlobalBlockEPKNS_9BlockDeclEPKNS_9NamedDeclERN4llvm11raw_ostreamE
libclangAST.so.8:_ZN5clang13MangleContext20mangleObjCMethodNameEPKNS_14ObjCMethodDeclERN4llvm11raw_ostreamE
libclangAST.so.8:_ZN5clang13MangleContext20shouldMangleDeclNameEPKNS_9NamedDeclE
libclangAST.so.8:_ZN5clang13MangleContext31mangleObjCMethodNameWithoutSizeEPKNS_14ObjCMethodDeclERN4llvm11raw_ostreamE
libclangAST.so.8:_ZN5clang13MangleContext6anchorEv
libclangAST.so.8:_ZN5clang13NamespaceDecl18CreateDeserializedERNS_10ASTContextEj
libclangAST.so.8:_ZN5clang13NamespaceDecl19getPreviousDeclImplEv
libclangAST.so.8:_ZN5clang13NamespaceDecl20getOriginalNamespaceEv
libclangAST.so.8:_ZN5clang13NamespaceDecl21getMostRecentDeclImplEv
libclangAST.so.8:_ZN5clang13NamespaceDecl24getNextRedeclarationImplEv
libclangAST.so.8:_ZN5clang13NamespaceDecl6CreateERNS_10ASTContextEPNS_11DeclContextEbNS_14SourceLocationES5_PNS_14IdentifierInfoEPS0_
libclangAST.so.8:_ZN5clang13NamespaceDeclC1ERNS_10ASTContextEPNS_11DeclContextEbNS_14SourceLocationES5_PNS_14IdentifierInfoEPS0_
libclangAST.so.8:_ZN5clang13NamespaceDeclC2ERNS_10ASTContextEPNS_11DeclContextEbNS_14SourceLocationES5_PNS_14IdentifierInfoEPS0_
libclangAST.so.8:_ZN5clang13OMPFromClause11CreateEmptyERKNS_10ASTContextEjjjj
libclangAST.so.8:_ZN5clang13OMPFromClause6CreateERKNS_10ASTContextENS_14SourceLocationES4_S4_N4llvm8ArrayRefIPNS_4ExprEEENS6_IPNS_9ValueDeclEEENS6_INS5_11SmallVectorINS_27OMPClauseMappableExprCommon17MappableComponentELj8EEEEE
libclangAST.so.8:_ZN5clang13ObjCAtTryStmt11CreateEmptyERKNS_10ASTContextEjb
libclangAST.so.8:_ZN5clang13ObjCAtTryStmt6CreateERKNS_10ASTContextENS_14SourceLocationEPNS_4StmtEPS6_jS6_
libclangAST.so.8:_ZN5clang13ObjCAtTryStmtC1ENS_14SourceLocationEPNS_4StmtEPS3_jS3_
libclangAST.so.8:_ZN5clang13ObjCAtTryStmtC2ENS_14SourceLocationEPNS_4StmtEPS3_jS3_
libclangAST.so.8:_ZN5clang13ParenListExpr11CreateEmptyERKNS_10ASTContextEj
libclangAST.so.8:_ZN5clang13ParenListExpr6CreateERKNS_10ASTContextENS_14SourceLocationEN4llvm8ArrayRefIPNS_4ExprEEES4_
libclangAST.so.8:_ZN5clang13ParenListExprC1ENS_14SourceLocationEN4llvm8ArrayRefIPNS_4ExprEEES1_
libclangAST.so.8:_ZN5clang13ParenListExprC1ENS_4Stmt10EmptyShellEj
libclangAST.so.8:_ZN5clang13ParenListExprC2ENS_14SourceLocationEN4llvm8ArrayRefIPNS_4ExprEEES1_
libclangAST.so.8:_ZN5clang13ParenListExprC2ENS_4Stmt10EmptyShellEj
libclangAST.so.8:_ZN5clang13PrinterHelperD0Ev
libclangAST.so.8:_ZN5clang13PrinterHelperD1Ev
libclangAST.so.8:_ZN5clang13PrinterHelperD2Ev
libclangAST.so.8:_ZN5clang13QualifierInfo29setTemplateParameterListsInfoERNS_10ASTContextEN4llvm8ArrayRefIPNS_21TemplateParameterListEEE
libclangAST.so.8:_ZN5clang13SEHExceptStmt6CreateERKNS_10ASTContextENS_14SourceLocationEPNS_4ExprEPNS_4StmtE
libclangAST.so.8:_ZN5clang13SEHExceptStmtC1ENS_14SourceLocationEPNS_4ExprEPNS_4StmtE
libclangAST.so.8:_ZN5clang13SEHExceptStmtC2ENS_14SourceLocationEPNS_4ExprEPNS_4StmtE
libclangAST.so.8:_ZN5clang13StringLiteral11CreateEmptyERKNS_10ASTContextEjjj
libclangAST.so.8:_ZN5clang13StringLiteral16mapCharByteWidthERKNS_10TargetInfoENS0_10StringKindE
libclangAST.so.8:_ZN5clang13StringLiteral6CreateERKNS_10ASTContextEN4llvm9StringRefENS0_10StringKindEbNS_8QualTypeEPKNS_14SourceLocationEj
libclangAST.so.8:_ZN5clang13StringLiteralC1ENS_4Stmt10EmptyShellEjjj
libclangAST.so.8:_ZN5clang13StringLiteralC1ERKNS_10ASTContextEN4llvm9StringRefENS0_10StringKindEbNS_8QualTypeEPKNS_14SourceLocationEj
libclangAST.so.8:_ZN5clang13StringLiteralC2ENS_4Stmt10EmptyShellEjjj
libclangAST.so.8:_ZN5clang13StringLiteralC2ERKNS_10ASTContextEN4llvm9StringRefENS0_10StringKindEbNS_8QualTypeEPKNS_14SourceLocationEj
libclangAST.so.8:_ZN5clang13TypeAliasDecl18CreateDeserializedERNS_10ASTContextEj
libclangAST.so.8:_ZN5clang13TypeAliasDecl6CreateERNS_10ASTContextEPNS_11DeclContextENS_14SourceLocationES5_PNS_14IdentifierInfoEPNS_14TypeSourceInfoE
libclangAST.so.8:_ZN5clang13TypeOfTypeLoc15initializeLocalERNS_10ASTContextENS_14SourceLocationE
libclangAST.so.8:_ZN5clang13TypeTraitExpr18CreateDeserializedERKNS_10ASTContextEj
libclangAST.so.8:_ZN5clang13TypeTraitExpr6CreateERKNS_10ASTContextENS_8QualTypeENS_14SourceLocationENS_9TypeTraitEN4llvm8ArrayRefIPNS_14TypeSourceInfoEEES5_b
libclangAST.so.8:_ZN5clang13TypeTraitExprC1ENS_8QualTypeENS_14SourceLocationENS_9TypeTraitEN4llvm8ArrayRefIPNS_14TypeSourceInfoEEES2_b
libclangAST.so.8:_ZN5clang13TypeTraitExprC2ENS_8QualTypeENS_14SourceLocationENS_9TypeTraitEN4llvm8ArrayRefIPNS_14TypeSourceInfoEEES2_b
libclangAST.so.8:_ZN5clang13UnaryOperator12getOpcodeStrENS_17UnaryOperatorKindE
libclangAST.so.8:_ZN5clang13UnaryOperator19getOverloadedOpcodeENS_22OverloadedOperatorKindEb
libclangAST.so.8:_ZN5clang13UnaryOperator21getOverloadedOperatorENS_17UnaryOperatorKindE
libclangAST.so.8:_ZN5clang13UsingPackDecl18CreateDeserializedERNS_10ASTContextEjj
libclangAST.so.8:_ZN5clang13UsingPackDecl6CreateERNS_10ASTContextEPNS_11DeclContextEPNS_9NamedDeclEN4llvm8ArrayRefIS6_EE
libclangAST.so.8:_ZN5clang13UsingPackDecl6anchorEv
libclangAST.so.8:_ZN5clang13analyze_scanf14ScanfSpecifier7fixTypeENS_8QualTypeES2_RKNS_11LangOptionsERNS_10ASTContextE
libclangAST.so.8:_ZN5clang14AccessSpecDecl18CreateDeserializedERNS_10ASTContextEj
libclangAST.so.8:_ZN5clang14AccessSpecDecl6anchorEv
libclangAST.so.8:_ZN5clang14AttributedStmt11CreateEmptyERKNS_10ASTContextEj
libclangAST.so.8:_ZN5clang14AttributedStmt6CreateERKNS_10ASTContextENS_14SourceLocationEN4llvm8ArrayRefIPKNS_4AttrEEEPNS_4StmtE
libclangAST.so.8:_ZN5clang14AttributedType21stripOuterNullabilityERNS_8QualTypeE
libclangAST.so.8:_ZN5clang14BinaryOperator12getOpcodeStrENS_18BinaryOperatorKindE
libclangAST.so.8:_ZN5clang14BinaryOperator19getOverloadedOpcodeENS_22OverloadedOperatorKindE
libclangAST.so.8:_ZN5clang14BinaryOperator21getOverloadedOperatorENS_18BinaryOperatorKindE
libclangAST.so.8:_ZN5clang14BinaryOperator32isNullPointerArithmeticExtensionERNS_10ASTContextENS_18BinaryOperatorKindEPNS_4ExprES5_
libclangAST.so.8:_ZN5clang14CStyleCastExpr11CreateEmptyERKNS_10ASTContextEj
libclangAST.so.8:_ZN5clang14CStyleCastExpr6CreateERKNS_10ASTContextENS_8QualTypeENS_13ExprValueKindENS_8CastKindEPNS_4ExprEPKN4llvm11SmallVectorIPNS_16CXXBaseSpecifierELj4EEEPNS_14TypeSourceInfoENS_14SourceLocationESI_
libclangAST.so.8:_ZN5clang14DeclaratorDecl16setQualifierInfoENS_22NestedNameSpecifierLocE
libclangAST.so.8:_ZN5clang14DeclaratorDecl29setTemplateParameterListsInfoERNS_10ASTContextEN4llvm8ArrayRefIPNS_21TemplateParameterListEEE
libclangAST.so.8:_ZN5clang14IntegerLiteral6CreateERKNS_10ASTContextENS_4Stmt10EmptyShellE
libclangAST.so.8:_ZN5clang14IntegerLiteral6CreateERKNS_10ASTContextERKN4llvm5APIntENS_8QualTypeENS_14SourceLocationE
libclangAST.so.8:_ZN5clang14IntegerLiteralC1ERKNS_10ASTContextERKN4llvm5APIntENS_8QualTypeENS_14SourceLocationE
libclangAST.so.8:_ZN5clang14IntegerLiteralC2ERKNS_10ASTContextERKN4llvm5APIntENS_8QualTypeENS_14SourceLocationE
libclangAST.so.8:_ZN5clang14MSPropertyDecl18CreateDeserializedERNS_10ASTContextEj
libclangAST.so.8:_ZN5clang14MSPropertyDecl6CreateERNS_10ASTContextEPNS_11DeclContextENS_14SourceLocationENS_15DeclarationNameENS_8QualTypeEPNS_14TypeSourceInfoES5_PNS_14IdentifierInfoESB_
libclangAST.so.8:_ZN5clang14MSPropertyDecl6anchorEv
libclangAST.so.8:_ZN5clang14OMPFlushClause11CreateEmptyERKNS_10ASTContextEj
libclangAST.so.8:_ZN5clang14OMPFlushClause6CreateERKNS_10ASTContextENS_14SourceLocationES4_S4_N4llvm8ArrayRefIPNS_4ExprEEE
libclangAST.so.8:_ZN5clang14ObjCMethodDecl11getSelfTypeERNS_10ASTContextEPKNS_17ObjCInterfaceDeclERbS6_
libclangAST.so.8:_ZN5clang14ObjCMethodDecl15setMethodParamsERNS_10ASTContextEN4llvm8ArrayRefIPNS_11ParmVarDeclEEENS4_INS_14SourceLocationEEE
libclangAST.so.8:_ZN5clang14ObjCMethodDecl16getCanonicalDeclEv
libclangAST.so.8:_ZN5clang14ObjCMethodDecl17getClassInterfaceEv
libclangAST.so.8:_ZN5clang14ObjCMethodDecl18CreateDeserializedERNS_10ASTContextEj
libclangAST.so.8:_ZN5clang14ObjCMethodDecl18setAsRedeclarationEPKS0_
libclangAST.so.8:_ZN5clang14ObjCMethodDecl19setParamsAndSelLocsERNS_10ASTContextEN4llvm8ArrayRefIPNS_11ParmVarDeclEEENS4_INS_14SourceLocationEEE
libclangAST.so.8:_ZN5clang14ObjCMethodDecl20createImplicitParamsERNS_10ASTContextEPKNS_17ObjCInterfaceDeclE
libclangAST.so.8:_ZN5clang14ObjCMethodDecl24getNextRedeclarationImplEv
libclangAST.so.8:_ZN5clang14ObjCMethodDecl6CreateERNS_10ASTContextENS_14SourceLocationES3_NS_8SelectorENS_8QualTypeEPNS_14TypeSourceInfoEPNS_11DeclContextEbbbbbNS0_21ImplementationControlEb
libclangAST.so.8:_ZN5clang14ObjCMethodDeclC1ENS_14SourceLocationES1_NS_8SelectorENS_8QualTypeEPNS_14TypeSourceInfoEPNS_11DeclContextEbbbbbNS0_21ImplementationControlEb
libclangAST.so.8:_ZN5clang14ObjCMethodDeclC2ENS_14SourceLocationES1_NS_8SelectorENS_8QualTypeEPNS_14TypeSourceInfoEPNS_11DeclContextEbbbbbNS0_21ImplementationControlEb
libclangAST.so.8:_ZN5clang14ObjCObjectTypeC1ENS_8QualTypeES1_N4llvm8ArrayRefIS1_EENS3_IPNS_16ObjCProtocolDeclEEEb
libclangAST.so.8:_ZN5clang14ObjCObjectTypeC2ENS_8QualTypeES1_N4llvm8ArrayRefIS1_EENS3_IPNS_16ObjCProtocolDeclEEEb
libclangAST.so.8:_ZN5clang14PredefinedExpr11ComputeNameB5cxx11ENS0_9IdentKindEPKNS_4DeclE
libclangAST.so.8:_ZN5clang14PredefinedExpr11CreateEmptyERKNS_10ASTContextEb
libclangAST.so.8:_ZN5clang14PredefinedExpr16getIdentKindNameENS0_9IdentKindE
libclangAST.so.8:_ZN5clang14PredefinedExpr6CreateERKNS_10ASTContextENS_14SourceLocationENS_8QualTypeENS0_9IdentKindEPNS_13StringLiteralE
libclangAST.so.8:_ZN5clang14PredefinedExprC1ENS_14SourceLocationENS_8QualTypeENS0_9IdentKindEPNS_13StringLiteralE
libclangAST.so.8:_ZN5clang14PredefinedExprC1ENS_4Stmt10EmptyShellEb
libclangAST.so.8:_ZN5clang14PredefinedExprC2ENS_14SourceLocationENS_8QualTypeENS0_9IdentKindEPNS_13StringLiteralE
libclangAST.so.8:_ZN5clang14PredefinedExprC2ENS_4Stmt10EmptyShellEb
libclangAST.so.8:_ZN5clang14RawCommentList10addCommentERKNS_10RawCommentERKNS_14CommentOptionsERN4llvm20BumpPtrAllocatorImplINS7_15MallocAllocatorELm4096ELm4096EEE
libclangAST.so.8:_ZN5clang14RawCommentList23addDeserializedCommentsEN4llvm8ArrayRefIPNS_10RawCommentEEE
libclangAST.so.8:_ZN5clang14SEHFinallyStmt6CreateERKNS_10ASTContextENS_14SourceLocationEPNS_4StmtE
libclangAST.so.8:_ZN5clang14SEHFinallyStmtC1ENS_14SourceLocationEPNS_4StmtE
libclangAST.so.8:_ZN5clang14SEHFinallyStmtC2ENS_14SourceLocationEPNS_4StmtE
libclangAST.so.8:_ZN5clang14SizeOfPackExpr18CreateDeserializedERNS_10ASTContextEj
libclangAST.so.8:_ZN5clang14SizeOfPackExpr6CreateERNS_10ASTContextENS_14SourceLocationEPNS_9NamedDeclES3_S3_N4llvm8OptionalIjEENS6_8ArrayRefINS_16TemplateArgumentEEE
libclangAST.so.8:_ZN5clang14StoredDeclsMap10DestroyAllEPS0_b
libclangAST.so.8:_ZN5clang14TextNodeDumper11VisitIfStmtEPKNS_6IfStmtE
libclangAST.so.8:_ZN5clang14TextNodeDumper11dumpDeclRefEPKNS_4DeclEN4llvm9StringRefE
libclangAST.so.8:_ZN5clang14TextNodeDumper11dumpPointerEPKv
libclangAST.so.8:_ZN5clang14TextNodeDumper12VisitTagTypeEPKNS_7TagTypeE
libclangAST.so.8:_ZN5clang14TextNodeDumper12dumpBareTypeENS_8QualTypeEb
libclangAST.so.8:_ZN5clang14TextNodeDumper12dumpLocationENS_14SourceLocationE
libclangAST.so.8:_ZN5clang14TextNodeDumper13VisitAutoTypeEPKNS_8AutoTypeE
libclangAST.so.8:_ZN5clang14TextNodeDumper13VisitCallExprEPKNS_8CallExprE
libclangAST.so.8:_ZN5clang14TextNodeDumper13VisitCaseStmtEPKNS_8CaseStmtE
libclangAST.so.8:_ZN5clang14TextNodeDumper13VisitCastExprEPKNS_8CastExprE
libclangAST.so.8:_ZN5clang14TextNodeDumper13VisitGotoStmtEPKNS_8GotoStmtE
libclangAST.so.8:_ZN5clang14TextNodeDumper14VisitArrayTypeEPKNS_9ArrayTypeE
libclangAST.so.8:_ZN5clang14TextNodeDumper14VisitLabelStmtEPKNS_9LabelStmtE
libclangAST.so.8:_ZN5clang14TextNodeDumper14VisitWhileStmtEPKNS_9WhileStmtE
libclangAST.so.8:_ZN5clang14TextNodeDumper14getCommandNameEj
libclangAST.so.8:_ZN5clang14TextNodeDumper15VisitCXXNewExprEPKNS_10CXXNewExprE
libclangAST.so.8:_ZN5clang14TextNodeDumper15VisitMemberExprEPKNS_10MemberExprE
libclangAST.so.8:_ZN5clang14TextNodeDumper15VisitSwitchStmtEPKNS_10SwitchStmtE
libclangAST.so.8:_ZN5clang14TextNodeDumper15VisitVectorTypeEPKNS_10VectorTypeE
libclangAST.so.8:_ZN5clang14TextNodeDumper15dumpBareDeclRefEPKNS_4DeclE
libclangAST.so.8:_ZN5clang14TextNodeDumper15dumpSourceRangeENS_11SourceRangeE
libclangAST.so.8:_ZN5clang14TextNodeDumper16VisitCXXThisExprEPKNS_11CXXThisExprE
libclangAST.so.8:_ZN5clang14TextNodeDumper16VisitDeclRefExprEPKNS_11DeclRefExprE
libclangAST.so.8:_ZN5clang14TextNodeDumper16VisitTypedefTypeEPKNS_11TypedefTypeE
libclangAST.so.8:_ZN5clang14TextNodeDumper16dumpCXXTemporaryEPKNS_12CXXTemporaryE
libclangAST.so.8:_ZN5clang14TextNodeDumper16visitTextCommentEPKNS_8comments11TextCommentEPKNS1_11FullCommentE
libclangAST.so.8:_ZN5clang14TextNodeDumper17VisitFunctionTypeEPKNS_12FunctionTypeE
libclangAST.so.8:_ZN5clang14TextNodeDumper17VisitInitListExprEPKNS_12InitListExprE
libclangAST.so.8:_ZN5clang14TextNodeDumper18VisitAddrLabelExprEPKNS_13AddrLabelExprE
libclangAST.so.8:_ZN5clang14TextNodeDumper18VisitCXXDeleteExprEPKNS_13CXXDeleteExprE
libclangAST.so.8:_ZN5clang14TextNodeDumper18VisitObjCBoxedExprEPKNS_13ObjCBoxedExprE
libclangAST.so.8:_ZN5clang14TextNodeDumper18VisitStringLiteralEPKNS_13StringLiteralE
libclangAST.so.8:_ZN5clang14TextNodeDumper18VisitUnaryOperatorEPKNS_13UnaryOperatorE
libclangAST.so.8:_ZN5clang14TextNodeDumper19VisitBinaryOperatorEPKNS_14BinaryOperatorE
libclangAST.so.8:_ZN5clang14TextNodeDumper19VisitIntegerLiteralEPKNS_14IntegerLiteralE
libclangAST.so.8:_ZN5clang14TextNodeDumper19VisitObjCEncodeExprEPKNS_14ObjCEncodeExprE
libclangAST.so.8:_ZN5clang14TextNodeDumper19VisitPredefinedExprEPKNS_14PredefinedExprE
libclangAST.so.8:_ZN5clang14TextNodeDumper19VisitSizeOfPackExprEPKNS_14SizeOfPackExprE
libclangAST.so.8:_ZN5clang14TextNodeDumper19dumpAccessSpecifierENS_15AccessSpecifierE
libclangAST.so.8:_ZN5clang14TextNodeDumper20VisitFloatingLiteralEPKNS_15FloatingLiteralE
libclangAST.so.8:_ZN5clang14TextNodeDumper20VisitObjCAtCatchStmtEPKNS_15ObjCAtCatchStmtE
libclangAST.so.8:_ZN5clang14TextNodeDumper20VisitObjCIvarRefExprEPKNS_15ObjCIvarRefExprE
libclangAST.so.8:_ZN5clang14TextNodeDumper20VisitObjCMessageExprEPKNS_15ObjCMessageExprE
libclangAST.so.8:_ZN5clang14TextNodeDumper21VisitCXXConstructExprEPKNS_16CXXConstructExprE
libclangAST.so.8:_ZN5clang14TextNodeDumper21VisitCXXNamedCastExprEPKNS_16CXXNamedCastExprE
libclangAST.so.8:_ZN5clang14TextNodeDumper21VisitCharacterLiteralEPKNS_16CharacterLiteralE
libclangAST.so.8:_ZN5clang14TextNodeDumper21VisitExprWithCleanupsEPKNS_16ExprWithCleanupsE
libclangAST.so.8:_ZN5clang14TextNodeDumper21VisitImplicitCastExprEPKNS_16ImplicitCastExprE
libclangAST.so.8:_ZN5clang14TextNodeDumper21VisitObjCProtocolExprEPKNS_16ObjCProtocolExprE
libclangAST.so.8:_ZN5clang14TextNodeDumper21VisitObjCSelectorExprEPKNS_16ObjCSelectorExprE
libclangAST.so.8:_ZN5clang14TextNodeDumper22VisitConstantArrayTypeEPKNS_17ConstantArrayTypeE
libclangAST.so.8:_ZN5clang14TextNodeDumper22VisitFixedPointLiteralEPKNS_17FixedPointLiteralE
libclangAST.so.8:_ZN5clang14TextNodeDumper22VisitFunctionProtoTypeEPKNS_17FunctionProtoTypeE
libclangAST.so.8:_ZN5clang14TextNodeDumper22VisitObjCInterfaceTypeEPKNS_17ObjCInterfaceTypeE
libclangAST.so.8:_ZN5clang14TextNodeDumper22VisitPackExpansionTypeEPKNS_17PackExpansionTypeE
libclangAST.so.8:_ZN5clang14TextNodeDumper22VisitVariableArrayTypeEPKNS_17VariableArrayTypeE
libclangAST.so.8:_ZN5clang14TextNodeDumper22visitHTMLEndTagCommentEPKNS_8comments17HTMLEndTagCommentEPKNS1_11FullCommentE
libclangAST.so.8:_ZN5clang14TextNodeDumper23VisitCXXBoolLiteralExprEPKNS_18CXXBoolLiteralExprE
libclangAST.so.8:_ZN5clang14TextNodeDumper23VisitUnaryTransformTypeEPKNS_18UnaryTransformTypeE
libclangAST.so.8:_ZN5clang14TextNodeDumper24VisitObjCBoolLiteralExprEPKNS_19ObjCBoolLiteralExprE
libclangAST.so.8:_ZN5clang14TextNodeDumper24VisitObjCPropertyRefExprEPKNS_19ObjCPropertyRefExprE
libclangAST.so.8:_ZN5clang14TextNodeDumper24VisitRValueReferenceTypeEPKNS_13ReferenceTypeE
libclangAST.so.8:_ZN5clang14TextNodeDumper24VisitUnresolvedUsingTypeEPKNS_19UnresolvedUsingTypeE
libclangAST.so.8:_ZN5clang14TextNodeDumper24visitBlockCommandCommentEPKNS_8comments19BlockCommandCommentEPKNS1_11FullCommentE
libclangAST.so.8:_ZN5clang14TextNodeDumper24visitHTMLStartTagCommentEPKNS_8comments19HTMLStartTagCommentEPKNS1_11FullCommentE
libclangAST.so.8:_ZN5clang14TextNodeDumper24visitParamCommandCommentEPKNS_8comments19ParamCommandCommentEPKNS1_11FullCommentE
libclangAST.so.8:_ZN5clang14TextNodeDumper24visitVerbatimLineCommentEPKNS_8comments19VerbatimLineCommentEPKNS1_11FullCommentE
libclangAST.so.8:_ZN5clang14TextNodeDumper25VisitCXXBindTemporaryExprEPKNS_20CXXBindTemporaryExprE
libclangAST.so.8:_ZN5clang14TextNodeDumper25VisitExtVectorElementExprEPKNS_20ExtVectorElementExprE
libclangAST.so.8:_ZN5clang14TextNodeDumper25VisitNullTemplateArgumentERKNS_16TemplateArgumentE
libclangAST.so.8:_ZN5clang14TextNodeDumper25VisitObjCSubscriptRefExprEPKNS_20ObjCSubscriptRefExprE
libclangAST.so.8:_ZN5clang14TextNodeDumper25VisitPackTemplateArgumentERKNS_16TemplateArgumentE
libclangAST.so.8:_ZN5clang14TextNodeDumper25VisitTemplateTypeParmTypeEPKNS_20TemplateTypeParmTypeE
libclangAST.so.8:_ZN5clang14TextNodeDumper25VisitTypeTemplateArgumentERKNS_16TemplateArgumentE
libclangAST.so.8:_ZN5clang14TextNodeDumper25VisitUnresolvedLookupExprEPKNS_20UnresolvedLookupExprE
libclangAST.so.8:_ZN5clang14TextNodeDumper25visitInlineCommandCommentEPKNS_8comments20InlineCommandCommentEPKNS1_11FullCommentE
libclangAST.so.8:_ZN5clang14TextNodeDumper25visitTParamCommandCommentEPKNS_8comments20TParamCommandCommentEPKNS1_11FullCommentE
libclangAST.so.8:_ZN5clang14TextNodeDumper25visitVerbatimBlockCommentEPKNS_8comments20VerbatimBlockCommentEPKNS1_11FullCommentE
libclangAST.so.8:_ZN5clang14TextNodeDumper26VisitCXXFunctionalCastExprEPKNS_21CXXFunctionalCastExprE
libclangAST.so.8:_ZN5clang14TextNodeDumper26VisitInjectedClassNameTypeEPKNS_21InjectedClassNameTypeE
libclangAST.so.8:_ZN5clang14TextNodeDumper27VisitCompoundAssignOperatorEPKNS_22CompoundAssignOperatorE
libclangAST.so.8:_ZN5clang14TextNodeDumper28VisitDependentSizedArrayTypeEPKNS_23DependentSizedArrayTypeE
libclangAST.so.8:_ZN5clang14TextNodeDumper28VisitNullPtrTemplateArgumentERKNS_16TemplateArgumentE
libclangAST.so.8:_ZN5clang14TextNodeDumper29VisitIntegralTemplateArgumentERKNS_16TemplateArgumentE
libclangAST.so.8:_ZN5clang14TextNodeDumper29VisitMaterializeTemporaryExprEPKNS_24MaterializeTemporaryExprE
libclangAST.so.8:_ZN5clang14TextNodeDumper29VisitTemplateTemplateArgumentERKNS_16TemplateArgumentE
libclangAST.so.8:_ZN5clang14TextNodeDumper29VisitUnaryExprOrTypeTraitExprEPKNS_24UnaryExprOrTypeTraitExprE
libclangAST.so.8:_ZN5clang14TextNodeDumper29visitVerbatimBlockLineCommentEPKNS_8comments24VerbatimBlockLineCommentEPKNS1_11FullCommentE
libclangAST.so.8:_ZN5clang14TextNodeDumper31VisitCXXUnresolvedConstructExprEPKNS_26CXXUnresolvedConstructExprE
libclangAST.so.8:_ZN5clang14TextNodeDumper31VisitExpressionTemplateArgumentERKNS_16TemplateArgumentE
libclangAST.so.8:_ZN5clang14TextNodeDumper31VisitTemplateSpecializationTypeEPKNS_26TemplateSpecializationTypeE
libclangAST.so.8:_ZN5clang14TextNodeDumper32VisitCXXDependentScopeMemberExprEPKNS_27CXXDependentScopeMemberExprE
libclangAST.so.8:_ZN5clang14TextNodeDumper32VisitDeclarationTemplateArgumentERKNS_16TemplateArgumentE
libclangAST.so.8:_ZN5clang14TextNodeDumper32VisitDependentSizedExtVectorTypeEPKNS_27DependentSizedExtVectorTypeE
libclangAST.so.8:_ZN5clang14TextNodeDumper38VisitTemplateExpansionTemplateArgumentERKNS_16TemplateArgumentE
libclangAST.so.8:_ZN5clang14TextNodeDumper5VisitENS_8QualTypeE
libclangAST.so.8:_ZN5clang14TextNodeDumper5VisitEPKNS_18CXXCtorInitializerE
libclangAST.so.8:_ZN5clang14TextNodeDumper5VisitEPKNS_4AttrE
libclangAST.so.8:_ZN5clang14TextNodeDumper5VisitEPKNS_4DeclE
libclangAST.so.8:_ZN5clang14TextNodeDumper5VisitEPKNS_4StmtE
libclangAST.so.8:_ZN5clang14TextNodeDumper5VisitEPKNS_4TypeE
libclangAST.so.8:_ZN5clang14TextNodeDumper5VisitEPKNS_8comments7CommentEPKNS1_11FullCommentE
libclangAST.so.8:_ZN5clang14TextNodeDumper5VisitEPKNS_9OMPClauseE
libclangAST.so.8:_ZN5clang14TextNodeDumper5VisitERKNS_16TemplateArgumentENS_11SourceRangeEPKNS_4DeclEN4llvm9StringRefE
libclangAST.so.8:_ZN5clang14TextNodeDumper5VisitERKNS_9BlockDecl7CaptureE
libclangAST.so.8:_ZN5clang14TextNodeDumper8dumpNameEPKNS_9NamedDeclE
libclangAST.so.8:_ZN5clang14TextNodeDumper8dumpTypeENS_8QualTypeE
libclangAST.so.8:_ZN5clang14TextNodeDumperC1ERN4llvm11raw_ostreamEbPKNS_13SourceManagerERKNS_14PrintingPolicyEPKNS_8comments13CommandTraitsE
libclangAST.so.8:_ZN5clang14TextNodeDumperC2ERN4llvm11raw_ostreamEbPKNS_13SourceManagerERKNS_14PrintingPolicyEPKNS_8comments13CommandTraitsE
libclangAST.so.8:_ZN5clang14TypeOfExprTypeC1EPNS_4ExprENS_8QualTypeE
libclangAST.so.8:_ZN5clang14TypeOfExprTypeC2EPNS_4ExprENS_8QualTypeE
libclangAST.so.8:_ZN5clang14analyze_os_log24computeOSLogBufferLayoutERNS_10ASTContextEPKNS_8CallExprERNS0_17OSLogBufferLayoutE
libclangAST.so.8:_ZN5clang14analyze_printf15PrintfSpecifier7fixTypeENS_8QualTypeERKNS_11LangOptionsERNS_10ASTContextEb
libclangAST.so.8:_ZN5clang15ASTNodeImporter11VisitDoStmtEPNS_6DoStmtE
libclangAST.so.8:_ZN5clang15ASTNodeImporter11VisitIfStmtEPNS_6IfStmtE
libclangAST.so.8:_ZN5clang15ASTNodeImporter12VisitForStmtEPNS_7ForStmtE
libclangAST.so.8:_ZN5clang15ASTNodeImporter12VisitVarDeclEPNS_7VarDeclE
libclangAST.so.8:_ZN5clang15ASTNodeImporter13VisitAutoTypeEPKNS_8AutoTypeE
libclangAST.so.8:_ZN5clang15ASTNodeImporter13VisitCallExprEPNS_8CallExprE
libclangAST.so.8:_ZN5clang15ASTNodeImporter13VisitCaseStmtEPNS_8CaseStmtE
libclangAST.so.8:_ZN5clang15ASTNodeImporter13VisitDeclStmtEPNS_8DeclStmtE
libclangAST.so.8:_ZN5clang15ASTNodeImporter13VisitEnumDeclEPNS_8EnumDeclE
libclangAST.so.8:_ZN5clang15ASTNodeImporter13VisitEnumTypeEPKNS_8EnumTypeE
libclangAST.so.8:_ZN5clang15ASTNodeImporter13VisitGotoStmtEPNS_8GotoStmtE
libclangAST.so.8:_ZN5clang15ASTNodeImporter13VisitNullStmtEPNS_8NullStmtE
libclangAST.so.8:_ZN5clang15ASTNodeImporter13VisitStmtExprEPNS_8StmtExprE
libclangAST.so.8:_ZN5clang15ASTNodeImporter14ImportCastPathEPNS_8CastExprE
libclangAST.so.8:_ZN5clang15ASTNodeImporter14VisitBreakStmtEPNS_9BreakStmtE
libclangAST.so.8:_ZN5clang15ASTNodeImporter14VisitEmptyDeclEPNS_9EmptyDeclE
libclangAST.so.8:_ZN5clang15ASTNodeImporter14VisitFieldDeclEPNS_9FieldDeclE
libclangAST.so.8:_ZN5clang15ASTNodeImporter14VisitLabelDeclEPNS_9LabelDeclE
libclangAST.so.8:_ZN5clang15ASTNodeImporter14VisitLabelStmtEPNS_9LabelStmtE
libclangAST.so.8:_ZN5clang15ASTNodeImporter14VisitParenExprEPNS_9ParenExprE
libclangAST.so.8:_ZN5clang15ASTNodeImporter14VisitParenTypeEPKNS_9ParenTypeE
libclangAST.so.8:_ZN5clang15ASTNodeImporter14VisitUsingDeclEPNS_9UsingDeclE
libclangAST.so.8:_ZN5clang15ASTNodeImporter14VisitVAArgExprEPNS_9VAArgExprE
libclangAST.so.8:_ZN5clang15ASTNodeImporter14VisitWhileStmtEPNS_9WhileStmtE
libclangAST.so.8:_ZN5clang15ASTNodeImporter15ImportDeclPartsEPNS_9NamedDeclERPNS_11DeclContextES5_RNS_15DeclarationNameERS2_RNS_14SourceLocationE
libclangAST.so.8:_ZN5clang15ASTNodeImporter15ImportOverridesEPNS_13CXXMethodDeclES2_
libclangAST.so.8:_ZN5clang15ASTNodeImporter15VisitAtomicExprEPNS_10AtomicExprE
libclangAST.so.8:_ZN5clang15ASTNodeImporter15VisitAtomicTypeEPKNS_10AtomicTypeE
libclangAST.so.8:_ZN5clang15ASTNodeImporter15VisitCXXNewExprEPNS_10CXXNewExprE
libclangAST.so.8:_ZN5clang15ASTNodeImporter15VisitCXXTryStmtEPNS_10CXXTryStmtE
libclangAST.so.8:_ZN5clang15ASTNodeImporter15VisitFriendDeclEPNS_10FriendDeclE
libclangAST.so.8:_ZN5clang15ASTNodeImporter15VisitGCCAsmStmtEPNS_10GCCAsmStmtE
libclangAST.so.8:_ZN5clang15ASTNodeImporter15VisitImportDeclEPNS_10ImportDeclE
libclangAST.so.8:_ZN5clang15ASTNodeImporter15VisitLambdaExprEPNS_10LambdaExprE
libclangAST.so.8:_ZN5clang15ASTNodeImporter15VisitMemberExprEPNS_10MemberExprE
libclangAST.so.8:_ZN5clang15ASTNodeImporter15VisitRecordDeclEPNS_10RecordDeclE
libclangAST.so.8:_ZN5clang15ASTNodeImporter15VisitRecordTypeEPKNS_10RecordTypeE
libclangAST.so.8:_ZN5clang15ASTNodeImporter15VisitReturnStmtEPNS_10ReturnStmtE
libclangAST.so.8:_ZN5clang15ASTNodeImporter15VisitSwitchStmtEPNS_10SwitchStmtE
libclangAST.so.8:_ZN5clang15ASTNodeImporter15VisitTypeOfTypeEPKNS_10TypeOfTypeE
libclangAST.so.8:_ZN5clang15ASTNodeImporter15VisitVectorTypeEPKNS_10VectorTypeE
libclangAST.so.8:_ZN5clang15ASTNodeImporter16ImportDefinitionEPNS_10RecordDeclES2_NS0_20ImportDefinitionKindE
libclangAST.so.8:_ZN5clang15ASTNodeImporter16ImportDefinitionEPNS_16ObjCProtocolDeclES2_NS0_20ImportDefinitionKindE
libclangAST.so.8:_ZN5clang15ASTNodeImporter16ImportDefinitionEPNS_17ObjCInterfaceDeclES2_NS0_20ImportDefinitionKindE
libclangAST.so.8:_ZN5clang15ASTNodeImporter16ImportDefinitionEPNS_8EnumDeclES2_NS0_20ImportDefinitionKindE
libclangAST.so.8:_ZN5clang15ASTNodeImporter16VisitBuiltinTypeEPKNS_11BuiltinTypeE
libclangAST.so.8:_ZN5clang15ASTNodeImporter16VisitCXXThisExprEPNS_11CXXThisExprE
libclangAST.so.8:_ZN5clang15ASTNodeImporter16VisitComplexTypeEPKNS_11ComplexTypeE
libclangAST.so.8:_ZN5clang15ASTNodeImporter16VisitDecayedTypeEPKNS_11DecayedTypeE
libclangAST.so.8:_ZN5clang15ASTNodeImporter16VisitDeclRefExprEPNS_11DeclRefExprE
libclangAST.so.8:_ZN5clang15ASTNodeImporter16VisitDefaultStmtEPNS_11DefaultStmtE
libclangAST.so.8:_ZN5clang15ASTNodeImporter16VisitGNUNullExprEPNS_11GNUNullExprE
libclangAST.so.8:_ZN5clang15ASTNodeImporter16VisitParmVarDeclEPNS_11ParmVarDeclE
libclangAST.so.8:_ZN5clang15ASTNodeImporter16VisitPointerTypeEPKNS_11PointerTypeE
libclangAST.so.8:_ZN5clang15ASTNodeImporter16VisitTypedefDeclEPNS_11TypedefDeclE
libclangAST.so.8:_ZN5clang15ASTNodeImporter16VisitTypedefTypeEPKNS_11TypedefTypeE
libclangAST.so.8:_ZN5clang15ASTNodeImporter17ImportDeclContextEPNS_11DeclContextEb
libclangAST.so.8:_ZN5clang15ASTNodeImporter17ImportDeclContextEPNS_4DeclERPNS_11DeclContextES5_
libclangAST.so.8:_ZN5clang15ASTNodeImporter17ImportInitializerEPNS_7VarDeclES2_
libclangAST.so.8:_ZN5clang15ASTNodeImporter17IsStructuralMatchEPNS_10RecordDeclES2_b
libclangAST.so.8:_ZN5clang15ASTNodeImporter17IsStructuralMatchEPNS_12FunctionDeclES2_
libclangAST.so.8:_ZN5clang15ASTNodeImporter17IsStructuralMatchEPNS_15VarTemplateDeclES2_
libclangAST.so.8:_ZN5clang15ASTNodeImporter17IsStructuralMatchEPNS_16EnumConstantDeclES2_
libclangAST.so.8:_ZN5clang15ASTNodeImporter17IsStructuralMatchEPNS_17ClassTemplateDeclES2_
libclangAST.so.8:_ZN5clang15ASTNodeImporter17IsStructuralMatchEPNS_20FunctionTemplateDeclES2_
libclangAST.so.8:_ZN5clang15ASTNodeImporter17IsStructuralMatchEPNS_4DeclES2_b
libclangAST.so.8:_ZN5clang15ASTNodeImporter17IsStructuralMatchEPNS_7VarDeclES2_b
libclangAST.so.8:_ZN5clang15ASTNodeImporter17IsStructuralMatchEPNS_8EnumDeclES2_
libclangAST.so.8:_ZN5clang15ASTNodeImporter17VisitCXXCatchStmtEPNS_12CXXCatchStmtE
libclangAST.so.8:_ZN5clang15ASTNodeImporter17VisitCXXThrowExprEPNS_12CXXThrowExprE
libclangAST.so.8:_ZN5clang15ASTNodeImporter17VisitCompoundStmtEPNS_12CompoundStmtE
libclangAST.so.8:_ZN5clang15ASTNodeImporter17VisitConstantExprEPNS_12ConstantExprE
libclangAST.so.8:_ZN5clang15ASTNodeImporter17VisitContinueStmtEPNS_12ContinueStmtE
libclangAST.so.8:_ZN5clang15ASTNodeImporter17VisitDecltypeTypeEPKNS_12DecltypeTypeE
libclangAST.so.8:_ZN5clang15ASTNodeImporter17VisitFunctionDeclEPNS_12FunctionDeclE
libclangAST.so.8:_ZN5clang15ASTNodeImporter17VisitInitListExprEPNS_12InitListExprE
libclangAST.so.8:_ZN5clang15ASTNodeImporter17VisitObjCIvarDeclEPNS_12ObjCIvarDeclE
libclangAST.so.8:_ZN5clang15ASTNodeImporter17VisitOffsetOfExprEPNS_12OffsetOfExprE
libclangAST.so.8:_ZN5clang15ASTNodeImporter18VisitAddrLabelExprEPNS_13AddrLabelExprE
libclangAST.so.8:_ZN5clang15ASTNodeImporter18VisitCXXDeleteExprEPNS_13CXXDeleteExprE
libclangAST.so.8:_ZN5clang15ASTNodeImporter18VisitCXXMethodDeclEPNS_13CXXMethodDeclE
libclangAST.so.8:_ZN5clang15ASTNodeImporter18VisitCXXTypeidExprEPNS_13CXXTypeidExprE
libclangAST.so.8:_ZN5clang15ASTNodeImporter18VisitExtVectorTypeEPKNS_13ExtVectorTypeE
libclangAST.so.8:_ZN5clang15ASTNodeImporter18VisitNamespaceDeclEPNS_13NamespaceDeclE
libclangAST.so.8:_ZN5clang15ASTNodeImporter18VisitObjCAtTryStmtEPNS_13ObjCAtTryStmtE
libclangAST.so.8:_ZN5clang15ASTNodeImporter18VisitParenListExprEPNS_13ParenListExprE
libclangAST.so.8:_ZN5clang15ASTNodeImporter18VisitStringLiteralEPNS_13StringLiteralE
libclangAST.so.8:_ZN5clang15ASTNodeImporter18VisitTypeAliasDeclEPNS_13TypeAliasDeclE
libclangAST.so.8:_ZN5clang15ASTNodeImporter18VisitTypeTraitExprEPNS_13TypeTraitExprE
libclangAST.so.8:_ZN5clang15ASTNodeImporter18VisitUnaryOperatorEPNS_13UnaryOperatorE
libclangAST.so.8:_ZN5clang15ASTNodeImporter19VisitAccessSpecDeclEPNS_14AccessSpecDeclE
libclangAST.so.8:_ZN5clang15ASTNodeImporter19VisitAttributedStmtEPNS_14AttributedStmtE
libclangAST.so.8:_ZN5clang15ASTNodeImporter19VisitAttributedTypeEPKNS_14AttributedTypeE
libclangAST.so.8:_ZN5clang15ASTNodeImporter19VisitBinaryOperatorEPNS_14BinaryOperatorE
libclangAST.so.8:_ZN5clang15ASTNodeImporter19VisitElaboratedTypeEPKNS_14ElaboratedTypeE
libclangAST.so.8:_ZN5clang15ASTNodeImporter19VisitIntegerLiteralEPNS_14IntegerLiteralE
libclangAST.so.8:_ZN5clang15ASTNodeImporter19VisitObjCMethodDeclEPNS_14ObjCMethodDeclE
libclangAST.so.8:_ZN5clang15ASTNodeImporter19VisitObjCObjectTypeEPKNS_14ObjCObjectTypeE
libclangAST.so.8:_ZN5clang15ASTNodeImporter19VisitPredefinedExprEPNS_14PredefinedExprE
libclangAST.so.8:_ZN5clang15ASTNodeImporter19VisitSizeOfPackExprEPNS_14SizeOfPackExprE
libclangAST.so.8:_ZN5clang15ASTNodeImporter19VisitTypeOfExprTypeEPKNS_14TypeOfExprTypeE
libclangAST.so.8:_ZN5clang15ASTNodeImporter20VisitCXXForRangeStmtEPNS_15CXXForRangeStmtE
libclangAST.so.8:_ZN5clang15ASTNodeImporter20VisitCXXNoexceptExprEPNS_15CXXNoexceptExprE
libclangAST.so.8:_ZN5clang15ASTNodeImporter20VisitFloatingLiteralEPNS_15FloatingLiteralE
libclangAST.so.8:_ZN5clang15ASTNodeImporter20VisitLinkageSpecDeclEPNS_15LinkageSpecDeclE
libclangAST.so.8:_ZN5clang15ASTNodeImporter20VisitObjCAtCatchStmtEPNS_15ObjCAtCatchStmtE
libclangAST.so.8:_ZN5clang15ASTNodeImporter20VisitObjCAtThrowStmtEPNS_15ObjCAtThrowStmtE
libclangAST.so.8:_ZN5clang15ASTNodeImporter20VisitOpaqueValueExprEPNS_15OpaqueValueExprE
libclangAST.so.8:_ZN5clang15ASTNodeImporter20VisitTypedefNameDeclEPNS_15TypedefNameDeclEb
libclangAST.so.8:_ZN5clang15ASTNodeImporter20VisitUsingShadowDeclEPNS_15UsingShadowDeclE
libclangAST.so.8:_ZN5clang15ASTNodeImporter20VisitVarTemplateDeclEPNS_15VarTemplateDeclE
libclangAST.so.8:_ZN5clang15ASTNodeImporter21ImportImplicitMethodsEPKNS_13CXXRecordDeclEPS1_
libclangAST.so.8:_ZN5clang15ASTNodeImporter21VisitBlockPointerTypeEPKNS_16BlockPointerTypeE
libclangAST.so.8:_ZN5clang15ASTNodeImporter21VisitCXXConstructExprEPNS_16CXXConstructExprE
libclangAST.so.8:_ZN5clang15ASTNodeImporter21VisitCXXNamedCastExprEPNS_16CXXNamedCastExprE
libclangAST.so.8:_ZN5clang15ASTNodeImporter21VisitCharacterLiteralEPNS_16CharacterLiteralE
libclangAST.so.8:_ZN5clang15ASTNodeImporter21VisitEnumConstantDeclEPNS_16EnumConstantDeclE
libclangAST.so.8:_ZN5clang15ASTNodeImporter21VisitExplicitCastExprEPNS_16ExplicitCastExprE
libclangAST.so.8:_ZN5clang15ASTNodeImporter21VisitExprWithCleanupsEPNS_16ExprWithCleanupsE
libclangAST.so.8:_ZN5clang15ASTNodeImporter21VisitImaginaryLiteralEPNS_16ImaginaryLiteralE
libclangAST.so.8:_ZN5clang15ASTNodeImporter21VisitImplicitCastExprEPNS_16ImplicitCastExprE
libclangAST.so.8:_ZN5clang15ASTNodeImporter21VisitIndirectGotoStmtEPNS_16IndirectGotoStmtE
libclangAST.so.8:_ZN5clang15ASTNodeImporter21VisitObjCCategoryDeclEPNS_16ObjCCategoryDeclE
libclangAST.so.8:_ZN5clang15ASTNodeImporter21VisitObjCPropertyDeclEPNS_16ObjCPropertyDeclE
libclangAST.so.8:_ZN5clang15ASTNodeImporter21VisitObjCProtocolDeclEPNS_16ObjCProtocolDeclE
libclangAST.so.8:_ZN5clang15ASTNodeImporter21VisitStaticAssertDeclEPNS_16StaticAssertDeclE
libclangAST.so.8:_ZN5clang15ASTNodeImporter22ImportTemplateArgumentERKNS_16TemplateArgumentE
libclangAST.so.8:_ZN5clang15ASTNodeImporter22VisitArrayInitLoopExprEPNS_17ArrayInitLoopExprE
libclangAST.so.8:_ZN5clang15ASTNodeImporter22VisitCXXConversionDeclEPNS_17CXXConversionDeclE
libclangAST.so.8:_ZN5clang15ASTNodeImporter22VisitCXXDefaultArgExprEPNS_17CXXDefaultArgExprE
libclangAST.so.8:_ZN5clang15ASTNodeImporter22VisitCXXDestructorDeclEPNS_17CXXDestructorDeclE
libclangAST.so.8:_ZN5clang15ASTNodeImporter22VisitCXXMemberCallExprEPNS_17CXXMemberCallExprE
libclangAST.so.8:_ZN5clang15ASTNodeImporter22VisitClassTemplateDeclEPNS_17ClassTemplateDeclE
libclangAST.so.8:_ZN5clang15ASTNodeImporter22VisitConstantArrayTypeEPKNS_17ConstantArrayTypeE
libclangAST.so.8:_ZN5clang15ASTNodeImporter22VisitDependentNameTypeEPKNS_17DependentNameTypeE
libclangAST.so.8:_ZN5clang15ASTNodeImporter22VisitFunctionProtoTypeEPKNS_17FunctionProtoTypeE
libclangAST.so.8:_ZN5clang15ASTNodeImporter22VisitImplicitParamDeclEPNS_17ImplicitParamDeclE
libclangAST.so.8:_ZN5clang15ASTNodeImporter22VisitIndirectFieldDeclEPNS_17IndirectFieldDeclE
libclangAST.so.8:_ZN5clang15ASTNodeImporter22VisitMemberPointerTypeEPKNS_17MemberPointerTypeE
libclangAST.so.8:_ZN5clang15ASTNodeImporter22VisitObjCAtFinallyStmtEPNS_17ObjCAtFinallyStmtE
libclangAST.so.8:_ZN5clang15ASTNodeImporter22VisitObjCInterfaceDeclEPNS_17ObjCInterfaceDeclE
libclangAST.so.8:_ZN5clang15ASTNodeImporter22VisitObjCInterfaceTypeEPKNS_17ObjCInterfaceTypeE
libclangAST.so.8:_ZN5clang15ASTNodeImporter22VisitObjCTypeParamDeclEPNS_17ObjCTypeParamDeclE
libclangAST.so.8:_ZN5clang15ASTNodeImporter22VisitPackExpansionExprEPNS_17PackExpansionExprE
libclangAST.so.8:_ZN5clang15ASTNodeImporter22VisitPackExpansionTypeEPKNS_17PackExpansionTypeE
libclangAST.so.8:_ZN5clang15ASTNodeImporter22VisitVariableArrayTypeEPKNS_17VariableArrayTypeE
libclangAST.so.8:_ZN5clang15ASTNodeImporter23ImportObjCTypeParamListEPNS_17ObjCTypeParamListE
libclangAST.so.8:_ZN5clang15ASTNodeImporter23ImportTemplateArgumentsEPKNS_16TemplateArgumentEjRN4llvm15SmallVectorImplIS1_EE
libclangAST.so.8:_ZN5clang15ASTNodeImporter23VisitArrayInitIndexExprEPNS_18ArrayInitIndexExprE
libclangAST.so.8:_ZN5clang15ASTNodeImporter23VisitArraySubscriptExprEPNS_18ArraySubscriptExprE
libclangAST.so.8:_ZN5clang15ASTNodeImporter23VisitArrayTypeTraitExprEPNS_18ArrayTypeTraitExprE
libclangAST.so.8:_ZN5clang15ASTNodeImporter23VisitCXXBoolLiteralExprEPNS_18CXXBoolLiteralExprE
libclangAST.so.8:_ZN5clang15ASTNodeImporter23VisitCXXConstructorDeclEPNS_18CXXConstructorDeclE
libclangAST.so.8:_ZN5clang15ASTNodeImporter23VisitCXXDefaultInitExprEPNS_18CXXDefaultInitExprE
libclangAST.so.8:_ZN5clang15ASTNodeImporter23VisitDesignatedInitExprEPNS_18DesignatedInitExprE
libclangAST.so.8:_ZN5clang15ASTNodeImporter23VisitNamespaceAliasDeclEPNS_18NamespaceAliasDeclE
libclangAST.so.8:_ZN5clang15ASTNodeImporter23VisitUnaryTransformTypeEPKNS_18UnaryTransformTypeE
libclangAST.so.8:_ZN5clang15ASTNodeImporter23VisitUsingDirectiveDeclEPNS_18UsingDirectiveDeclE
libclangAST.so.8:_ZN5clang15ASTNodeImporter24ImportDeclarationNameLocERKNS_19DeclarationNameInfoERS1_
libclangAST.so.8:_ZN5clang15ASTNodeImporter24ImportDefinitionIfNeededEPNS_4DeclES2_
libclangAST.so.8:_ZN5clang15ASTNodeImporter24VisitCompoundLiteralExprEPNS_19CompoundLiteralExprE
libclangAST.so.8:_ZN5clang15ASTNodeImporter24VisitConditionalOperatorEPNS_19ConditionalOperatorE
libclangAST.so.8:_ZN5clang15ASTNodeImporter24VisitExpressionTraitExprEPNS_19ExpressionTraitExprE
libclangAST.so.8:_ZN5clang15ASTNodeImporter24VisitFunctionNoProtoTypeEPKNS_19FunctionNoProtoTypeE
libclangAST.so.8:_ZN5clang15ASTNodeImporter24VisitIncompleteArrayTypeEPKNS_19IncompleteArrayTypeE
libclangAST.so.8:_ZN5clang15ASTNodeImporter24VisitLValueReferenceTypeEPKNS_19LValueReferenceTypeE
libclangAST.so.8:_ZN5clang15ASTNodeImporter24VisitRValueReferenceTypeEPKNS_19RValueReferenceTypeE
libclangAST.so.8:_ZN5clang15ASTNodeImporter24VisitTranslationUnitDeclEPNS_19TranslationUnitDeclE
libclangAST.so.8:_ZN5clang15ASTNodeImporter24VisitUnresolvedUsingTypeEPKNS_19UnresolvedUsingTypeE
libclangAST.so.8:_ZN5clang15ASTNodeImporter25ImportTemplateInformationEPNS_12FunctionDeclES2_
libclangAST.so.8:_ZN5clang15ASTNodeImporter25VisitCXXBindTemporaryExprEPNS_20CXXBindTemporaryExprE
libclangAST.so.8:_ZN5clang15ASTNodeImporter25VisitFunctionTemplateDeclEPNS_20FunctionTemplateDeclE
libclangAST.so.8:_ZN5clang15ASTNodeImporter25VisitObjCCategoryImplDeclEPNS_20ObjCCategoryImplDeclE
libclangAST.so.8:_ZN5clang15ASTNodeImporter25VisitObjCPropertyImplDeclEPNS_20ObjCPropertyImplDeclE
libclangAST.so.8:_ZN5clang15ASTNodeImporter25VisitTemplateTypeParmDeclEPNS_20TemplateTypeParmDeclE
libclangAST.so.8:_ZN5clang15ASTNodeImporter25VisitTemplateTypeParmTypeEPKNS_20TemplateTypeParmTypeE
libclangAST.so.8:_ZN5clang15ASTNodeImporter25VisitUnresolvedLookupExprEPNS_20UnresolvedLookupExprE
libclangAST.so.8:_ZN5clang15ASTNodeImporter25VisitUnresolvedMemberExprEPNS_20UnresolvedMemberExprE
libclangAST.so.8:_ZN5clang15ASTNodeImporter26VisitCXXNullPtrLiteralExprEPNS_21CXXNullPtrLiteralExprE
libclangAST.so.8:_ZN5clang15ASTNodeImporter26VisitImplicitValueInitExprEPNS_21ImplicitValueInitExprE
libclangAST.so.8:_ZN5clang15ASTNodeImporter26VisitInjectedClassNameTypeEPKNS_21InjectedClassNameTypeE
libclangAST.so.8:_ZN5clang15ASTNodeImporter26VisitObjCForCollectionStmtEPNS_21ObjCForCollectionStmtE
libclangAST.so.8:_ZN5clang15ASTNodeImporter26VisitObjCObjectPointerTypeEPKNS_21ObjCObjectPointerTypeE
libclangAST.so.8:_ZN5clang15ASTNodeImporter26VisitTypeAliasTemplateDeclEPNS_21TypeAliasTemplateDeclE
libclangAST.so.8:_ZN5clang15ASTNodeImporter27ImportTemplateParameterListEPNS_21TemplateParameterListE
libclangAST.so.8:_ZN5clang15ASTNodeImporter27VisitCXXScalarValueInitExprEPNS_22CXXScalarValueInitExprE
libclangAST.so.8:_ZN5clang15ASTNodeImporter27VisitCXXTemporaryObjectExprEPNS_22CXXTemporaryObjectExprE
libclangAST.so.8:_ZN5clang15ASTNodeImporter27VisitCompoundAssignOperatorEPNS_22CompoundAssignOperatorE
libclangAST.so.8:_ZN5clang15ASTNodeImporter27VisitObjCAtSynchronizedStmtEPNS_22ObjCAtSynchronizedStmtE
libclangAST.so.8:_ZN5clang15ASTNodeImporter27VisitObjCImplementationDeclEPNS_22ObjCImplementationDeclE
libclangAST.so.8:_ZN5clang15ASTNodeImporter28VisitCXXPseudoDestructorExprEPNS_23CXXPseudoDestructorExprE
libclangAST.so.8:_ZN5clang15ASTNodeImporter28VisitDependentSizedArrayTypeEPKNS_23DependentSizedArrayTypeE
libclangAST.so.8:_ZN5clang15ASTNodeImporter28VisitNonTypeTemplateParmDeclEPNS_23NonTypeTemplateParmDeclE
libclangAST.so.8:_ZN5clang15ASTNodeImporter28VisitObjCAutoreleasePoolStmtEPNS_23ObjCAutoreleasePoolStmtE
libclangAST.so.8:_ZN5clang15ASTNodeImporter29VisitCXXInheritedCtorInitExprEPNS_24CXXInheritedCtorInitExprE
libclangAST.so.8:_ZN5clang15ASTNodeImporter29VisitMaterializeTemporaryExprEPNS_24MaterializeTemporaryExprE
libclangAST.so.8:_ZN5clang15ASTNodeImporter29VisitTemplateTemplateParmDeclEPNS_24TemplateTemplateParmDeclE
libclangAST.so.8:_ZN5clang15ASTNodeImporter29VisitUnaryExprOrTypeTraitExprEPNS_24UnaryExprOrTypeTraitExprE
libclangAST.so.8:_ZN5clang15ASTNodeImporter29VisitUnresolvedUsingValueDeclEPNS_24UnresolvedUsingValueDeclE
libclangAST.so.8:_ZN5clang15ASTNodeImporter30ImportTemplateArgumentListInfoINS_24TemplateArgumentListInfoEEEN4llvm5ErrorERKT_RS2_
libclangAST.so.8:_ZN5clang15ASTNodeImporter30ImportTemplateArgumentListInfoINS_27ASTTemplateArgumentListInfoEEEN4llvm5ErrorERKT_RNS_24TemplateArgumentListInfoE
libclangAST.so.8:_ZN5clang15ASTNodeImporter30VisitBinaryConditionalOperatorEPNS_25BinaryConditionalOperatorE
libclangAST.so.8:_ZN5clang15ASTNodeImporter30VisitCXXStdInitializerListExprEPNS_25CXXStdInitializerListExprE
libclangAST.so.8:_ZN5clang15ASTNodeImporter30VisitDependentScopeDeclRefExprEPNS_25DependentScopeDeclRefExprE
libclangAST.so.8:_ZN5clang15ASTNodeImporter30VisitSubstTemplateTypeParmTypeEPKNS_25SubstTemplateTypeParmTypeE
libclangAST.so.8:_ZN5clang15ASTNodeImporter31VisitCXXUnresolvedConstructExprEPNS_26CXXUnresolvedConstructExprE
libclangAST.so.8:_ZN5clang15ASTNodeImporter31VisitTemplateSpecializationTypeEPKNS_26TemplateSpecializationTypeE
libclangAST.so.8:_ZN5clang15ASTNodeImporter32VisitCXXDependentScopeMemberExprEPNS_27CXXDependentScopeMemberExprE
libclangAST.so.8:_ZN5clang15ASTNodeImporter32VisitUnresolvedUsingTypenameDeclEPNS_27UnresolvedUsingTypenameDeclE
libclangAST.so.8:_ZN5clang15ASTNodeImporter33VisitSubstNonTypeTemplateParmExprEPNS_28SubstNonTypeTemplateParmExprE
libclangAST.so.8:_ZN5clang15ASTNodeImporter34FindFunctionTemplateSpecializationEPNS_12FunctionDeclE
libclangAST.so.8:_ZN5clang15ASTNodeImporter34VisitVarTemplateSpecializationDeclEPNS_29VarTemplateSpecializationDeclE
libclangAST.so.8:_ZN5clang15ASTNodeImporter36VisitClassTemplateSpecializationDeclEPNS_31ClassTemplateSpecializationDeclE
libclangAST.so.8:_ZN5clang15ASTNodeImporter40VisitDependentTemplateSpecializationTypeEPKNS_35DependentTemplateSpecializationTypeE
libclangAST.so.8:_ZN5clang15ASTNodeImporter56ImportFunctionTemplateWithTemplateArgsFromSpecializationEPNS_12FunctionDeclE
libclangAST.so.8:_ZN5clang15ASTNodeImporter6importINS_12DeclGroupRefEEEN4llvm8ExpectedIT_EERKS5_
libclangAST.so.8:_ZN5clang15ASTNodeImporter6importINS_12TemplateNameEEEN4llvm8ExpectedIT_EERKS5_
libclangAST.so.8:_ZN5clang15ASTNodeImporter6importINS_13LambdaCaptureEEEN4llvm8ExpectedIT_EERKS5_
libclangAST.so.8:_ZN5clang15ASTNodeImporter6importINS_16TemplateArgumentEEEN4llvm8ExpectedIT_EERKS5_
libclangAST.so.8:_ZN5clang15ASTNodeImporter6importINS_18DesignatedInitExpr10DesignatorEEEN4llvm8ExpectedIT_EERKS6_
libclangAST.so.8:_ZN5clang15ASTNodeImporter6importINS_19TemplateArgumentLocEEEN4llvm8ExpectedIT_EERKS5_
libclangAST.so.8:_ZN5clang15ASTNodeImporter6importINS_21TemplateParameterListEEEN4llvm8ExpectedIPT_EES6_
libclangAST.so.8:_ZN5clang15ASTNodeImporter9VisitDeclEPNS_4DeclE
libclangAST.so.8:_ZN5clang15ASTNodeImporter9VisitExprEPNS_4ExprE
libclangAST.so.8:_ZN5clang15ASTNodeImporter9VisitStmtEPNS_4StmtE
libclangAST.so.8:_ZN5clang15ASTNodeImporter9VisitTypeEPKNS_4TypeE
libclangAST.so.8:_ZN5clang15ASTRecordLayout7DestroyERNS_10ASTContextE
libclangAST.so.8:_ZN5clang15ASTRecordLayoutC1ERKNS_10ASTContextENS_9CharUnitsES4_S4_S4_S4_N4llvm8ArrayRefImEE
libclangAST.so.8:_ZN5clang15ASTRecordLayoutC1ERKNS_10ASTContextENS_9CharUnitsES4_S4_S4_bbS4_S4_N4llvm8ArrayRefImEES4_S4_S4_PKNS_13CXXRecordDeclEbSA_bbRKNS5_8DenseMapISA_S4_NS5_12DenseMapInfoISA_EENS5_6detail12DenseMapPairISA_S4_EEEERKNSB_ISA_NS0_9VBaseInfoESD_NSF_ISA_SK_EEEE
libclangAST.so.8:_ZN5clang15ASTRecordLayoutC2ERKNS_10ASTContextENS_9CharUnitsES4_S4_S4_S4_N4llvm8ArrayRefImEE
libclangAST.so.8:_ZN5clang15ASTRecordLayoutC2ERKNS_10ASTContextENS_9CharUnitsES4_S4_S4_bbS4_S4_N4llvm8ArrayRefImEES4_S4_S4_PKNS_13CXXRecordDeclEbSA_bbRKNS5_8DenseMapISA_S4_NS5_12DenseMapInfoISA_EENS5_6detail12DenseMapPairISA_S4_EEEERKNSB_ISA_NS0_9VBaseInfoESD_NSF_ISA_SK_EEEE
libclangAST.so.8:_ZN5clang15CXXForRangeStmt12getRangeInitEv
libclangAST.so.8:_ZN5clang15CXXForRangeStmt15getLoopVariableEv
libclangAST.so.8:_ZN5clang15CXXForRangeStmtC1EPNS_4StmtEPNS_8DeclStmtES4_S4_PNS_4ExprES6_S4_S2_NS_14SourceLocationES7_S7_S7_
libclangAST.so.8:_ZN5clang15CXXForRangeStmtC2EPNS_4StmtEPNS_8DeclStmtES4_S4_PNS_4ExprES6_S4_S2_NS_14SourceLocationES7_S7_S7_
libclangAST.so.8:_ZN5clang15DeclarationName18setFETokenInfoSlowEPv
libclangAST.so.8:_ZN5clang15DeclarationName5printERN4llvm11raw_ostreamERKNS_14PrintingPolicyE
libclangAST.so.8:_ZN5clang15DeclarationName7compareES0_S0_
libclangAST.so.8:_ZN5clang15FloatingLiteral12setSemanticsERKN4llvm12fltSemanticsE
libclangAST.so.8:_ZN5clang15FloatingLiteral6CreateERKNS_10ASTContextENS_4Stmt10EmptyShellE
libclangAST.so.8:_ZN5clang15FloatingLiteral6CreateERKNS_10ASTContextERKN4llvm7APFloatEbNS_8QualTypeENS_14SourceLocationE
libclangAST.so.8:_ZN5clang15FloatingLiteralC1ERKNS_10ASTContextENS_4Stmt10EmptyShellE
libclangAST.so.8:_ZN5clang15FloatingLiteralC1ERKNS_10ASTContextERKN4llvm7APFloatEbNS_8QualTypeENS_14SourceLocationE
libclangAST.so.8:_ZN5clang15FloatingLiteralC2ERKNS_10ASTContextENS_4Stmt10EmptyShellE
libclangAST.so.8:_ZN5clang15FloatingLiteralC2ERKNS_10ASTContextERKN4llvm7APFloatEbNS_8QualTypeENS_14SourceLocationE
libclangAST.so.8:_ZN5clang15LinkageComputer12getLVForDeclEPKNS_9NamedDeclENS_17LVComputationKindE
libclangAST.so.8:_ZN5clang15LinkageComputer12getLVForTypeERKNS_4TypeENS_17LVComputationKindE
libclangAST.so.8:_ZN5clang15LinkageComputer15getLVForClosureEPKNS_11DeclContextEPNS_4DeclENS_17LVComputationKindE
libclangAST.so.8:_ZN5clang15LinkageComputer15mergeTemplateLVERNS_11LinkageInfoEPKNS_12FunctionDeclEPKNS_34FunctionTemplateSpecializationInfoENS_17LVComputationKindE
libclangAST.so.8:_ZN5clang15LinkageComputer15mergeTemplateLVERNS_11LinkageInfoEPKNS_29VarTemplateSpecializationDeclENS_17LVComputationKindE
libclangAST.so.8:_ZN5clang15LinkageComputer15mergeTemplateLVERNS_11LinkageInfoEPKNS_31ClassTemplateSpecializationDeclENS_17LVComputationKindE
libclangAST.so.8:_ZN5clang15LinkageComputer16computeLVForDeclEPKNS_9NamedDeclENS_17LVComputationKindEb
libclangAST.so.8:_ZN5clang15LinkageComputer17getLVForLocalDeclEPKNS_9NamedDeclENS_17LVComputationKindE
libclangAST.so.8:_ZN5clang15LinkageComputer19getLVForClassMemberEPKNS_9NamedDeclENS_17LVComputationKindEb
libclangAST.so.8:_ZN5clang15LinkageComputer22computeTypeLinkageInfoEPKNS_4TypeE
libclangAST.so.8:_ZN5clang15LinkageComputer26getLVForNamespaceScopeDeclEPKNS_9NamedDeclENS_17LVComputationKindEb
libclangAST.so.8:_ZN5clang15LinkageComputer27getDeclLinkageAndVisibilityEPKNS_9NamedDeclE
libclangAST.so.8:_ZN5clang15LinkageComputer27getTypeLinkageAndVisibilityEPKNS_4TypeE
libclangAST.so.8:_ZN5clang15LinkageComputer28getLVForTemplateArgumentListEN4llvm8ArrayRefINS_16TemplateArgumentEEENS_17LVComputationKindE
libclangAST.so.8:_ZN5clang15LinkageComputer28getLVForTemplateArgumentListERKNS_20TemplateArgumentListENS_17LVComputationKindE
libclangAST.so.8:_ZN5clang15LinkageComputer29getLVForTemplateParameterListEPKNS_21TemplateParameterListENS_17LVComputationKindE
libclangAST.so.8:_ZN5clang15LinkageSpecDecl18CreateDeserializedERNS_10ASTContextEj
libclangAST.so.8:_ZN5clang15LinkageSpecDecl6CreateERNS_10ASTContextEPNS_11DeclContextENS_14SourceLocationES5_NS0_11LanguageIDsEb
libclangAST.so.8:_ZN5clang15LinkageSpecDecl6anchorEv
libclangAST.so.8:_ZN5clang15LinkageSpecDeclC1EPNS_11DeclContextENS_14SourceLocationES3_NS0_11LanguageIDsEb
libclangAST.so.8:_ZN5clang15LinkageSpecDeclC2EPNS_11DeclContextENS_14SourceLocationES3_NS0_11LanguageIDsEb
libclangAST.so.8:_ZN5clang15OMPCopyinClause11CreateEmptyERKNS_10ASTContextEj
libclangAST.so.8:_ZN5clang15OMPCopyinClause14setSourceExprsEN4llvm8ArrayRefIPNS_4ExprEEE
libclangAST.so.8:_ZN5clang15OMPCopyinClause16setAssignmentOpsEN4llvm8ArrayRefIPNS_4ExprEEE
libclangAST.so.8:_ZN5clang15OMPCopyinClause19setDestinationExprsEN4llvm8ArrayRefIPNS_4ExprEEE
libclangAST.so.8:_ZN5clang15OMPCopyinClause6CreateERKNS_10ASTContextENS_14SourceLocationES4_S4_N4llvm8ArrayRefIPNS_4ExprEEES9_S9_S9_
libclangAST.so.8:_ZN5clang15OMPDependClause11CreateEmptyERKNS_10ASTContextEjj
libclangAST.so.8:_ZN5clang15OMPDependClause11getLoopDataEj
libclangAST.so.8:_ZN5clang15OMPDependClause11setLoopDataEjPNS_4ExprE
libclangAST.so.8:_ZN5clang15OMPDependClause6CreateERKNS_10ASTContextENS_14SourceLocationES4_S4_NS_22OpenMPDependClauseKindES4_S4_N4llvm8ArrayRefIPNS_4ExprEEEj
libclangAST.so.8:_ZN5clang15OMPForDirective11CreateEmptyERKNS_10ASTContextEjjNS_4Stmt10EmptyShellE
libclangAST.so.8:_ZN5clang15OMPForDirective6CreateERKNS_10ASTContextENS_14SourceLocationES4_jN4llvm8ArrayRefIPNS_9OMPClauseEEEPNS_4StmtERKNS_16OMPLoopDirective11HelperExprsEb
libclangAST.so.8:_ZN5clang15OMPLinearClause10setUpdatesEN4llvm8ArrayRefIPNS_4ExprEEE
libclangAST.so.8:_ZN5clang15OMPLinearClause11CreateEmptyERKNS_10ASTContextEj
libclangAST.so.8:_ZN5clang15OMPLinearClause11setPrivatesEN4llvm8ArrayRefIPNS_4ExprEEE
libclangAST.so.8:_ZN5clang15OMPLinearClause6CreateERKNS_10ASTContextENS_14SourceLocationES4_NS_22OpenMPLinearClauseKindES4_S4_S4_N4llvm8ArrayRefIPNS_4ExprEEESA_SA_S9_S9_PNS_4StmtES9_
libclangAST.so.8:_ZN5clang15OMPLinearClause8setInitsEN4llvm8ArrayRefIPNS_4ExprEEE
libclangAST.so.8:_ZN5clang15OMPLinearClause9setFinalsEN4llvm8ArrayRefIPNS_4ExprEEE
libclangAST.so.8:_ZN5clang15OMPRequiresDecl10setClausesEN4llvm8ArrayRefIPNS_9OMPClauseEEE
libclangAST.so.8:_ZN5clang15OMPRequiresDecl18CreateDeserializedERNS_10ASTContextEjj
libclangAST.so.8:_ZN5clang15OMPRequiresDecl6CreateERNS_10ASTContextEPNS_11DeclContextENS_14SourceLocationEN4llvm8ArrayRefIPNS_9OMPClauseEEE
libclangAST.so.8:_ZN5clang15OMPRequiresDecl6anchorEv
libclangAST.so.8:_ZN5clang15OMPSharedClause11CreateEmptyERKNS_10ASTContextEj
libclangAST.so.8:_ZN5clang15OMPSharedClause6CreateERKNS_10ASTContextENS_14SourceLocationES4_S4_N4llvm8ArrayRefIPNS_4ExprEEE
libclangAST.so.8:_ZN5clang15ObjCMessageExpr11CreateEmptyERKNS_10ASTContextEjj
libclangAST.so.8:_ZN5clang15ObjCMessageExpr18initArgsAndSelLocsEN4llvm8ArrayRefIPNS_4ExprEEENS2_INS_14SourceLocationEEENS_21SelectorLocationsKindE
libclangAST.so.8:_ZN5clang15ObjCMessageExpr5allocERKNS_10ASTContextEN4llvm8ArrayRefIPNS_4ExprEEENS_14SourceLocationENS5_IS9_EENS_8SelectorERNS_21SelectorLocationsKindE
libclangAST.so.8:_ZN5clang15ObjCMessageExpr5allocERKNS_10ASTContextEjj
libclangAST.so.8:_ZN5clang15ObjCMessageExpr6CreateERKNS_10ASTContextENS_8QualTypeENS_13ExprValueKindENS_14SourceLocationEPNS_14TypeSourceInfoENS_8SelectorEN4llvm8ArrayRefIS6_EEPNS_14ObjCMethodDeclENSB_IPNS_4ExprEEES6_b
libclangAST.so.8:_ZN5clang15ObjCMessageExpr6CreateERKNS_10ASTContextENS_8QualTypeENS_13ExprValueKindENS_14SourceLocationEPNS_4ExprENS_8SelectorEN4llvm8ArrayRefIS6_EEPNS_14ObjCMethodDeclENSB_IS8_EES6_b
libclangAST.so.8:_ZN5clang15ObjCMessageExpr6CreateERKNS_10ASTContextENS_8QualTypeENS_13ExprValueKindENS_14SourceLocationES6_bS4_NS_8SelectorEN4llvm8ArrayRefIS6_EEPNS_14ObjCMethodDeclENS9_IPNS_4ExprEEES6_b
libclangAST.so.8:_ZN5clang15ObjCMessageExpr8childrenEv
libclangAST.so.8:_ZN5clang15ObjCMessageExprC1ENS_8QualTypeENS_13ExprValueKindENS_14SourceLocationEPNS_14TypeSourceInfoENS_8SelectorEN4llvm8ArrayRefIS3_EENS_21SelectorLocationsKindEPNS_14ObjCMethodDeclENS8_IPNS_4ExprEEES3_b
libclangAST.so.8:_ZN5clang15ObjCMessageExprC1ENS_8QualTypeENS_13ExprValueKindENS_14SourceLocationEPNS_4ExprENS_8SelectorEN4llvm8ArrayRefIS3_EENS_21SelectorLocationsKindEPNS_14ObjCMethodDeclENS8_IS5_EES3_b
libclangAST.so.8:_ZN5clang15ObjCMessageExprC1ENS_8QualTypeENS_13ExprValueKindENS_14SourceLocationES3_bS1_NS_8SelectorEN4llvm8ArrayRefIS3_EENS_21SelectorLocationsKindEPNS_14ObjCMethodDeclENS6_IPNS_4ExprEEES3_b
libclangAST.so.8:_ZN5clang15ObjCMessageExprC2ENS_8QualTypeENS_13ExprValueKindENS_14SourceLocationEPNS_14TypeSourceInfoENS_8SelectorEN4llvm8ArrayRefIS3_EENS_21SelectorLocationsKindEPNS_14ObjCMethodDeclENS8_IPNS_4ExprEEES3_b
libclangAST.so.8:_ZN5clang15ObjCMessageExprC2ENS_8QualTypeENS_13ExprValueKindENS_14SourceLocationEPNS_4ExprENS_8SelectorEN4llvm8ArrayRefIS3_EENS_21SelectorLocationsKindEPNS_14ObjCMethodDeclENS8_IS5_EES3_b
libclangAST.so.8:_ZN5clang15ObjCMessageExprC2ENS_8QualTypeENS_13ExprValueKindENS_14SourceLocationES3_bS1_NS_8SelectorEN4llvm8ArrayRefIS3_EENS_21SelectorLocationsKindEPNS_14ObjCMethodDeclENS6_IPNS_4ExprEEES3_b
libclangAST.so.8:_ZN5clang15OpaqueValueExpr19findInCopyConstructEPKNS_4ExprE
libclangAST.so.8:_ZN5clang15TypeSpecTypeLoc6isKindERKNS_7TypeLocE
libclangAST.so.8:_ZN5clang15TypeWithKeyword14getKeywordNameENS_21ElaboratedTypeKeywordE
libclangAST.so.8:_ZN5clang15TypeWithKeyword20KeywordIsTagTypeKindENS_21ElaboratedTypeKeywordE
libclangAST.so.8:_ZN5clang15TypeWithKeyword21getKeywordForTypeSpecEj
libclangAST.so.8:_ZN5clang15TypeWithKeyword24getKeywordForTagTypeKindENS_11TagTypeKindE
libclangAST.so.8:_ZN5clang15TypeWithKeyword24getTagTypeKindForKeywordENS_21ElaboratedTypeKeywordE
libclangAST.so.8:_ZN5clang15TypeWithKeyword25getTagTypeKindForTypeSpecEj
libclangAST.so.8:_ZN5clang15TypedefNameDecl6anchorEv
libclangAST.so.8:_ZN5clang15UsingShadowDecl18CreateDeserializedERNS_10ASTContextEj
libclangAST.so.8:_ZN5clang15UsingShadowDecl6anchorEv
libclangAST.so.8:_ZN5clang15UsingShadowDeclC1ENS_4Decl4KindERNS_10ASTContextENS1_10EmptyShellE
libclangAST.so.8:_ZN5clang15UsingShadowDeclC1ENS_4Decl4KindERNS_10ASTContextEPNS_11DeclContextENS_14SourceLocationEPNS_9UsingDeclEPNS_9NamedDeclE
libclangAST.so.8:_ZN5clang15UsingShadowDeclC2ENS_4Decl4KindERNS_10ASTContextENS1_10EmptyShellE
libclangAST.so.8:_ZN5clang15UsingShadowDeclC2ENS_4Decl4KindERNS_10ASTContextEPNS_11DeclContextENS_14SourceLocationEPNS_9UsingDeclEPNS_9NamedDeclE
libclangAST.so.8:_ZN5clang15VarTemplateDecl13getDefinitionEv
libclangAST.so.8:_ZN5clang15VarTemplateDecl17AddSpecializationEPNS_29VarTemplateSpecializationDeclEPv
libclangAST.so.8:_ZN5clang15VarTemplateDecl18CreateDeserializedERNS_10ASTContextEj
libclangAST.so.8:_ZN5clang15VarTemplateDecl18findSpecializationEN4llvm8ArrayRefINS_16TemplateArgumentEEERPv
libclangAST.so.8:_ZN5clang15VarTemplateDecl24AddPartialSpecializationEPNS_36VarTemplatePartialSpecializationDeclEPv
libclangAST.so.8:_ZN5clang15VarTemplateDecl25findPartialSpecializationEN4llvm8ArrayRefINS_16TemplateArgumentEEERPv
libclangAST.so.8:_ZN5clang15VarTemplateDecl25getPartialSpecializationsERN4llvm15SmallVectorImplIPNS_36VarTemplatePartialSpecializationDeclEEE
libclangAST.so.8:_ZN5clang15VarTemplateDecl25getPartialSpecializationsEv
libclangAST.so.8:_ZN5clang15VarTemplateDecl37findPartialSpecInstantiatedFromMemberEPNS_36VarTemplatePartialSpecializationDeclE
libclangAST.so.8:_ZN5clang15VarTemplateDecl6CreateERNS_10ASTContextEPNS_11DeclContextENS_14SourceLocationENS_15DeclarationNameEPNS_21TemplateParameterListEPNS_7VarDeclE
libclangAST.so.8:_ZN5clang15ast_type_traits11ASTNodeKind11getFromNodeERKNS_4DeclE
libclangAST.so.8:_ZN5clang15ast_type_traits11ASTNodeKind11getFromNodeERKNS_4StmtE
libclangAST.so.8:_ZN5clang15ast_type_traits11ASTNodeKind11getFromNodeERKNS_4TypeE
libclangAST.so.8:_ZN5clang15ast_type_traits11ASTNodeKind18getMostDerivedTypeES1_S1_
libclangAST.so.8:_ZN5clang15ast_type_traits11ASTNodeKind28getMostDerivedCommonAncestorES1_S1_
libclangAST.so.8:_ZN5clang15ast_type_traits11ASTNodeKind8isBaseOfENS1_10NodeKindIdES2_Pj
libclangAST.so.8:_ZN5clang15data_collection13getMacroStackB5cxx11ENS_14SourceLocationERNS_10ASTContextE
libclangAST.so.8:_ZN5clang16APNumericStorage11setIntValueERKNS_10ASTContextERKN4llvm5APIntE
libclangAST.so.8:_ZN5clang16CXXConstCastExpr11CreateEmptyERKNS_10ASTContextE
libclangAST.so.8:_ZN5clang16CXXConstCastExpr6CreateERKNS_10ASTContextENS_8QualTypeENS_13ExprValueKindEPNS_4ExprEPNS_14TypeSourceInfoENS_14SourceLocationESA_NS_11SourceRangeE
libclangAST.so.8:_ZN5clang16CXXConstructExpr11CreateEmptyERKNS_10ASTContextEj
libclangAST.so.8:_ZN5clang16CXXConstructExpr6CreateERKNS_10ASTContextENS_8QualTypeENS_14SourceLocationEPNS_18CXXConstructorDeclEbN4llvm8ArrayRefIPNS_4ExprEEEbbbbNS0_16ConstructionKindENS_11SourceRangeE
libclangAST.so.8:_ZN5clang16CXXConstructExprC1ENS_4Stmt9StmtClassENS1_10EmptyShellEj
libclangAST.so.8:_ZN5clang16CXXConstructExprC1ENS_4Stmt9StmtClassENS_8QualTypeENS_14SourceLocationEPNS_18CXXConstructorDeclEbN4llvm8ArrayRefIPNS_4ExprEEEbbbbNS0_16ConstructionKindENS_11SourceRangeE
libclangAST.so.8:_ZN5clang16CXXConstructExprC2ENS_4Stmt9StmtClassENS1_10EmptyShellEj
libclangAST.so.8:_ZN5clang16CXXConstructExprC2ENS_4Stmt9StmtClassENS_8QualTypeENS_14SourceLocationEPNS_18CXXConstructorDeclEbN4llvm8ArrayRefIPNS_4ExprEEEbbbbNS0_16ConstructionKindENS_11SourceRangeE
libclangAST.so.8:_ZN5clang16EnumConstantDecl18CreateDeserializedERNS_10ASTContextEj
libclangAST.so.8:_ZN5clang16EnumConstantDecl6CreateERNS_10ASTContextEPNS_8EnumDeclENS_14SourceLocationEPNS_14IdentifierInfoENS_8QualTypeEPNS_4ExprERKN4llvm6APSIntE
libclangAST.so.8:_ZN5clang16ExprWithCleanups6CreateERKNS_10ASTContextENS_4Stmt10EmptyShellEj
libclangAST.so.8:_ZN5clang16ExprWithCleanups6CreateERKNS_10ASTContextEPNS_4ExprEbN4llvm8ArrayRefIPNS_9BlockDeclEEE
libclangAST.so.8:_ZN5clang16ExprWithCleanupsC1ENS_4Stmt10EmptyShellEj
libclangAST.so.8:_ZN5clang16ExprWithCleanupsC1EPNS_4ExprEbN4llvm8ArrayRefIPNS_9BlockDeclEEE
libclangAST.so.8:_ZN5clang16ExprWithCleanupsC2ENS_4Stmt10EmptyShellEj
libclangAST.so.8:_ZN5clang16ExprWithCleanupsC2EPNS_4ExprEbN4llvm8ArrayRefIPNS_9BlockDeclEEE
libclangAST.so.8:_ZN5clang16FileScopeAsmDecl18CreateDeserializedERNS_10ASTContextEj
libclangAST.so.8:_ZN5clang16FileScopeAsmDecl6CreateERNS_10ASTContextEPNS_11DeclContextEPNS_13StringLiteralENS_14SourceLocationES7_
libclangAST.so.8:_ZN5clang16FileScopeAsmDecl6anchorEv
libclangAST.so.8:_ZN5clang16ImplicitCastExpr11CreateEmptyERKNS_10ASTContextEj
libclangAST.so.8:_ZN5clang16ImplicitCastExpr6CreateERKNS_10ASTContextENS_8QualTypeENS_8CastKindEPNS_4ExprEPKN4llvm11SmallVectorIPNS_16CXXBaseSpecifierELj4EEENS_13ExprValueKindE
libclangAST.so.8:_ZN5clang16IndirectGotoStmt17getConstantTargetEv
libclangAST.so.8:_ZN5clang16OMPAlignedClause11CreateEmptyERKNS_10ASTContextEj
libclangAST.so.8:_ZN5clang16OMPAlignedClause6CreateERKNS_10ASTContextENS_14SourceLocationES4_S4_S4_N4llvm8ArrayRefIPNS_4ExprEEES8_
libclangAST.so.8:_ZN5clang16OMPClausePrinter16VisitOMPIfClauseEPNS_11OMPIfClauseE
libclangAST.so.8:_ZN5clang16OMPClausePrinter16VisitOMPToClauseEPNS_11OMPToClauseE
libclangAST.so.8:_ZN5clang16OMPClausePrinter17VisitOMPMapClauseEPNS_12OMPMapClauseE
libclangAST.so.8:_ZN5clang16OMPClausePrinter18VisitOMPFromClauseEPNS_13OMPFromClauseE
libclangAST.so.8:_ZN5clang16OMPClausePrinter18VisitOMPHintClauseEPNS_13OMPHintClauseE
libclangAST.so.8:_ZN5clang16OMPClausePrinter18VisitOMPReadClauseEPNS_13OMPReadClauseE
libclangAST.so.8:_ZN5clang16OMPClausePrinter18VisitOMPSIMDClauseEPNS_13OMPSIMDClauseE
libclangAST.so.8:_ZN5clang16OMPClausePrinter19VisitOMPFinalClauseEPNS_14OMPFinalClauseE
libclangAST.so.8:_ZN5clang16OMPClausePrinter19VisitOMPFlushClauseEPNS_14OMPFlushClauseE
libclangAST.so.8:_ZN5clang16OMPClausePrinter19VisitOMPWriteClauseEPNS_14OMPWriteClauseE
libclangAST.so.8:_ZN5clang16OMPClausePrinter20VisitOMPCopyinClauseEPNS_15OMPCopyinClauseE
libclangAST.so.8:_ZN5clang16OMPClausePrinter20VisitOMPDependClauseEPNS_15OMPDependClauseE
libclangAST.so.8:_ZN5clang16OMPClausePrinter20VisitOMPDeviceClauseEPNS_15OMPDeviceClauseE
libclangAST.so.8:_ZN5clang16OMPClausePrinter20VisitOMPLinearClauseEPNS_15OMPLinearClauseE
libclangAST.so.8:_ZN5clang16OMPClausePrinter20VisitOMPNowaitClauseEPNS_15OMPNowaitClauseE
libclangAST.so.8:_ZN5clang16OMPClausePrinter20VisitOMPSeqCstClauseEPNS_15OMPSeqCstClauseE
libclangAST.so.8:_ZN5clang16OMPClausePrinter20VisitOMPSharedClauseEPNS_15OMPSharedClauseE
libclangAST.so.8:_ZN5clang16OMPClausePrinter20VisitOMPUntiedClauseEPNS_15OMPUntiedClauseE
libclangAST.so.8:_ZN5clang16OMPClausePrinter20VisitOMPUpdateClauseEPNS_15OMPUpdateClauseE
libclangAST.so.8:_ZN5clang16OMPClausePrinter21VisitOMPAlignedClauseEPNS_16OMPAlignedClauseE
libclangAST.so.8:_ZN5clang16OMPClausePrinter21VisitOMPCaptureClauseEPNS_16OMPCaptureClauseE
libclangAST.so.8:_ZN5clang16OMPClausePrinter21VisitOMPDefaultClauseEPNS_16OMPDefaultClauseE
libclangAST.so.8:_ZN5clang16OMPClausePrinter21VisitOMPNogroupClauseEPNS_16OMPNogroupClauseE
libclangAST.so.8:_ZN5clang16OMPClausePrinter21VisitOMPOrderedClauseEPNS_16OMPOrderedClauseE
libclangAST.so.8:_ZN5clang16OMPClausePrinter21VisitOMPPrivateClauseEPNS_16OMPPrivateClauseE
libclangAST.so.8:_ZN5clang16OMPClausePrinter21VisitOMPSafelenClauseEPNS_16OMPSafelenClauseE
libclangAST.so.8:_ZN5clang16OMPClausePrinter21VisitOMPSimdlenClauseEPNS_16OMPSimdlenClauseE
libclangAST.so.8:_ZN5clang16OMPClausePrinter21VisitOMPThreadsClauseEPNS_16OMPThreadsClauseE
libclangAST.so.8:_ZN5clang16OMPClausePrinter22VisitOMPCollapseClauseEPNS_17OMPCollapseClauseE
libclangAST.so.8:_ZN5clang16OMPClausePrinter22VisitOMPNumTasksClauseEPNS_17OMPNumTasksClauseE
libclangAST.so.8:_ZN5clang16OMPClausePrinter22VisitOMPNumTeamsClauseEPNS_17OMPNumTeamsClauseE
libclangAST.so.8:_ZN5clang16OMPClausePrinter22VisitOMPPriorityClauseEPNS_17OMPPriorityClauseE
libclangAST.so.8:_ZN5clang16OMPClausePrinter22VisitOMPProcBindClauseEPNS_17OMPProcBindClauseE
libclangAST.so.8:_ZN5clang16OMPClausePrinter22VisitOMPScheduleClauseEPNS_17OMPScheduleClauseE
libclangAST.so.8:_ZN5clang16OMPClausePrinter23VisitOMPGrainsizeClauseEPNS_18OMPGrainsizeClauseE
libclangAST.so.8:_ZN5clang16OMPClausePrinter23VisitOMPMergeableClauseEPNS_18OMPMergeableClauseE
libclangAST.so.8:_ZN5clang16OMPClausePrinter23VisitOMPReductionClauseEPNS_18OMPReductionClauseE
libclangAST.so.8:_ZN5clang16OMPClausePrinter24VisitOMPDefaultmapClauseEPNS_19OMPDefaultmapClauseE
libclangAST.so.8:_ZN5clang16OMPClausePrinter24VisitOMPNumThreadsClauseEPNS_19OMPNumThreadsClauseE
libclangAST.so.8:_ZN5clang16OMPClausePrinter25VisitOMPCopyprivateClauseEPNS_20OMPCopyprivateClauseE
libclangAST.so.8:_ZN5clang16OMPClausePrinter25VisitOMPInReductionClauseEPNS_20OMPInReductionClauseE
libclangAST.so.8:_ZN5clang16OMPClausePrinter25VisitOMPIsDevicePtrClauseEPNS_20OMPIsDevicePtrClauseE
libclangAST.so.8:_ZN5clang16OMPClausePrinter25VisitOMPLastprivateClauseEPNS_20OMPLastprivateClauseE
libclangAST.so.8:_ZN5clang16OMPClausePrinter25VisitOMPThreadLimitClauseEPNS_20OMPThreadLimitClauseE
libclangAST.so.8:_ZN5clang16OMPClausePrinter26VisitOMPDistScheduleClauseEPNS_21OMPDistScheduleClauseE
libclangAST.so.8:_ZN5clang16OMPClausePrinter26VisitOMPFirstprivateClauseEPNS_21OMPFirstprivateClauseE
libclangAST.so.8:_ZN5clang16OMPClausePrinter26VisitOMPUseDevicePtrClauseEPNS_21OMPUseDevicePtrClauseE
libclangAST.so.8:_ZN5clang16OMPClausePrinter27VisitOMPTaskReductionClauseEPNS_22OMPTaskReductionClauseE
libclangAST.so.8:_ZN5clang16OMPClausePrinter28VisitOMPReverseOffloadClauseEPNS_23OMPReverseOffloadClauseE
libclangAST.so.8:_ZN5clang16OMPClausePrinter28VisitOMPUnifiedAddressClauseEPNS_23OMPUnifiedAddressClauseE
libclangAST.so.8:_ZN5clang16OMPClausePrinter31VisitOMPDynamicAllocatorsClauseEPNS_26OMPDynamicAllocatorsClauseE
libclangAST.so.8:_ZN5clang16OMPClausePrinter33VisitOMPUnifiedSharedMemoryClauseEPNS_28OMPUnifiedSharedMemoryClauseE
libclangAST.so.8:_ZN5clang16OMPClausePrinter35VisitOMPAtomicDefaultMemOrderClauseEPNS_30OMPAtomicDefaultMemOrderClauseE
libclangAST.so.8:_ZN5clang16OMPLoopDirective10setUpdatesEN4llvm8ArrayRefIPNS_4ExprEEE
libclangAST.so.8:_ZN5clang16OMPLoopDirective11setCountersEN4llvm8ArrayRefIPNS_4ExprEEE
libclangAST.so.8:_ZN5clang16OMPLoopDirective18setPrivateCountersEN4llvm8ArrayRefIPNS_4ExprEEE
libclangAST.so.8:_ZN5clang16OMPLoopDirective8setInitsEN4llvm8ArrayRefIPNS_4ExprEEE
libclangAST.so.8:_ZN5clang16OMPLoopDirective9setFinalsEN4llvm8ArrayRefIPNS_4ExprEEE
libclangAST.so.8:_ZN5clang16OMPOrderedClause11CreateEmptyERKNS_10ASTContextEj
libclangAST.so.8:_ZN5clang16OMPOrderedClause14getLoopCounterEj
libclangAST.so.8:_ZN5clang16OMPOrderedClause14setLoopCounterEjPNS_4ExprE
libclangAST.so.8:_ZN5clang16OMPOrderedClause20setLoopNumIterationsEjPNS_4ExprE
libclangAST.so.8:_ZN5clang16OMPOrderedClause6CreateERKNS_10ASTContextEPNS_4ExprEjNS_14SourceLocationES6_S6_
libclangAST.so.8:_ZN5clang16OMPPrivateClause11CreateEmptyERKNS_10ASTContextEj
libclangAST.so.8:_ZN5clang16OMPPrivateClause16setPrivateCopiesEN4llvm8ArrayRefIPNS_4ExprEEE
libclangAST.so.8:_ZN5clang16OMPPrivateClause6CreateERKNS_10ASTContextENS_14SourceLocationES4_S4_N4llvm8ArrayRefIPNS_4ExprEEES9_
libclangAST.so.8:_ZN5clang16OMPSimdDirective11CreateEmptyERKNS_10ASTContextEjjNS_4Stmt10EmptyShellE
libclangAST.so.8:_ZN5clang16OMPSimdDirective6CreateERKNS_10ASTContextENS_14SourceLocationES4_jN4llvm8ArrayRefIPNS_9OMPClauseEEEPNS_4StmtERKNS_16OMPLoopDirective11HelperExprsE
libclangAST.so.8:_ZN5clang16OMPTaskDirective11CreateEmptyERKNS_10ASTContextEjNS_4Stmt10EmptyShellE
libclangAST.so.8:_ZN5clang16OMPTaskDirective6CreateERKNS_10ASTContextENS_14SourceLocationES4_N4llvm8ArrayRefIPNS_9OMPClauseEEEPNS_4StmtEb
libclangAST.so.8:_ZN5clang16ObjCArrayLiteral11CreateEmptyERKNS_10ASTContextEj
libclangAST.so.8:_ZN5clang16ObjCArrayLiteral6CreateERKNS_10ASTContextEN4llvm8ArrayRefIPNS_4ExprEEENS_8QualTypeEPNS_14ObjCMethodDeclENS_11SourceRangeE
libclangAST.so.8:_ZN5clang16ObjCArrayLiteralC1EN4llvm8ArrayRefIPNS_4ExprEEENS_8QualTypeEPNS_14ObjCMethodDeclENS_11SourceRangeE
libclangAST.so.8:_ZN5clang16ObjCArrayLiteralC2EN4llvm8ArrayRefIPNS_4ExprEEENS_8QualTypeEPNS_14ObjCMethodDeclENS_11SourceRangeE
libclangAST.so.8:_ZN5clang16ObjCCategoryDecl16setTypeParamListEPNS_17ObjCTypeParamListE
libclangAST.so.8:_ZN5clang16ObjCCategoryDecl17setImplementationEPNS_20ObjCCategoryImplDeclE
libclangAST.so.8:_ZN5clang16ObjCCategoryDecl18CreateDeserializedERNS_10ASTContextEj
libclangAST.so.8:_ZN5clang16ObjCCategoryDecl6CreateERNS_10ASTContextEPNS_11DeclContextENS_14SourceLocationES5_S5_PNS_14IdentifierInfoEPNS_17ObjCInterfaceDeclEPNS_17ObjCTypeParamListES5_S5_
libclangAST.so.8:_ZN5clang16ObjCCategoryDecl6anchorEv
libclangAST.so.8:_ZN5clang16ObjCCategoryDeclC1EPNS_11DeclContextENS_14SourceLocationES3_S3_PNS_14IdentifierInfoEPNS_17ObjCInterfaceDeclEPNS_17ObjCTypeParamListES3_S3_
libclangAST.so.8:_ZN5clang16ObjCCategoryDeclC2EPNS_11DeclContextENS_14SourceLocationES3_S3_PNS_14IdentifierInfoEPNS_17ObjCInterfaceDeclEPNS_17ObjCTypeParamListES3_S3_
libclangAST.so.8:_ZN5clang16ObjCPropertyDecl16findPropertyDeclEPKNS_11DeclContextEPKNS_14IdentifierInfoENS_21ObjCPropertyQueryKindE
libclangAST.so.8:_ZN5clang16ObjCPropertyDecl18CreateDeserializedERNS_10ASTContextEj
libclangAST.so.8:_ZN5clang16ObjCPropertyDecl6CreateERNS_10ASTContextEPNS_11DeclContextENS_14SourceLocationEPNS_14IdentifierInfoES5_S5_NS_8QualTypeEPNS_14TypeSourceInfoENS0_15PropertyControlE
libclangAST.so.8:_ZN5clang16ObjCPropertyDecl6anchorEv
libclangAST.so.8:_ZN5clang16ObjCProtocolDecl15startDefinitionEv
libclangAST.so.8:_ZN5clang16ObjCProtocolDecl18CreateDeserializedERNS_10ASTContextEj
libclangAST.so.8:_ZN5clang16ObjCProtocolDecl19lookupProtocolNamedEPNS_14IdentifierInfoE
libclangAST.so.8:_ZN5clang16ObjCProtocolDecl22allocateDefinitionDataEv
libclangAST.so.8:_ZN5clang16ObjCProtocolDecl6CreateERNS_10ASTContextEPNS_11DeclContextEPNS_14IdentifierInfoENS_14SourceLocationES7_PS0_
libclangAST.so.8:_ZN5clang16ObjCProtocolDecl6anchorEv
libclangAST.so.8:_ZN5clang16ObjCProtocolDeclC1ERNS_10ASTContextEPNS_11DeclContextEPNS_14IdentifierInfoENS_14SourceLocationES7_PS0_
libclangAST.so.8:_ZN5clang16ObjCProtocolDeclC2ERNS_10ASTContextEPNS_11DeclContextEPNS_14IdentifierInfoENS_14SourceLocationES7_PS0_
libclangAST.so.8:_ZN5clang16ObjCProtocolList3setEPKPNS_16ObjCProtocolDeclEjPKNS_14SourceLocationERNS_10ASTContextE
libclangAST.so.8:_ZN5clang16PseudoObjectExpr6CreateERKNS_10ASTContextENS_4Stmt10EmptyShellEj
libclangAST.so.8:_ZN5clang16PseudoObjectExpr6CreateERKNS_10ASTContextEPNS_4ExprEN4llvm8ArrayRefIS5_EEj
libclangAST.so.8:_ZN5clang16PseudoObjectExprC1ENS_4Stmt10EmptyShellEj
libclangAST.so.8:_ZN5clang16PseudoObjectExprC1ENS_8QualTypeENS_13ExprValueKindEPNS_4ExprEN4llvm8ArrayRefIS4_EEj
libclangAST.so.8:_ZN5clang16PseudoObjectExprC2ENS_4Stmt10EmptyShellEj
libclangAST.so.8:_ZN5clang16PseudoObjectExprC2ENS_8QualTypeENS_13ExprValueKindEPNS_4ExprEN4llvm8ArrayRefIS4_EEj
libclangAST.so.8:_ZN5clang16StaticAssertDecl18CreateDeserializedERNS_10ASTContextEj
libclangAST.so.8:_ZN5clang16StaticAssertDecl6CreateERNS_10ASTContextEPNS_11DeclContextENS_14SourceLocationEPNS_4ExprEPNS_13StringLiteralES5_b
libclangAST.so.8:_ZN5clang16StaticAssertDecl6anchorEv
libclangAST.so.8:_ZN5clang16StmtIteratorBase10HandleDeclEPNS_4DeclE
libclangAST.so.8:_ZN5clang16StmtIteratorBase6NextVAEv
libclangAST.so.8:_ZN5clang16StmtIteratorBase8NextDeclEb
libclangAST.so.8:_ZN5clang16StmtIteratorBaseC1EPKNS_17VariableArrayTypeE
libclangAST.so.8:_ZN5clang16StmtIteratorBaseC1EPPNS_4DeclES3_
libclangAST.so.8:_ZN5clang16StmtIteratorBaseC2EPKNS_17VariableArrayTypeE
libclangAST.so.8:_ZN5clang16StmtIteratorBaseC2EPPNS_4DeclES3_
libclangAST.so.8:_ZN5clang16TemplateArgument14CreatePackCopyERNS_10ASTContextEN4llvm8ArrayRefIS0_EE
libclangAST.so.8:_ZN5clang16TemplateArgumentC1ERNS_10ASTContextERKN4llvm6APSIntENS_8QualTypeE
libclangAST.so.8:_ZN5clang16TemplateArgumentC2ERNS_10ASTContextERKN4llvm6APSIntENS_8QualTypeE
libclangAST.so.8:_ZN5clang17CXXConversionDecl18CreateDeserializedERNS_10ASTContextEj
libclangAST.so.8:_ZN5clang17CXXConversionDecl6CreateERNS_10ASTContextEPNS_13CXXRecordDeclENS_14SourceLocationERKNS_19DeclarationNameInfoENS_8QualTypeEPNS_14TypeSourceInfoEbbbS5_
libclangAST.so.8:_ZN5clang17CXXConversionDecl6anchorEv
libclangAST.so.8:_ZN5clang17CXXDestructorDecl17setOperatorDeleteEPNS_12FunctionDeclEPNS_4ExprE
libclangAST.so.8:_ZN5clang17CXXDestructorDecl18CreateDeserializedERNS_10ASTContextEj
libclangAST.so.8:_ZN5clang17CXXDestructorDecl6CreateERNS_10ASTContextEPNS_13CXXRecordDeclENS_14SourceLocationERKNS_19DeclarationNameInfoENS_8QualTypeEPNS_14TypeSourceInfoEbb
libclangAST.so.8:_ZN5clang17CXXDestructorDecl6anchorEv
libclangAST.so.8:_ZN5clang17CXXMemberCallExpr11CreateEmptyERKNS_10ASTContextEjNS_4Stmt10EmptyShellE
libclangAST.so.8:_ZN5clang17CXXMemberCallExpr6CreateERKNS_10ASTContextEPNS_4ExprEN4llvm8ArrayRefIS5_EENS_8QualTypeENS_13ExprValueKindENS_14SourceLocationEj
libclangAST.so.8:_ZN5clang17CXXMemberCallExprC1EPNS_4ExprEN4llvm8ArrayRefIS2_EENS_8QualTypeENS_13ExprValueKindENS_14SourceLocationEj
libclangAST.so.8:_ZN5clang17CXXMemberCallExprC1EjNS_4Stmt10EmptyShellE
libclangAST.so.8:_ZN5clang17CXXMemberCallExprC2EPNS_4ExprEN4llvm8ArrayRefIS2_EENS_8QualTypeENS_13ExprValueKindENS_14SourceLocationEj
libclangAST.so.8:_ZN5clang17CXXMemberCallExprC2EjNS_4Stmt10EmptyShellE
libclangAST.so.8:_ZN5clang17CXXStaticCastExpr11CreateEmptyERKNS_10ASTContextEj
libclangAST.so.8:_ZN5clang17CXXStaticCastExpr6CreateERKNS_10ASTContextENS_8QualTypeENS_13ExprValueKindENS_8CastKindEPNS_4ExprEPKN4llvm11SmallVectorIPNS_16CXXBaseSpecifierELj4EEEPNS_14TypeSourceInfoENS_14SourceLocationESI_NS_11SourceRangeE
libclangAST.so.8:_ZN5clang17ClassTemplateDecl17AddSpecializationEPNS_31ClassTemplateSpecializationDeclEPv
libclangAST.so.8:_ZN5clang17ClassTemplateDecl18CreateDeserializedERNS_10ASTContextEj
libclangAST.so.8:_ZN5clang17ClassTemplateDecl18findSpecializationEN4llvm8ArrayRefINS_16TemplateArgumentEEERPv
libclangAST.so.8:_ZN5clang17ClassTemplateDecl24AddPartialSpecializationEPNS_38ClassTemplatePartialSpecializationDeclEPv
libclangAST.so.8:_ZN5clang17ClassTemplateDecl25findPartialSpecializationEN4llvm8ArrayRefINS_16TemplateArgumentEEERPv
libclangAST.so.8:_ZN5clang17ClassTemplateDecl25findPartialSpecializationENS_8QualTypeE
libclangAST.so.8:_ZN5clang17ClassTemplateDecl25getPartialSpecializationsERN4llvm15SmallVectorImplIPNS_38ClassTemplatePartialSpecializationDeclEEE
libclangAST.so.8:_ZN5clang17ClassTemplateDecl25getPartialSpecializationsEv
libclangAST.so.8:_ZN5clang17ClassTemplateDecl34getInjectedClassNameSpecializationEv
libclangAST.so.8:_ZN5clang17ClassTemplateDecl37findPartialSpecInstantiatedFromMemberEPNS_38ClassTemplatePartialSpecializationDeclE
libclangAST.so.8:_ZN5clang17ClassTemplateDecl6CreateERNS_10ASTContextEPNS_11DeclContextENS_14SourceLocationENS_15DeclarationNameEPNS_21TemplateParameterListEPNS_9NamedDeclEPNS_4ExprE
libclangAST.so.8:_ZN5clang17ConstantArrayType14getMaxSizeBitsERKNS_10ASTContextE
libclangAST.so.8:_ZN5clang17ConstantArrayType20getNumAddressingBitsERKNS_10ASTContextENS_8QualTypeERKN4llvm5APIntE
libclangAST.so.8:_ZN5clang17CoroutineBodyStmt6CreateERKNS_10ASTContextENS_4Stmt10EmptyShellEj
libclangAST.so.8:_ZN5clang17CoroutineBodyStmt6CreateERKNS_10ASTContextERKNS0_8CtorArgsE
libclangAST.so.8:_ZN5clang17CoroutineBodyStmtC1ERKNS0_8CtorArgsE
libclangAST.so.8:_ZN5clang17CoroutineBodyStmtC2ERKNS0_8CtorArgsE
libclangAST.so.8:_ZN5clang17DecompositionDecl18CreateDeserializedERNS_10ASTContextEjj
libclangAST.so.8:_ZN5clang17DecompositionDecl6CreateERNS_10ASTContextEPNS_11DeclContextENS_14SourceLocationES5_NS_8QualTypeEPNS_14TypeSourceInfoENS_12StorageClassEN4llvm8ArrayRefIPNS_11BindingDeclEEE
libclangAST.so.8:_ZN5clang17DecompositionDecl6anchorEv
libclangAST.so.8:_ZN5clang17ElaboratedTypeLoc15initializeLocalERNS_10ASTContextENS_14SourceLocationE
libclangAST.so.8:_ZN5clang17ExternalASTMerger10AddSourcesEN4llvm8ArrayRefINS0_14ImporterSourceEEE
libclangAST.so.8:_ZN5clang17ExternalASTMerger11CanCompleteEPNS_11DeclContextE
libclangAST.so.8:_ZN5clang17ExternalASTMerger12CompleteTypeEPNS_17ObjCInterfaceDeclE
libclangAST.so.8:_ZN5clang17ExternalASTMerger12CompleteTypeEPNS_7TagDeclE
libclangAST.so.8:_ZN5clang17ExternalASTMerger13RemoveSourcesEN4llvm8ArrayRefINS0_14ImporterSourceEEE
libclangAST.so.8:_ZN5clang17ExternalASTMerger16RecordOriginImplEPKNS_11DeclContextENS0_8DCOriginERNS_11ASTImporterE
libclangAST.so.8:_ZN5clang17ExternalASTMerger17ForceRecordOriginEPKNS_11DeclContextENS0_8DCOriginE
libclangAST.so.8:_ZN5clang17ExternalASTMerger17ImporterForOriginERNS_10ASTContextE
libclangAST.so.8:_ZN5clang17ExternalASTMerger17MaybeRecordOriginEPKNS_11DeclContextENS0_8DCOriginE
libclangAST.so.8:_ZN5clang17ExternalASTMerger20HasImporterForOriginERNS_10ASTContextE
libclangAST.so.8:_ZN5clang17ExternalASTMerger24FindExternalLexicalDeclsEPKNS_11DeclContextEN4llvm12function_refIFbNS_4Decl4KindEEEERNS4_15SmallVectorImplIPS6_EE
libclangAST.so.8:_ZN5clang17ExternalASTMerger30FindExternalVisibleDeclsByNameEPKNS_11DeclContextENS_15DeclarationNameE
libclangAST.so.8:_ZN5clang17ExternalASTMergerC1ERKNS0_14ImporterTargetEN4llvm8ArrayRefINS0_14ImporterSourceEEE
libclangAST.so.8:_ZN5clang17ExternalASTMergerC2ERKNS0_14ImporterTargetEN4llvm8ArrayRefINS0_14ImporterSourceEEE
libclangAST.so.8:_ZN5clang17ExternalASTSource10PrintStatsEv
libclangAST.so.8:_ZN5clang17ExternalASTSource12CompleteTypeEPNS_17ObjCInterfaceDeclE
libclangAST.so.8:_ZN5clang17ExternalASTSource12CompleteTypeEPNS_7TagDeclE
libclangAST.so.8:_ZN5clang17ExternalASTSource12ReadCommentsEv
libclangAST.so.8:_ZN5clang17ExternalASTSource15GetExternalDeclEj
libclangAST.so.8:_ZN5clang17ExternalASTSource16layoutRecordTypeEPKNS_10RecordDeclERmS4_RN4llvm8DenseMapIPKNS_9FieldDeclEmNS5_12DenseMapInfoIS9_EENS5_6detail12DenseMapPairIS9_mEEEERNS6_IPKNS_13CXXRecordDeclENS_9CharUnitsENSA_ISJ_EENSD_ISJ_SK_EEEESO_
libclangAST.so.8:_ZN5clang17ExternalASTSource19ASTSourceDescriptorC1ERKNS_6ModuleE
libclangAST.so.8:_ZN5clang17ExternalASTSource19ASTSourceDescriptorC2ERKNS_6ModuleE
libclangAST.so.8:_ZN5clang17ExternalASTSource19CompleteRedeclChainEPKNS_4DeclE
libclangAST.so.8:_ZN5clang17ExternalASTSource19FindFileRegionDeclsENS_6FileIDEjjRN4llvm15SmallVectorImplIPNS_4DeclEEE
libclangAST.so.8:_ZN5clang17ExternalASTSource19GetExternalDeclStmtEm
libclangAST.so.8:_ZN5clang17ExternalASTSource19GetExternalSelectorEj
libclangAST.so.8:_ZN5clang17ExternalASTSource19getSourceDescriptorEj
libclangAST.so.8:_ZN5clang17ExternalASTSource19incrementGenerationERNS_10ASTContextE
libclangAST.so.8:_ZN5clang17ExternalASTSource20StartTranslationUnitEPNS_11ASTConsumerE
libclangAST.so.8:_ZN5clang17ExternalASTSource20StartedDeserializingEv
libclangAST.so.8:_ZN5clang17ExternalASTSource21FinishedDeserializingEv
libclangAST.so.8:_ZN5clang17ExternalASTSource22hasExternalDefinitionsEPKNS_4DeclE
libclangAST.so.8:_ZN5clang17ExternalASTSource23GetNumExternalSelectorsEv
libclangAST.so.8:_ZN5clang17ExternalASTSource23completeVisibleDeclsMapEPKNS_11DeclContextE
libclangAST.so.8:_ZN5clang17ExternalASTSource24FindExternalLexicalDeclsEPKNS_11DeclContextEN4llvm12function_refIFbNS_4Decl4KindEEEERNS4_15SmallVectorImplIPS6_EE
libclangAST.so.8:_ZN5clang17ExternalASTSource28GetExternalCXXBaseSpecifiersEm
libclangAST.so.8:_ZN5clang17ExternalASTSource30FindExternalVisibleDeclsByNameEPKNS_11DeclContextENS_15DeclarationNameE
libclangAST.so.8:_ZN5clang17ExternalASTSource30GetExternalCXXCtorInitializersEm
libclangAST.so.8:_ZN5clang17ExternalASTSource30SetExternalVisibleDeclsForNameEPKNS_11DeclContextENS_15DeclarationNameEN4llvm8ArrayRefIPNS_9NamedDeclEEE
libclangAST.so.8:_ZN5clang17ExternalASTSource32SetNoExternalVisibleDeclsForNameEPKNS_11DeclContextENS_15DeclarationNameE
libclangAST.so.8:_ZN5clang17ExternalASTSourceD0Ev
libclangAST.so.8:_ZN5clang17ExternalASTSourceD1Ev
libclangAST.so.8:_ZN5clang17ExternalASTSourceD2Ev
libclangAST.so.8:_ZN5clang17FixedPointLiteral16CreateFromRawIntERKNS_10ASTContextERKN4llvm5APIntENS_8QualTypeENS_14SourceLocationEj
libclangAST.so.8:_ZN5clang17FixedPointLiteralC1ERKNS_10ASTContextERKN4llvm5APIntENS_8QualTypeENS_14SourceLocationEj
libclangAST.so.8:_ZN5clang17FixedPointLiteralC2ERKNS_10ASTContextERKN4llvm5APIntENS_8QualTypeENS_14SourceLocationEj
libclangAST.so.8:_ZN5clang17FunctionProtoType7ProfileERN4llvm16FoldingSetNodeIDENS_8QualTypeEPKS4_jRKNS0_12ExtProtoInfoERKNS_10ASTContextEb
libclangAST.so.8:_ZN5clang17FunctionProtoType7ProfileERN4llvm16FoldingSetNodeIDERKNS_10ASTContextE
libclangAST.so.8:_ZN5clang17FunctionProtoTypeC1ENS_8QualTypeEN4llvm8ArrayRefIS1_EES1_RKNS0_12ExtProtoInfoE
libclangAST.so.8:_ZN5clang17FunctionProtoTypeC2ENS_8QualTypeEN4llvm8ArrayRefIS1_EES1_RKNS0_12ExtProtoInfoE
libclangAST.so.8:_ZN5clang17ImplicitParamDecl18CreateDeserializedERNS_10ASTContextEj
libclangAST.so.8:_ZN5clang17ImplicitParamDecl6CreateERNS_10ASTContextENS_8QualTypeENS0_17ImplicitParamKindE
libclangAST.so.8:_ZN5clang17ImplicitParamDecl6CreateERNS_10ASTContextEPNS_11DeclContextENS_14SourceLocationEPNS_14IdentifierInfoENS_8QualTypeENS0_17ImplicitParamKindE
libclangAST.so.8:_ZN5clang17ImplicitParamDecl6anchorEv
libclangAST.so.8:_ZN5clang17IndirectFieldDecl18CreateDeserializedERNS_10ASTContextEj
libclangAST.so.8:_ZN5clang17IndirectFieldDecl6CreateERNS_10ASTContextEPNS_11DeclContextENS_14SourceLocationEPNS_14IdentifierInfoENS_8QualTypeEN4llvm15MutableArrayRefIPNS_9NamedDeclEEE
libclangAST.so.8:_ZN5clang17IndirectFieldDecl6anchorEv
libclangAST.so.8:_ZN5clang17IndirectFieldDeclC1ERNS_10ASTContextEPNS_11DeclContextENS_14SourceLocationENS_15DeclarationNameENS_8QualTypeEN4llvm15MutableArrayRefIPNS_9NamedDeclEEE
libclangAST.so.8:_ZN5clang17IndirectFieldDeclC2ERNS_10ASTContextEPNS_11DeclContextENS_14SourceLocationENS_15DeclarationNameENS_8QualTypeEN4llvm15MutableArrayRefIPNS_9NamedDeclEEE
libclangAST.so.8:_ZN5clang17OMPFlushDirective11CreateEmptyERKNS_10ASTContextEjNS_4Stmt10EmptyShellE
libclangAST.so.8:_ZN5clang17OMPFlushDirective6CreateERKNS_10ASTContextENS_14SourceLocationES4_N4llvm8ArrayRefIPNS_9OMPClauseEEE
libclangAST.so.8:_ZN5clang17OMPTeamsDirective11CreateEmptyERKNS_10ASTContextEjNS_4Stmt10EmptyShellE
libclangAST.so.8:_ZN5clang17OMPTeamsDirective6CreateERKNS_10ASTContextENS_14SourceLocationES4_N4llvm8ArrayRefIPNS_9OMPClauseEEEPNS_4StmtE
libclangAST.so.8:_ZN5clang17ObjCContainerDecl6anchorEv
libclangAST.so.8:_ZN5clang17ObjCContainerDeclC1ENS_4Decl4KindEPNS_11DeclContextEPNS_14IdentifierInfoENS_14SourceLocationES7_
libclangAST.so.8:_ZN5clang17ObjCContainerDeclC2ENS_4Decl4KindEPNS_11DeclContextEPNS_14IdentifierInfoENS_14SourceLocationES7_
libclangAST.so.8:_ZN5clang17ObjCInterfaceDecl15startDefinitionEv
libclangAST.so.8:_ZN5clang17ObjCInterfaceDecl16setTypeParamListEPNS_17ObjCTypeParamListE
libclangAST.so.8:_ZN5clang17ObjCInterfaceDecl17setImplementationEPNS_22ObjCImplementationDeclE
libclangAST.so.8:_ZN5clang17ObjCInterfaceDecl18CreateDeserializedERKNS_10ASTContextEj
libclangAST.so.8:_ZN5clang17ObjCInterfaceDecl20lookupInheritedClassEPKNS_14IdentifierInfoE
libclangAST.so.8:_ZN5clang17ObjCInterfaceDecl20lookupNestedProtocolEPNS_14IdentifierInfoE
libclangAST.so.8:_ZN5clang17ObjCInterfaceDecl22allocateDefinitionDataEv
libclangAST.so.8:_ZN5clang17ObjCInterfaceDecl22lookupInstanceVariableEPNS_14IdentifierInfoERPS0_
libclangAST.so.8:_ZN5clang17ObjCInterfaceDecl22setExternallyCompletedEv
libclangAST.so.8:_ZN5clang17ObjCInterfaceDecl23ClassImplementsProtocolEPNS_16ObjCProtocolDeclEbb
libclangAST.so.8:_ZN5clang17ObjCInterfaceDecl23all_declared_ivar_beginEv
libclangAST.so.8:_ZN5clang17ObjCInterfaceDecl28setHasDesignatedInitializersEv
libclangAST.so.8:_ZN5clang17ObjCInterfaceDecl31mergeClassExtensionProtocolListEPKPNS_16ObjCProtocolDeclEjRNS_10ASTContextE
libclangAST.so.8:_ZN5clang17ObjCInterfaceDecl6CreateERKNS_10ASTContextEPNS_11DeclContextENS_14SourceLocationEPNS_14IdentifierInfoEPNS_17ObjCTypeParamListEPS0_S6_b
libclangAST.so.8:_ZN5clang17ObjCInterfaceDecl6anchorEv
libclangAST.so.8:_ZN5clang17ObjCInterfaceDeclC1ERKNS_10ASTContextEPNS_11DeclContextENS_14SourceLocationEPNS_14IdentifierInfoEPNS_17ObjCTypeParamListES6_PS0_b
libclangAST.so.8:_ZN5clang17ObjCInterfaceDeclC2ERKNS_10ASTContextEPNS_11DeclContextENS_14SourceLocationEPNS_14IdentifierInfoEPNS_17ObjCTypeParamListES6_PS0_b
libclangAST.so.8:_ZN5clang17ObjCObjectTypeLoc15initializeLocalERNS_10ASTContextENS_14SourceLocationE
libclangAST.so.8:_ZN5clang17ObjCTypeParamDecl18CreateDeserializedERNS_10ASTContextEj
libclangAST.so.8:_ZN5clang17ObjCTypeParamDecl6CreateERNS_10ASTContextEPNS_11DeclContextENS_21ObjCTypeParamVarianceENS_14SourceLocationEjS6_PNS_14IdentifierInfoES6_PNS_14TypeSourceInfoE
libclangAST.so.8:_ZN5clang17ObjCTypeParamDecl6anchorEv
libclangAST.so.8:_ZN5clang17ObjCTypeParamList6createERNS_10ASTContextENS_14SourceLocationEN4llvm8ArrayRefIPNS_17ObjCTypeParamDeclEEES3_
libclangAST.so.8:_ZN5clang17ObjCTypeParamListC1ENS_14SourceLocationEN4llvm8ArrayRefIPNS_17ObjCTypeParamDeclEEES1_
libclangAST.so.8:_ZN5clang17ObjCTypeParamListC2ENS_14SourceLocationEN4llvm8ArrayRefIPNS_17ObjCTypeParamDeclEEES1_
libclangAST.so.8:_ZN5clang17ObjCTypeParamType7ProfileERN4llvm16FoldingSetNodeIDE
libclangAST.so.8:_ZN5clang17ObjCTypeParamType7ProfileERN4llvm16FoldingSetNodeIDEPKNS_17ObjCTypeParamDeclENS1_8ArrayRefIPNS_16ObjCProtocolDeclEEE
libclangAST.so.8:_ZN5clang17ObjCTypeParamTypeC1EPKNS_17ObjCTypeParamDeclENS_8QualTypeEN4llvm8ArrayRefIPNS_16ObjCProtocolDeclEEE
libclangAST.so.8:_ZN5clang17ObjCTypeParamTypeC2EPKNS_17ObjCTypeParamDeclENS_8QualTypeEN4llvm8ArrayRefIPNS_16ObjCProtocolDeclEEE
libclangAST.so.8:_ZN5clang17OverridingMethods10replaceAllENS_19UniqueVirtualMethodE
libclangAST.so.8:_ZN5clang17OverridingMethods3addERKS0_
libclangAST.so.8:_ZN5clang17OverridingMethods3addEjNS_19UniqueVirtualMethodE
libclangAST.so.8:_ZN5clang17PragmaCommentDecl18CreateDeserializedERNS_10ASTContextEjj
libclangAST.so.8:_ZN5clang17PragmaCommentDecl6CreateERKNS_10ASTContextEPNS_19TranslationUnitDeclENS_14SourceLocationENS_19PragmaMSCommentKindEN4llvm9StringRefE
libclangAST.so.8:_ZN5clang17PragmaCommentDecl6anchorEv
libclangAST.so.8:_ZN5clang17ShuffleVectorExpr8setExprsERKNS_10ASTContextEN4llvm8ArrayRefIPNS_4ExprEEE
libclangAST.so.8:_ZN5clang17ShuffleVectorExprC1ERKNS_10ASTContextEN4llvm8ArrayRefIPNS_4ExprEEENS_8QualTypeENS_14SourceLocationESA_
libclangAST.so.8:_ZN5clang17ShuffleVectorExprC2ERKNS_10ASTContextEN4llvm8ArrayRefIPNS_4ExprEEENS_8QualTypeENS_14SourceLocationESA_
libclangAST.so.8:_ZN5clang18CUDAKernelCallExpr11CreateEmptyERKNS_10ASTContextEjNS_4Stmt10EmptyShellE
libclangAST.so.8:_ZN5clang18CUDAKernelCallExpr6CreateERKNS_10ASTContextEPNS_4ExprEPNS_8CallExprEN4llvm8ArrayRefIS5_EENS_8QualTypeENS_13ExprValueKindENS_14SourceLocationEj
libclangAST.so.8:_ZN5clang18CUDAKernelCallExprC1EPNS_4ExprEPNS_8CallExprEN4llvm8ArrayRefIS2_EENS_8QualTypeENS_13ExprValueKindENS_14SourceLocationEj
libclangAST.so.8:_ZN5clang18CUDAKernelCallExprC1EjNS_4Stmt10EmptyShellE
libclangAST.so.8:_ZN5clang18CUDAKernelCallExprC2EPNS_4ExprEPNS_8CallExprEN4llvm8ArrayRefIS2_EENS_8QualTypeENS_13ExprValueKindENS_14SourceLocationEj
libclangAST.so.8:_ZN5clang18CUDAKernelCallExprC2EjNS_4Stmt10EmptyShellE
libclangAST.so.8:_ZN5clang18CXXConstructorDecl18CreateDeserializedERNS_10ASTContextEjb
libclangAST.so.8:_ZN5clang18CXXConstructorDecl6CreateERNS_10ASTContextEPNS_13CXXRecordDeclENS_14SourceLocationERKNS_19DeclarationNameInfoENS_8QualTypeEPNS_14TypeSourceInfoEbbbbNS_20InheritedConstructorE
libclangAST.so.8:_ZN5clang18CXXConstructorDecl6anchorEv
libclangAST.so.8:_ZN5clang18CXXConstructorDeclC1ERNS_10ASTContextEPNS_13CXXRecordDeclENS_14SourceLocationERKNS_19DeclarationNameInfoENS_8QualTypeEPNS_14TypeSourceInfoEbbbbNS_20InheritedConstructorE
libclangAST.so.8:_ZN5clang18CXXConstructorDeclC2ERNS_10ASTContextEPNS_13CXXRecordDeclENS_14SourceLocationERKNS_19DeclarationNameInfoENS_8QualTypeEPNS_14TypeSourceInfoEbbbbNS_20InheritedConstructorE
libclangAST.so.8:_ZN5clang18CXXCtorInitializerC1ERNS_10ASTContextEPNS_14TypeSourceInfoENS_14SourceLocationEPNS_4ExprES5_
libclangAST.so.8:_ZN5clang18CXXCtorInitializerC1ERNS_10ASTContextEPNS_14TypeSourceInfoEbNS_14SourceLocationEPNS_4ExprES5_S5_
libclangAST.so.8:_ZN5clang18CXXCtorInitializerC1ERNS_10ASTContextEPNS_17IndirectFieldDeclENS_14SourceLocationES5_PNS_4ExprES5_
libclangAST.so.8:_ZN5clang18CXXCtorInitializerC1ERNS_10ASTContextEPNS_9FieldDeclENS_14SourceLocationES5_PNS_4ExprES5_
libclangAST.so.8:_ZN5clang18CXXCtorInitializerC2ERNS_10ASTContextEPNS_14TypeSourceInfoENS_14SourceLocationEPNS_4ExprES5_
libclangAST.so.8:_ZN5clang18CXXCtorInitializerC2ERNS_10ASTContextEPNS_14TypeSourceInfoEbNS_14SourceLocationEPNS_4ExprES5_S5_
libclangAST.so.8:_ZN5clang18CXXCtorInitializerC2ERNS_10ASTContextEPNS_17IndirectFieldDeclENS_14SourceLocationES5_PNS_4ExprES5_
libclangAST.so.8:_ZN5clang18CXXCtorInitializerC2ERNS_10ASTContextEPNS_9FieldDeclENS_14SourceLocationES5_PNS_4ExprES5_
libclangAST.so.8:_ZN5clang18CXXDefaultInitExprC1ERKNS_10ASTContextENS_14SourceLocationEPNS_9FieldDeclENS_8QualTypeE
libclangAST.so.8:_ZN5clang18CXXDefaultInitExprC2ERKNS_10ASTContextENS_14SourceLocationEPNS_9FieldDeclENS_8QualTypeE
libclangAST.so.8:_ZN5clang18CXXDynamicCastExpr11CreateEmptyERKNS_10ASTContextEj
libclangAST.so.8:_ZN5clang18CXXDynamicCastExpr6CreateERKNS_10ASTContextENS_8QualTypeENS_13ExprValueKindENS_8CastKindEPNS_4ExprEPKN4llvm11SmallVectorIPNS_16CXXBaseSpecifierELj4EEEPNS_14TypeSourceInfoENS_14SourceLocationESI_NS_11SourceRangeE
libclangAST.so.8:_ZN5clang18DeclarationNameLocC1ENS_15DeclarationNameE
libclangAST.so.8:_ZN5clang18DeclarationNameLocC2ENS_15DeclarationNameE
libclangAST.so.8:_ZN5clang18DesignatedInitExpr11CreateEmptyERKNS_10ASTContextEj
libclangAST.so.8:_ZN5clang18DesignatedInitExpr14setDesignatorsERKNS_10ASTContextEPKNS0_10DesignatorEj
libclangAST.so.8:_ZN5clang18DesignatedInitExpr16ExpandDesignatorERKNS_10ASTContextEjPKNS0_10DesignatorES6_
libclangAST.so.8:_ZN5clang18DesignatedInitExpr6CreateERKNS_10ASTContextEN4llvm8ArrayRefINS0_10DesignatorEEENS5_IPNS_4ExprEEENS_14SourceLocationEbS9_
libclangAST.so.8:_ZN5clang18DesignatedInitExprC1ERKNS_10ASTContextENS_8QualTypeEN4llvm8ArrayRefINS0_10DesignatorEEENS_14SourceLocationEbNS6_IPNS_4ExprEEESB_
libclangAST.so.8:_ZN5clang18DesignatedInitExprC2ERKNS_10ASTContextENS_8QualTypeEN4llvm8ArrayRefINS0_10DesignatorEEENS_14SourceLocationEbNS6_IPNS_4ExprEEESB_
libclangAST.so.8:_ZN5clang18ExternCContextDecl6CreateERKNS_10ASTContextEPNS_19TranslationUnitDeclE
libclangAST.so.8:_ZN5clang18ExternCContextDecl6anchorEv
libclangAST.so.8:_ZN5clang18FriendTemplateDecl18CreateDeserializedERNS_10ASTContextEj
libclangAST.so.8:_ZN5clang18FriendTemplateDecl6CreateERNS_10ASTContextEPNS_11DeclContextENS_14SourceLocationEN4llvm15MutableArrayRefIPNS_21TemplateParameterListEEENS6_12PointerUnionIPNS_9NamedDeclEPNS_14TypeSourceInfoEEES5_
libclangAST.so.8:_ZN5clang18FriendTemplateDecl6anchorEv
libclangAST.so.8:_ZN5clang18NamespaceAliasDecl18CreateDeserializedERNS_10ASTContextEj
libclangAST.so.8:_ZN5clang18NamespaceAliasDecl19getPreviousDeclImplEv
libclangAST.so.8:_ZN5clang18NamespaceAliasDecl21getMostRecentDeclImplEv
libclangAST.so.8:_ZN5clang18NamespaceAliasDecl24getNextRedeclarationImplEv
libclangAST.so.8:_ZN5clang18NamespaceAliasDecl6CreateERNS_10ASTContextEPNS_11DeclContextENS_14SourceLocationES5_PNS_14IdentifierInfoENS_22NestedNameSpecifierLocES5_PNS_9NamedDeclE
libclangAST.so.8:_ZN5clang18NamespaceAliasDecl6anchorEv
libclangAST.so.8:_ZN5clang18OMPAtomicDirective11CreateEmptyERKNS_10ASTContextEjNS_4Stmt10EmptyShellE
libclangAST.so.8:_ZN5clang18OMPAtomicDirective6CreateERKNS_10ASTContextENS_14SourceLocationES4_N4llvm8ArrayRefIPNS_9OMPClauseEEEPNS_4StmtEPNS_4ExprESD_SD_SD_bb
libclangAST.so.8:_ZN5clang18OMPCancelDirective11CreateEmptyERKNS_10ASTContextEjNS_4Stmt10EmptyShellE
libclangAST.so.8:_ZN5clang18OMPCancelDirective6CreateERKNS_10ASTContextENS_14SourceLocationES4_N4llvm8ArrayRefIPNS_9OMPClauseEEENS_19OpenMPDirectiveKindE
libclangAST.so.8:_ZN5clang18OMPMasterDirective11CreateEmptyERKNS_10ASTContextENS_4Stmt10EmptyShellE
libclangAST.so.8:_ZN5clang18OMPMasterDirective6CreateERKNS_10ASTContextENS_14SourceLocationES4_PNS_4StmtE
libclangAST.so.8:_ZN5clang18OMPReductionClause11CreateEmptyERKNS_10ASTContextEj
libclangAST.so.8:_ZN5clang18OMPReductionClause11setLHSExprsEN4llvm8ArrayRefIPNS_4ExprEEE
libclangAST.so.8:_ZN5clang18OMPReductionClause11setPrivatesEN4llvm8ArrayRefIPNS_4ExprEEE
libclangAST.so.8:_ZN5clang18OMPReductionClause11setRHSExprsEN4llvm8ArrayRefIPNS_4ExprEEE
libclangAST.so.8:_ZN5clang18OMPReductionClause15setReductionOpsEN4llvm8ArrayRefIPNS_4ExprEEE
libclangAST.so.8:_ZN5clang18OMPReductionClause6CreateERKNS_10ASTContextENS_14SourceLocationES4_S4_S4_N4llvm8ArrayRefIPNS_4ExprEEENS_22NestedNameSpecifierLocERKNS_19DeclarationNameInfoES9_S9_S9_S9_PNS_4StmtES8_
libclangAST.so.8:_ZN5clang18OMPSingleDirective11CreateEmptyERKNS_10ASTContextEjNS_4Stmt10EmptyShellE
libclangAST.so.8:_ZN5clang18OMPSingleDirective6CreateERKNS_10ASTContextENS_14SourceLocationES4_N4llvm8ArrayRefIPNS_9OMPClauseEEEPNS_4StmtE
libclangAST.so.8:_ZN5clang18OMPTargetDirective11CreateEmptyERKNS_10ASTContextEjNS_4Stmt10EmptyShellE
libclangAST.so.8:_ZN5clang18OMPTargetDirective6CreateERKNS_10ASTContextENS_14SourceLocationES4_N4llvm8ArrayRefIPNS_9OMPClauseEEEPNS_4StmtE
libclangAST.so.8:_ZN5clang18ObjCObjectTypeImpl7ProfileERN4llvm16FoldingSetNodeIDE
libclangAST.so.8:_ZN5clang18ObjCObjectTypeImpl7ProfileERN4llvm16FoldingSetNodeIDENS_8QualTypeENS1_8ArrayRefIS4_EENS5_IPNS_16ObjCProtocolDeclEEEb
libclangAST.so.8:_ZN5clang18UnaryTransformTypeC1ENS_8QualTypeES1_NS0_7UTTKindES1_
libclangAST.so.8:_ZN5clang18UnaryTransformTypeC2ENS_8QualTypeES1_NS0_7UTTKindES1_
libclangAST.so.8:_ZN5clang18UserDefinedLiteral11CreateEmptyERKNS_10ASTContextEjNS_4Stmt10EmptyShellE
libclangAST.so.8:_ZN5clang18UserDefinedLiteral16getCookedLiteralEv
libclangAST.so.8:_ZN5clang18UserDefinedLiteral6CreateERKNS_10ASTContextEPNS_4ExprEN4llvm8ArrayRefIS5_EENS_8QualTypeENS_13ExprValueKindENS_14SourceLocationESB_
libclangAST.so.8:_ZN5clang18UserDefinedLiteralC1EPNS_4ExprEN4llvm8ArrayRefIS2_EENS_8QualTypeENS_13ExprValueKindENS_14SourceLocationES8_
libclangAST.so.8:_ZN5clang18UserDefinedLiteralC1EjNS_4Stmt10EmptyShellE
libclangAST.so.8:_ZN5clang18UserDefinedLiteralC2EPNS_4ExprEN4llvm8ArrayRefIS2_EENS_8QualTypeENS_13ExprValueKindENS_14SourceLocationES8_
libclangAST.so.8:_ZN5clang18UserDefinedLiteralC2EjNS_4Stmt10EmptyShellE
libclangAST.so.8:_ZN5clang18UsingDirectiveDecl18CreateDeserializedERNS_10ASTContextEj
libclangAST.so.8:_ZN5clang18UsingDirectiveDecl21getNominatedNamespaceEv
libclangAST.so.8:_ZN5clang18UsingDirectiveDecl6CreateERNS_10ASTContextEPNS_11DeclContextENS_14SourceLocationES5_NS_22NestedNameSpecifierLocES5_PNS_9NamedDeclES4_
libclangAST.so.8:_ZN5clang18UsingDirectiveDecl6anchorEv
libclangAST.so.8:_ZN5clang19ASTMutationListener17DeducedReturnTypeEPKNS_12FunctionDeclENS_8QualTypeE
libclangAST.so.8:_ZN5clang19ASTMutationListenerD0Ev
libclangAST.so.8:_ZN5clang19ASTMutationListenerD1Ev
libclangAST.so.8:_ZN5clang19ASTMutationListenerD2Ev
libclangAST.so.8:_ZN5clang19BuiltinTemplateDecl6anchorEv
libclangAST.so.8:_ZN5clang19BuiltinTemplateDeclC1ERKNS_10ASTContextEPNS_11DeclContextENS_15DeclarationNameENS_19BuiltinTemplateKindE
libclangAST.so.8:_ZN5clang19BuiltinTemplateDeclC2ERKNS_10ASTContextEPNS_11DeclContextENS_15DeclarationNameENS_19BuiltinTemplateKindE
libclangAST.so.8:_ZN5clang19CXXOperatorCallExpr11CreateEmptyERKNS_10ASTContextEjNS_4Stmt10EmptyShellE
libclangAST.so.8:_ZN5clang19CXXOperatorCallExpr6CreateERKNS_10ASTContextENS_22OverloadedOperatorKindEPNS_4ExprEN4llvm8ArrayRefIS6_EENS_8QualTypeENS_13ExprValueKindENS_14SourceLocationENS_9FPOptionsENS_8CallExpr11ADLCallKindE
libclangAST.so.8:_ZN5clang19CXXOperatorCallExprC1ENS_22OverloadedOperatorKindEPNS_4ExprEN4llvm8ArrayRefIS3_EENS_8QualTypeENS_13ExprValueKindENS_14SourceLocationENS_9FPOptionsENS_8CallExpr11ADLCallKindE
libclangAST.so.8:_ZN5clang19CXXOperatorCallExprC1EjNS_4Stmt10EmptyShellE
libclangAST.so.8:_ZN5clang19CXXOperatorCallExprC2ENS_22OverloadedOperatorKindEPNS_4ExprEN4llvm8ArrayRefIS3_EENS_8QualTypeENS_13ExprValueKindENS_14SourceLocationENS_9FPOptionsENS_8CallExpr11ADLCallKindE
libclangAST.so.8:_ZN5clang19CXXOperatorCallExprC2EjNS_4Stmt10EmptyShellE
libclangAST.so.8:_ZN5clang19CreateItaniumCXXABIERNS_10ASTContextE
libclangAST.so.8:_ZN5clang19DependentDiagnostic6CreateERNS_10ASTContextEPNS_11DeclContextERKNS_17PartialDiagnosticE
libclangAST.so.8:_ZN5clang19DependentVectorType7ProfileERN4llvm16FoldingSetNodeIDERKNS_10ASTContextENS_8QualTypeEPKNS_4ExprENS_10VectorType10VectorKindE
libclangAST.so.8:_ZN5clang19DependentVectorTypeC1ERKNS_10ASTContextENS_8QualTypeES4_PNS_4ExprENS_14SourceLocationENS_10VectorType10VectorKindE
libclangAST.so.8:_ZN5clang19DependentVectorTypeC2ERKNS_10ASTContextENS_8QualTypeES4_PNS_4ExprENS_14SourceLocationENS_10VectorType10VectorKindE
libclangAST.so.8:_ZN5clang19NestedNameSpecifier12FindOrInsertERKNS_10ASTContextERKS0_
libclangAST.so.8:_ZN5clang19NestedNameSpecifier14SuperSpecifierERKNS_10ASTContextEPNS_13CXXRecordDeclE
libclangAST.so.8:_ZN5clang19NestedNameSpecifier15GlobalSpecifierERKNS_10ASTContextE
libclangAST.so.8:_ZN5clang19NestedNameSpecifier6CreateERKNS_10ASTContextEPNS_14IdentifierInfoE
libclangAST.so.8:_ZN5clang19NestedNameSpecifier6CreateERKNS_10ASTContextEPS0_PKNS_13NamespaceDeclE
libclangAST.so.8:_ZN5clang19NestedNameSpecifier6CreateERKNS_10ASTContextEPS0_PNS_14IdentifierInfoE
libclangAST.so.8:_ZN5clang19NestedNameSpecifier6CreateERKNS_10ASTContextEPS0_PNS_18NamespaceAliasDeclE
libclangAST.so.8:_ZN5clang19NestedNameSpecifier6CreateERKNS_10ASTContextEPS0_bPKNS_4TypeE
libclangAST.so.8:_ZN5clang19OMPArraySectionExpr19getBaseOriginalTypeEPKNS_4ExprE
libclangAST.so.8:_ZN5clang19OMPBarrierDirective11CreateEmptyERKNS_10ASTContextENS_4Stmt10EmptyShellE
libclangAST.so.8:_ZN5clang19OMPBarrierDirective6CreateERKNS_10ASTContextENS_14SourceLocationES4_
libclangAST.so.8:_ZN5clang19OMPCapturedExprDecl18CreateDeserializedERNS_10ASTContextEj
libclangAST.so.8:_ZN5clang19OMPCapturedExprDecl6CreateERNS_10ASTContextEPNS_11DeclContextEPNS_14IdentifierInfoENS_8QualTypeENS_14SourceLocationE
libclangAST.so.8:_ZN5clang19OMPCapturedExprDecl6anchorEv
libclangAST.so.8:_ZN5clang19OMPForSimdDirective11CreateEmptyERKNS_10ASTContextEjjNS_4Stmt10EmptyShellE
libclangAST.so.8:_ZN5clang19OMPForSimdDirective6CreateERKNS_10ASTContextENS_14SourceLocationES4_jN4llvm8ArrayRefIPNS_9OMPClauseEEEPNS_4StmtERKNS_16OMPLoopDirective11HelperExprsE
libclangAST.so.8:_ZN5clang19OMPOrderedDirective11CreateEmptyERKNS_10ASTContextEjNS_4Stmt10EmptyShellE
libclangAST.so.8:_ZN5clang19OMPOrderedDirective6CreateERKNS_10ASTContextENS_14SourceLocationES4_N4llvm8ArrayRefIPNS_9OMPClauseEEEPNS_4StmtE
libclangAST.so.8:_ZN5clang19OMPSectionDirective11CreateEmptyERKNS_10ASTContextENS_4Stmt10EmptyShellE
libclangAST.so.8:_ZN5clang19OMPSectionDirective6CreateERKNS_10ASTContextENS_14SourceLocationES4_PNS_4StmtEb
libclangAST.so.8:_ZN5clang19ObjCAtDefsFieldDecl18CreateDeserializedERNS_10ASTContextEj
libclangAST.so.8:_ZN5clang19ObjCAtDefsFieldDecl6CreateERNS_10ASTContextEPNS_11DeclContextENS_14SourceLocationES5_PNS_14IdentifierInfoENS_8QualTypeEPNS_4ExprE
libclangAST.so.8:_ZN5clang19ObjCAtDefsFieldDecl6anchorEv
libclangAST.so.8:_ZN5clang19TranslationUnitDecl6CreateERNS_10ASTContextE
libclangAST.so.8:_ZN5clang19TranslationUnitDecl6anchorEv
libclangAST.so.8:_ZN5clang19TranslationUnitDeclC1ERNS_10ASTContextE
libclangAST.so.8:_ZN5clang19TranslationUnitDeclC2ERNS_10ASTContextE
libclangAST.so.8:_ZN5clang20CXXBindTemporaryExpr6CreateERKNS_10ASTContextEPNS_12CXXTemporaryEPNS_4ExprE
libclangAST.so.8:_ZN5clang20ComparisonCategories15getResultStringENS_24ComparisonCategoryResultE
libclangAST.so.8:_ZN5clang20ComparisonCategories17getCategoryStringENS_22ComparisonCategoryTypeE
libclangAST.so.8:_ZN5clang20ComparisonCategories25getPossibleResultsForTypeENS_22ComparisonCategoryTypeE
libclangAST.so.8:_ZN5clang20DeclarationNameTable17getCXXSpecialNameENS_15DeclarationName8NameKindENS_7CanQualINS_4TypeEEE
libclangAST.so.8:_ZN5clang20DeclarationNameTable20getCXXDestructorNameENS_7CanQualINS_4TypeEEE
libclangAST.so.8:_ZN5clang20DeclarationNameTable21getCXXConstructorNameENS_7CanQualINS_4TypeEEE
libclangAST.so.8:_ZN5clang20DeclarationNameTable24getCXXDeductionGuideNameEPNS_12TemplateDeclE
libclangAST.so.8:_ZN5clang20DeclarationNameTable25getCXXLiteralOperatorNameEPNS_14IdentifierInfoE
libclangAST.so.8:_ZN5clang20DeclarationNameTable28getCXXConversionFunctionNameENS_7CanQualINS_4TypeEEE
libclangAST.so.8:_ZN5clang20DeclarationNameTableC1ERKNS_10ASTContextE
libclangAST.so.8:_ZN5clang20DeclarationNameTableC2ERKNS_10ASTContextE
libclangAST.so.8:_ZN5clang20DependentNameTypeLoc15initializeLocalERNS_10ASTContextENS_14SourceLocationE
libclangAST.so.8:_ZN5clang20FunctionParmPackExpr11CreateEmptyERKNS_10ASTContextEj
libclangAST.so.8:_ZN5clang20FunctionParmPackExpr6CreateERKNS_10ASTContextENS_8QualTypeEPNS_11ParmVarDeclENS_14SourceLocationEN4llvm8ArrayRefIS6_EE
libclangAST.so.8:_ZN5clang20FunctionParmPackExprC1ENS_8QualTypeEPNS_11ParmVarDeclENS_14SourceLocationEjPKS3_
libclangAST.so.8:_ZN5clang20FunctionParmPackExprC2ENS_8QualTypeEPNS_11ParmVarDeclENS_14SourceLocationEjPKS3_
libclangAST.so.8:_ZN5clang20FunctionTemplateDecl13mergePrevDeclEPS0_
libclangAST.so.8:_ZN5clang20FunctionTemplateDecl17addSpecializationEPNS_34FunctionTemplateSpecializationInfoEPv
libclangAST.so.8:_ZN5clang20FunctionTemplateDecl18CreateDeserializedERNS_10ASTContextEj
libclangAST.so.8:_ZN5clang20FunctionTemplateDecl18findSpecializationEN4llvm8ArrayRefINS_16TemplateArgumentEEERPv
libclangAST.so.8:_ZN5clang20FunctionTemplateDecl23getInjectedTemplateArgsEv
libclangAST.so.8:_ZN5clang20FunctionTemplateDecl6CreateERNS_10ASTContextEPNS_11DeclContextENS_14SourceLocationENS_15DeclarationNameEPNS_21TemplateParameterListEPNS_9NamedDeclE
libclangAST.so.8:_ZN5clang20GenericSelectionExprC1ERKNS_10ASTContextENS_14SourceLocationEPNS_4ExprEN4llvm8ArrayRefIPNS_14TypeSourceInfoEEENS8_IS6_EES4_S4_b
libclangAST.so.8:_ZN5clang20GenericSelectionExprC1ERKNS_10ASTContextENS_14SourceLocationEPNS_4ExprEN4llvm8ArrayRefIPNS_14TypeSourceInfoEEENS8_IS6_EES4_S4_bj
libclangAST.so.8:_ZN5clang20GenericSelectionExprC2ERKNS_10ASTContextENS_14SourceLocationEPNS_4ExprEN4llvm8ArrayRefIPNS_14TypeSourceInfoEEENS8_IS6_EES4_S4_b
libclangAST.so.8:_ZN5clang20GenericSelectionExprC2ERKNS_10ASTContextENS_14SourceLocationEPNS_4ExprEN4llvm8ArrayRefIPNS_14TypeSourceInfoEEENS8_IS6_EES4_S4_bj
libclangAST.so.8:_ZN5clang20ItaniumMangleContext6createERNS_10ASTContextERNS_17DiagnosticsEngineE
libclangAST.so.8:_ZN5clang20ItaniumVTableContext20getMethodVTableIndexENS_10GlobalDeclE
libclangAST.so.8:_ZN5clang20ItaniumVTableContext26getVirtualBaseOffsetOffsetEPKNS_13CXXRecordDeclES3_
libclangAST.so.8:_ZN5clang20ItaniumVTableContext30createConstructionVTableLayoutEPKNS_13CXXRecordDeclENS_9CharUnitsEbS3_
libclangAST.so.8:_ZN5clang20ItaniumVTableContext31computeVTableRelatedInformationEPKNS_13CXXRecordDeclE
libclangAST.so.8:_ZN5clang20ItaniumVTableContextC1ERNS_10ASTContextE
libclangAST.so.8:_ZN5clang20ItaniumVTableContextC2ERNS_10ASTContextE
libclangAST.so.8:_ZN5clang20ItaniumVTableContextD0Ev
libclangAST.so.8:_ZN5clang20ItaniumVTableContextD1Ev
libclangAST.so.8:_ZN5clang20ItaniumVTableContextD2Ev
libclangAST.so.8:_ZN5clang20OMPClauseWithPreInit3getEPKNS_9OMPClauseE
libclangAST.so.8:_ZN5clang20OMPClauseWithPreInit3getEPNS_9OMPClauseE
libclangAST.so.8:_ZN5clang20OMPCopyprivateClause11CreateEmptyERKNS_10ASTContextEj
libclangAST.so.8:_ZN5clang20OMPCopyprivateClause14setSourceExprsEN4llvm8ArrayRefIPNS_4ExprEEE
libclangAST.so.8:_ZN5clang20OMPCopyprivateClause16setAssignmentOpsEN4llvm8ArrayRefIPNS_4ExprEEE
libclangAST.so.8:_ZN5clang20OMPCopyprivateClause19setDestinationExprsEN4llvm8ArrayRefIPNS_4ExprEEE
libclangAST.so.8:_ZN5clang20OMPCopyprivateClause6CreateERKNS_10ASTContextENS_14SourceLocationES4_S4_N4llvm8ArrayRefIPNS_4ExprEEES9_S9_S9_
libclangAST.so.8:_ZN5clang20OMPCriticalDirective11CreateEmptyERKNS_10ASTContextEjNS_4Stmt10EmptyShellE
libclangAST.so.8:_ZN5clang20OMPCriticalDirective6CreateERKNS_10ASTContextERKNS_19DeclarationNameInfoENS_14SourceLocationES7_N4llvm8ArrayRefIPNS_9OMPClauseEEEPNS_4StmtE
libclangAST.so.8:_ZN5clang20OMPInReductionClause11CreateEmptyERKNS_10ASTContextEj
libclangAST.so.8:_ZN5clang20OMPInReductionClause11setLHSExprsEN4llvm8ArrayRefIPNS_4ExprEEE
libclangAST.so.8:_ZN5clang20OMPInReductionClause11setPrivatesEN4llvm8ArrayRefIPNS_4ExprEEE
libclangAST.so.8:_ZN5clang20OMPInReductionClause11setRHSExprsEN4llvm8ArrayRefIPNS_4ExprEEE
libclangAST.so.8:_ZN5clang20OMPInReductionClause15setReductionOpsEN4llvm8ArrayRefIPNS_4ExprEEE
libclangAST.so.8:_ZN5clang20OMPInReductionClause23setTaskgroupDescriptorsEN4llvm8ArrayRefIPNS_4ExprEEE
libclangAST.so.8:_ZN5clang20OMPInReductionClause6CreateERKNS_10ASTContextENS_14SourceLocationES4_S4_S4_N4llvm8ArrayRefIPNS_4ExprEEENS_22NestedNameSpecifierLocERKNS_19DeclarationNameInfoES9_S9_S9_S9_S9_PNS_4StmtES8_
libclangAST.so.8:_ZN5clang20OMPIsDevicePtrClause11CreateEmptyERKNS_10ASTContextEjjjj
libclangAST.so.8:_ZN5clang20OMPIsDevicePtrClause6CreateERKNS_10ASTContextENS_14SourceLocationES4_S4_N4llvm8ArrayRefIPNS_4ExprEEENS6_IPNS_9ValueDeclEEENS6_INS5_11SmallVectorINS_27OMPClauseMappableExprCommon17MappableComponentELj8EEEEE
libclangAST.so.8:_ZN5clang20OMPLastprivateClause11CreateEmptyERKNS_10ASTContextEj
libclangAST.so.8:_ZN5clang20OMPLastprivateClause14setSourceExprsEN4llvm8ArrayRefIPNS_4ExprEEE
libclangAST.so.8:_ZN5clang20OMPLastprivateClause16setAssignmentOpsEN4llvm8ArrayRefIPNS_4ExprEEE
libclangAST.so.8:_ZN5clang20OMPLastprivateClause16setPrivateCopiesEN4llvm8ArrayRefIPNS_4ExprEEE
libclangAST.so.8:_ZN5clang20OMPLastprivateClause19setDestinationExprsEN4llvm8ArrayRefIPNS_4ExprEEE
libclangAST.so.8:_ZN5clang20OMPLastprivateClause6CreateERKNS_10ASTContextENS_14SourceLocationES4_S4_N4llvm8ArrayRefIPNS_4ExprEEES9_S9_S9_PNS_4StmtES8_
libclangAST.so.8:_ZN5clang20OMPParallelDirective11CreateEmptyERKNS_10ASTContextEjNS_4Stmt10EmptyShellE
libclangAST.so.8:_ZN5clang20OMPParallelDirective6CreateERKNS_10ASTContextENS_14SourceLocationES4_N4llvm8ArrayRefIPNS_9OMPClauseEEEPNS_4StmtEb
libclangAST.so.8:_ZN5clang20OMPSectionsDirective11CreateEmptyERKNS_10ASTContextEjNS_4Stmt10EmptyShellE
libclangAST.so.8:_ZN5clang20OMPSectionsDirective6CreateERKNS_10ASTContextENS_14SourceLocationES4_N4llvm8ArrayRefIPNS_9OMPClauseEEEPNS_4StmtEb
libclangAST.so.8:_ZN5clang20OMPTaskLoopDirective11CreateEmptyERKNS_10ASTContextEjjNS_4Stmt10EmptyShellE
libclangAST.so.8:_ZN5clang20OMPTaskLoopDirective6CreateERKNS_10ASTContextENS_14SourceLocationES4_jN4llvm8ArrayRefIPNS_9OMPClauseEEEPNS_4StmtERKNS_16OMPLoopDirective11HelperExprsE
libclangAST.so.8:_ZN5clang20OMPTaskwaitDirective11CreateEmptyERKNS_10ASTContextENS_4Stmt10EmptyShellE
libclangAST.so.8:_ZN5clang20OMPTaskwaitDirective6CreateERKNS_10ASTContextENS_14SourceLocationES4_
libclangAST.so.8:_ZN5clang20OMPThreadPrivateDecl18CreateDeserializedERNS_10ASTContextEjj
libclangAST.so.8:_ZN5clang20OMPThreadPrivateDecl6CreateERNS_10ASTContextEPNS_11DeclContextENS_14SourceLocationEN4llvm8ArrayRefIPNS_4ExprEEE
libclangAST.so.8:_ZN5clang20OMPThreadPrivateDecl6anchorEv
libclangAST.so.8:_ZN5clang20OMPThreadPrivateDecl7setVarsEN4llvm8ArrayRefIPNS_4ExprEEE
libclangAST.so.8:_ZN5clang20ObjCCategoryImplDecl18CreateDeserializedERNS_10ASTContextEj
libclangAST.so.8:_ZN5clang20ObjCCategoryImplDecl6CreateERNS_10ASTContextEPNS_11DeclContextEPNS_14IdentifierInfoEPNS_17ObjCInterfaceDeclENS_14SourceLocationES9_S9_
libclangAST.so.8:_ZN5clang20ObjCCategoryImplDecl6anchorEv
libclangAST.so.8:_ZN5clang20ObjCPropertyImplDecl18CreateDeserializedERNS_10ASTContextEj
libclangAST.so.8:_ZN5clang20ObjCPropertyImplDecl6CreateERNS_10ASTContextEPNS_11DeclContextENS_14SourceLocationES5_PNS_16ObjCPropertyDeclENS0_4KindEPNS_12ObjCIvarDeclES5_
libclangAST.so.8:_ZN5clang20ObjCTypeParamTypeLoc15initializeLocalERNS_10ASTContextENS_14SourceLocationE
libclangAST.so.8:_ZN5clang20TemplateArgumentList10CreateCopyERNS_10ASTContextEN4llvm8ArrayRefINS_16TemplateArgumentEEE
libclangAST.so.8:_ZN5clang20TemplateArgumentListC1EN4llvm8ArrayRefINS_16TemplateArgumentEEE
libclangAST.so.8:_ZN5clang20TemplateArgumentListC2EN4llvm8ArrayRefINS_16TemplateArgumentEEE
libclangAST.so.8:_ZN5clang20TemplateTypeParmDecl18CreateDeserializedERKNS_10ASTContextEj
libclangAST.so.8:_ZN5clang20TemplateTypeParmDecl6CreateERKNS_10ASTContextEPNS_11DeclContextENS_14SourceLocationES6_jjPNS_14IdentifierInfoEbb
libclangAST.so.8:_ZN5clang20UnresolvedLookupExpr11CreateEmptyERKNS_10ASTContextEjbj
libclangAST.so.8:_ZN5clang20UnresolvedLookupExpr6CreateERKNS_10ASTContextEPNS_13CXXRecordDeclENS_22NestedNameSpecifierLocENS_14SourceLocationERKNS_19DeclarationNameInfoEbPKNS_24TemplateArgumentListInfoENS_21UnresolvedSetIteratorESE_
libclangAST.so.8:_ZN5clang20UnresolvedLookupExpr6CreateERKNS_10ASTContextEPNS_13CXXRecordDeclENS_22NestedNameSpecifierLocERKNS_19DeclarationNameInfoEbbNS_21UnresolvedSetIteratorESA_
libclangAST.so.8:_ZN5clang20UnresolvedLookupExprC1ENS_4Stmt10EmptyShellEjb
libclangAST.so.8:_ZN5clang20UnresolvedLookupExprC1ERKNS_10ASTContextEPNS_13CXXRecordDeclENS_22NestedNameSpecifierLocENS_14SourceLocationERKNS_19DeclarationNameInfoEbbPKNS_24TemplateArgumentListInfoENS_21UnresolvedSetIteratorESE_
libclangAST.so.8:_ZN5clang20UnresolvedLookupExprC2ENS_4Stmt10EmptyShellEjb
libclangAST.so.8:_ZN5clang20UnresolvedLookupExprC2ERKNS_10ASTContextEPNS_13CXXRecordDeclENS_22NestedNameSpecifierLocENS_14SourceLocationERKNS_19DeclarationNameInfoEbbPKNS_24TemplateArgumentListInfoENS_21UnresolvedSetIteratorESE_
libclangAST.so.8:_ZN5clang20UnresolvedMemberExpr11CreateEmptyERKNS_10ASTContextEjbj
libclangAST.so.8:_ZN5clang20UnresolvedMemberExpr14getNamingClassEv
libclangAST.so.8:_ZN5clang20UnresolvedMemberExpr6CreateERKNS_10ASTContextEbPNS_4ExprENS_8QualTypeEbNS_14SourceLocationENS_22NestedNameSpecifierLocES7_RKNS_19DeclarationNameInfoEPKNS_24TemplateArgumentListInfoENS_21UnresolvedSetIteratorESF_
libclangAST.so.8:_ZN5clang20UnresolvedMemberExprC1ENS_4Stmt10EmptyShellEjb
libclangAST.so.8:_ZN5clang20UnresolvedMemberExprC1ERKNS_10ASTContextEbPNS_4ExprENS_8QualTypeEbNS_14SourceLocationENS_22NestedNameSpecifierLocES7_RKNS_19DeclarationNameInfoEPKNS_24TemplateArgumentListInfoENS_21UnresolvedSetIteratorESF_
libclangAST.so.8:_ZN5clang20UnresolvedMemberExprC2ENS_4Stmt10EmptyShellEjb
libclangAST.so.8:_ZN5clang20UnresolvedMemberExprC2ERKNS_10ASTContextEbPNS_4ExprENS_8QualTypeEbNS_14SourceLocationENS_22NestedNameSpecifierLocES7_RKNS_19DeclarationNameInfoEPKNS_24TemplateArgumentListInfoENS_21UnresolvedSetIteratorESF_
libclangAST.so.8:_ZN5clang20getPrimaryMergedDeclEPNS_4DeclE
libclangAST.so.8:_ZN5clang21CXXDeductionGuideDecl18CreateDeserializedERNS_10ASTContextEj
libclangAST.so.8:_ZN5clang21CXXDeductionGuideDecl6CreateERNS_10ASTContextEPNS_11DeclContextENS_14SourceLocationEbRKNS_19DeclarationNameInfoENS_8QualTypeEPNS_14TypeSourceInfoES5_
libclangAST.so.8:_ZN5clang21CXXDeductionGuideDecl6anchorEv
libclangAST.so.8:_ZN5clang21CXXFunctionalCastExpr11CreateEmptyERKNS_10ASTContextEj
libclangAST.so.8:_ZN5clang21CXXFunctionalCastExpr6CreateERKNS_10ASTContextENS_8QualTypeENS_13ExprValueKindEPNS_14TypeSourceInfoENS_8CastKindEPNS_4ExprEPKN4llvm11SmallVectorIPNS_16CXXBaseSpecifierELj4EEENS_14SourceLocationESI_
libclangAST.so.8:_ZN5clang21CreateMicrosoftCXXABIERNS_10ASTContextE
libclangAST.so.8:_ZN5clang21DependentDecltypeType7ProfileERN4llvm16FoldingSetNodeIDERKNS_10ASTContextEPNS_4ExprE
libclangAST.so.8:_ZN5clang21DependentDecltypeTypeC1ERKNS_10ASTContextEPNS_4ExprE
libclangAST.so.8:_ZN5clang21DependentDecltypeTypeC2ERKNS_10ASTContextEPNS_4ExprE
libclangAST.so.8:_ZN5clang21OMPFirstprivateClause11CreateEmptyERKNS_10ASTContextEj
libclangAST.so.8:_ZN5clang21OMPFirstprivateClause16setPrivateCopiesEN4llvm8ArrayRefIPNS_4ExprEEE
libclangAST.so.8:_ZN5clang21OMPFirstprivateClause6CreateERKNS_10ASTContextENS_14SourceLocationES4_S4_N4llvm8ArrayRefIPNS_4ExprEEES9_S9_PNS_4StmtE
libclangAST.so.8:_ZN5clang21OMPFirstprivateClause8setInitsEN4llvm8ArrayRefIPNS_4ExprEEE
libclangAST.so.8:_ZN5clang21OMPTaskgroupDirective11CreateEmptyERKNS_10ASTContextEjNS_4Stmt10EmptyShellE
libclangAST.so.8:_ZN5clang21OMPTaskgroupDirective6CreateERKNS_10ASTContextENS_14SourceLocationES4_N4llvm8ArrayRefIPNS_9OMPClauseEEEPNS_4StmtEPNS_4ExprE
libclangAST.so.8:_ZN5clang21OMPTaskyieldDirective11CreateEmptyERKNS_10ASTContextENS_4Stmt10EmptyShellE
libclangAST.so.8:_ZN5clang21OMPTaskyieldDirective6CreateERKNS_10ASTContextENS_14SourceLocationES4_
libclangAST.so.8:_ZN5clang21OMPUseDevicePtrClause11CreateEmptyERKNS_10ASTContextEjjjj
libclangAST.so.8:_ZN5clang21OMPUseDevicePtrClause16setPrivateCopiesEN4llvm8ArrayRefIPNS_4ExprEEE
libclangAST.so.8:_ZN5clang21OMPUseDevicePtrClause6CreateERKNS_10ASTContextENS_14SourceLocationES4_S4_N4llvm8ArrayRefIPNS_4ExprEEES9_S9_NS6_IPNS_9ValueDeclEEENS6_INS5_11SmallVectorINS_27OMPClauseMappableExprCommon17MappableComponentELj8EEEEE
libclangAST.so.8:_ZN5clang21OMPUseDevicePtrClause8setInitsEN4llvm8ArrayRefIPNS_4ExprEEE
libclangAST.so.8:_ZN5clang21ObjCDictionaryLiteral11CreateEmptyERKNS_10ASTContextEjb
libclangAST.so.8:_ZN5clang21ObjCDictionaryLiteral6CreateERKNS_10ASTContextEN4llvm8ArrayRefINS_21ObjCDictionaryElementEEEbNS_8QualTypeEPNS_14ObjCMethodDeclENS_11SourceRangeE
libclangAST.so.8:_ZN5clang21ObjCDictionaryLiteralC1EN4llvm8ArrayRefINS_21ObjCDictionaryElementEEEbNS_8QualTypeEPNS_14ObjCMethodDeclENS_11SourceRangeE
libclangAST.so.8:_ZN5clang21ObjCDictionaryLiteralC2EN4llvm8ArrayRefINS_21ObjCDictionaryElementEEEbNS_8QualTypeEPNS_14ObjCMethodDeclENS_11SourceRangeE
libclangAST.so.8:_ZN5clang21ObjCForCollectionStmtC1EPNS_4StmtEPNS_4ExprES2_NS_14SourceLocationES5_
libclangAST.so.8:_ZN5clang21ObjCForCollectionStmtC2EPNS_4StmtEPNS_4ExprES2_NS_14SourceLocationES5_
libclangAST.so.8:_ZN5clang21TemplateParameterList6CreateERKNS_10ASTContextENS_14SourceLocationES4_N4llvm8ArrayRefIPNS_9NamedDeclEEES4_PNS_4ExprE
libclangAST.so.8:_ZN5clang21TemplateParameterListC1ENS_14SourceLocationES1_N4llvm8ArrayRefIPNS_9NamedDeclEEES1_PNS_4ExprE
libclangAST.so.8:_ZN5clang21TemplateParameterListC2ENS_14SourceLocationES1_N4llvm8ArrayRefIPNS_9NamedDeclEEES1_PNS_4ExprE
libclangAST.so.8:_ZN5clang21TypeAliasTemplateDecl18CreateDeserializedERNS_10ASTContextEj
libclangAST.so.8:_ZN5clang21TypeAliasTemplateDecl6CreateERNS_10ASTContextEPNS_11DeclContextENS_14SourceLocationENS_15DeclarationNameEPNS_21TemplateParameterListEPNS_9NamedDeclE
libclangAST.so.8:_ZN5clang21UnaryTransformTypeLoc15initializeLocalERNS_10ASTContextENS_14SourceLocationE
libclangAST.so.8:_ZN5clang21analyze_format_string11ParseAmountERPKcS2_
libclangAST.so.8:_ZN5clang21analyze_format_string15FormatSpecifier25namedTypeToLengthModifierENS_8QualTypeERNS0_14LengthModifierE
libclangAST.so.8:_ZN5clang21analyze_format_string15ParseFieldWidthERNS0_19FormatStringHandlerERNS0_15FormatSpecifierEPKcRS6_S6_Pj
libclangAST.so.8:_ZN5clang21analyze_format_string16ParseArgPositionERNS0_19FormatStringHandlerERNS0_15FormatSpecifierEPKcRS6_S6_
libclangAST.so.8:_ZN5clang21analyze_format_string16ParseScanfStringERNS0_19FormatStringHandlerEPKcS4_RKNS_11LangOptionsERKNS_10TargetInfoE
libclangAST.so.8:_ZN5clang21analyze_format_string17ParsePrintfStringERNS0_19FormatStringHandlerEPKcS4_RKNS_11LangOptionsERKNS_10TargetInfoEb
libclangAST.so.8:_ZN5clang21analyze_format_string19FormatStringHandlerD0Ev
libclangAST.so.8:_ZN5clang21analyze_format_string19FormatStringHandlerD1Ev
libclangAST.so.8:_ZN5clang21analyze_format_string19FormatStringHandlerD2Ev
libclangAST.so.8:_ZN5clang21analyze_format_string19ParseLengthModifierERNS0_15FormatSpecifierERPKcS4_RKNS_11LangOptionsEb
libclangAST.so.8:_ZN5clang21analyze_format_string19ParsePositionAmountERNS0_19FormatStringHandlerEPKcRS4_S4_NS0_15PositionContextE
libclangAST.so.8:_ZN5clang21analyze_format_string19ParseVectorModifierERNS0_19FormatStringHandlerERNS0_15FormatSpecifierERPKcS6_RKNS_11LangOptionsE
libclangAST.so.8:_ZN5clang21analyze_format_string22ParseNonPositionAmountERPKcS2_Rj
libclangAST.so.8:_ZN5clang21analyze_format_string24ParseFormatStringHasSArgEPKcS2_RKNS_11LangOptionsERKNS_10TargetInfoE
libclangAST.so.8:_ZN5clang21analyze_format_string25ParseUTF8InvalidSpecifierEPKcS2_Rj
libclangAST.so.8:_ZN5clang22ASTImporterLookupTable3addEPNS_11DeclContextEPNS_9NamedDeclE
libclangAST.so.8:_ZN5clang22ASTImporterLookupTable3addEPNS_9NamedDeclE
libclangAST.so.8:_ZN5clang22ASTImporterLookupTable6removeEPNS_11DeclContextEPNS_9NamedDeclE
libclangAST.so.8:_ZN5clang22ASTImporterLookupTable6removeEPNS_9NamedDeclE
libclangAST.so.8:_ZN5clang22ASTImporterLookupTableC1ERNS_19TranslationUnitDeclE
libclangAST.so.8:_ZN5clang22ASTImporterLookupTableC2ERNS_19TranslationUnitDeclE
libclangAST.so.8:_ZN5clang22CXXReinterpretCastExpr11CreateEmptyERKNS_10ASTContextEj
libclangAST.so.8:_ZN5clang22CXXReinterpretCastExpr6CreateERKNS_10ASTContextENS_8QualTypeENS_13ExprValueKindENS_8CastKindEPNS_4ExprEPKN4llvm11SmallVectorIPNS_16CXXBaseSpecifierELj4EEEPNS_14TypeSourceInfoENS_14SourceLocationESI_NS_11SourceRangeE
libclangAST.so.8:_ZN5clang22CXXTemporaryObjectExpr11CreateEmptyERKNS_10ASTContextEj
libclangAST.so.8:_ZN5clang22CXXTemporaryObjectExpr6CreateERKNS_10ASTContextEPNS_18CXXConstructorDeclENS_8QualTypeEPNS_14TypeSourceInfoEN4llvm8ArrayRefIPNS_4ExprEEENS_11SourceRangeEbbbb
libclangAST.so.8:_ZN5clang22CXXTemporaryObjectExprC1ENS_4Stmt10EmptyShellEj
libclangAST.so.8:_ZN5clang22CXXTemporaryObjectExprC1EPNS_18CXXConstructorDeclENS_8QualTypeEPNS_14TypeSourceInfoEN4llvm8ArrayRefIPNS_4ExprEEENS_11SourceRangeEbbbb
libclangAST.so.8:_ZN5clang22CXXTemporaryObjectExprC2ENS_4Stmt10EmptyShellEj
libclangAST.so.8:_ZN5clang22CXXTemporaryObjectExprC2EPNS_18CXXConstructorDeclENS_8QualTypeEPNS_14TypeSourceInfoEN4llvm8ArrayRefIPNS_4ExprEEENS_11SourceRangeEbbbb
libclangAST.so.8:_ZN5clang22MicrosoftMangleContext6createERNS_10ASTContextERNS_17DiagnosticsEngineE
libclangAST.so.8:_ZN5clang22MicrosoftVTableContext15getVBTableIndexEPKNS_13CXXRecordDeclES3_
libclangAST.so.8:_ZN5clang22MicrosoftVTableContext15getVFPtrOffsetsEPKNS_13CXXRecordDeclE
libclangAST.so.8:_ZN5clang22MicrosoftVTableContext16getVFTableLayoutEPKNS_13CXXRecordDeclENS_9CharUnitsE
libclangAST.so.8:_ZN5clang22MicrosoftVTableContext17enumerateVBTablesEPKNS_13CXXRecordDeclE
libclangAST.so.8:_ZN5clang22MicrosoftVTableContext18computeVTablePathsEbPKNS_13CXXRecordDeclERN4llvm11SmallVectorISt10unique_ptrINS_8VPtrInfoESt14default_deleteIS7_EELj2EEE
libclangAST.so.8:_ZN5clang22MicrosoftVTableContext19dumpMethodLocationsEPKNS_13CXXRecordDeclERKN4llvm8DenseMapINS_10GlobalDeclENS_21MethodVFTableLocationENS4_12DenseMapInfoIS6_EENS4_6detail12DenseMapPairIS6_S7_EEEERNS4_11raw_ostreamE
libclangAST.so.8:_ZN5clang22MicrosoftVTableContext24getMethodVFTableLocationENS_10GlobalDeclE
libclangAST.so.8:_ZN5clang22MicrosoftVTableContext31computeVTableRelatedInformationEPKNS_13CXXRecordDeclE
libclangAST.so.8:_ZN5clang22MicrosoftVTableContext32computeVBTableRelatedInformationEPKNS_13CXXRecordDeclE
libclangAST.so.8:_ZN5clang22MicrosoftVTableContextD0Ev
libclangAST.so.8:_ZN5clang22MicrosoftVTableContextD1Ev
libclangAST.so.8:_ZN5clang22MicrosoftVTableContextD2Ev
libclangAST.so.8:_ZN5clang22NestedNameSpecifierLoc13getDataLengthEPNS_19NestedNameSpecifierE
libclangAST.so.8:_ZN5clang22NestedNameSpecifierLoc18getLocalDataLengthEPNS_19NestedNameSpecifierE
libclangAST.so.8:_ZN5clang22OMPDistributeDirective11CreateEmptyERKNS_10ASTContextEjjNS_4Stmt10EmptyShellE
libclangAST.so.8:_ZN5clang22OMPDistributeDirective6CreateERKNS_10ASTContextENS_14SourceLocationES4_jN4llvm8ArrayRefIPNS_9OMPClauseEEEPNS_4StmtERKNS_16OMPLoopDirective11HelperExprsE
libclangAST.so.8:_ZN5clang22OMPExecutableDirective10setClausesEN4llvm8ArrayRefIPNS_9OMPClauseEEE
libclangAST.so.8:_ZN5clang22OMPTargetDataDirective11CreateEmptyERKNS_10ASTContextEjNS_4Stmt10EmptyShellE
libclangAST.so.8:_ZN5clang22OMPTargetDataDirective6CreateERKNS_10ASTContextENS_14SourceLocationES4_N4llvm8ArrayRefIPNS_9OMPClauseEEEPNS_4StmtE
libclangAST.so.8:_ZN5clang22OMPTargetSimdDirective11CreateEmptyERKNS_10ASTContextEjjNS_4Stmt10EmptyShellE
libclangAST.so.8:_ZN5clang22OMPTargetSimdDirective6CreateERKNS_10ASTContextENS_14SourceLocationES4_jN4llvm8ArrayRefIPNS_9OMPClauseEEEPNS_4StmtERKNS_16OMPLoopDirective11HelperExprsE
libclangAST.so.8:_ZN5clang22OMPTaskReductionClause11CreateEmptyERKNS_10ASTContextEj
libclangAST.so.8:_ZN5clang22OMPTaskReductionClause11setLHSExprsEN4llvm8ArrayRefIPNS_4ExprEEE
libclangAST.so.8:_ZN5clang22OMPTaskReductionClause11setPrivatesEN4llvm8ArrayRefIPNS_4ExprEEE
libclangAST.so.8:_ZN5clang22OMPTaskReductionClause11setRHSExprsEN4llvm8ArrayRefIPNS_4ExprEEE
libclangAST.so.8:_ZN5clang22OMPTaskReductionClause15setReductionOpsEN4llvm8ArrayRefIPNS_4ExprEEE
libclangAST.so.8:_ZN5clang22OMPTaskReductionClause6CreateERKNS_10ASTContextENS_14SourceLocationES4_S4_S4_N4llvm8ArrayRefIPNS_4ExprEEENS_22NestedNameSpecifierLocERKNS_19DeclarationNameInfoES9_S9_S9_S9_PNS_4StmtES8_
libclangAST.so.8:_ZN5clang22ObjCImplementationDecl18CreateDeserializedERNS_10ASTContextEj
libclangAST.so.8:_ZN5clang22ObjCImplementationDecl19setIvarInitializersERNS_10ASTContextEPPNS_18CXXCtorInitializerEj
libclangAST.so.8:_ZN5clang22ObjCImplementationDecl6CreateERNS_10ASTContextEPNS_11DeclContextEPNS_17ObjCInterfaceDeclES6_NS_14SourceLocationES7_S7_S7_S7_
libclangAST.so.8:_ZN5clang22ObjCImplementationDecl6anchorEv
libclangAST.so.8:_ZN5clang22getStandardSelectorLocEjNS_8SelectorEbN4llvm8ArrayRefIPNS_11ParmVarDeclEEENS_14SourceLocationE
libclangAST.so.8:_ZN5clang22getStandardSelectorLocEjNS_8SelectorEbN4llvm8ArrayRefIPNS_4ExprEEENS_14SourceLocationE
libclangAST.so.8:_ZN5clang23CXXPseudoDestructorExprC1ERKNS_10ASTContextEPNS_4ExprEbNS_14SourceLocationENS_22NestedNameSpecifierLocEPNS_14TypeSourceInfoES6_S6_NS_27PseudoDestructorTypeStorageE
libclangAST.so.8:_ZN5clang23CXXPseudoDestructorExprC2ERKNS_10ASTContextEPNS_4ExprEbNS_14SourceLocationENS_22NestedNameSpecifierLocEPNS_14TypeSourceInfoES6_S6_NS_27PseudoDestructorTypeStorageE
libclangAST.so.8:_ZN5clang23DependentSizedArrayType7ProfileERN4llvm16FoldingSetNodeIDERKNS_10ASTContextENS_8QualTypeENS_9ArrayType17ArraySizeModifierEjPNS_4ExprE
libclangAST.so.8:_ZN5clang23DependentSizedArrayTypeC1ERKNS_10ASTContextENS_8QualTypeES4_PNS_4ExprENS_9ArrayType17ArraySizeModifierEjNS_11SourceRangeE
libclangAST.so.8:_ZN5clang23DependentSizedArrayTypeC2ERKNS_10ASTContextENS_8QualTypeES4_PNS_4ExprENS_9ArrayType17ArraySizeModifierEjNS_11SourceRangeE
libclangAST.so.8:_ZN5clang23DependentTypeOfExprType7ProfileERN4llvm16FoldingSetNodeIDERKNS_10ASTContextEPNS_4ExprE
libclangAST.so.8:_ZN5clang23FixedPointValueToStringERN4llvm15SmallVectorImplIcEENS0_6APSIntEj
libclangAST.so.8:_ZN5clang23NonTypeTemplateParmDecl18CreateDeserializedERNS_10ASTContextEj
libclangAST.so.8:_ZN5clang23NonTypeTemplateParmDecl18CreateDeserializedERNS_10ASTContextEjj
libclangAST.so.8:_ZN5clang23NonTypeTemplateParmDecl6CreateERKNS_10ASTContextEPNS_11DeclContextENS_14SourceLocationES6_jjPNS_14IdentifierInfoENS_8QualTypeEPNS_14TypeSourceInfoEN4llvm8ArrayRefIS9_EENSD_ISB_EE
libclangAST.so.8:_ZN5clang23NonTypeTemplateParmDecl6CreateERKNS_10ASTContextEPNS_11DeclContextENS_14SourceLocationES6_jjPNS_14IdentifierInfoENS_8QualTypeEbPNS_14TypeSourceInfoE
libclangAST.so.8:_ZN5clang23NonTypeTemplateParmDeclC1EPNS_11DeclContextENS_14SourceLocationES3_jjPNS_14IdentifierInfoENS_8QualTypeEPNS_14TypeSourceInfoEN4llvm8ArrayRefIS6_EENSA_IS8_EE
libclangAST.so.8:_ZN5clang23NonTypeTemplateParmDeclC2EPNS_11DeclContextENS_14SourceLocationES3_jjPNS_14IdentifierInfoENS_8QualTypeEPNS_14TypeSourceInfoEN4llvm8ArrayRefIS6_EENSA_IS8_EE
libclangAST.so.8:_ZN5clang23OMPClauseWithPostUpdate3getEPKNS_9OMPClauseE
libclangAST.so.8:_ZN5clang23OMPClauseWithPostUpdate3getEPNS_9OMPClauseE
libclangAST.so.8:_ZN5clang23OMPDeclareReductionDecl18CreateDeserializedERNS_10ASTContextEj
libclangAST.so.8:_ZN5clang23OMPDeclareReductionDecl18getPrevDeclInScopeEv
libclangAST.so.8:_ZN5clang23OMPDeclareReductionDecl6CreateERNS_10ASTContextEPNS_11DeclContextENS_14SourceLocationENS_15DeclarationNameENS_8QualTypeEPS0_
libclangAST.so.8:_ZN5clang23OMPDeclareReductionDecl6anchorEv
libclangAST.so.8:_ZN5clang23OMPDeclareReductionDeclC1ENS_4Decl4KindEPNS_11DeclContextENS_14SourceLocationENS_15DeclarationNameENS_8QualTypeEPS0_
libclangAST.so.8:_ZN5clang23OMPDeclareReductionDeclC2ENS_4Decl4KindEPNS_11DeclContextENS_14SourceLocationENS_15DeclarationNameENS_8QualTypeEPS0_
libclangAST.so.8:_ZN5clang23OMPParallelForDirective11CreateEmptyERKNS_10ASTContextEjjNS_4Stmt10EmptyShellE
libclangAST.so.8:_ZN5clang23OMPParallelForDirective6CreateERKNS_10ASTContextENS_14SourceLocationES4_jN4llvm8ArrayRefIPNS_9OMPClauseEEEPNS_4StmtERKNS_16OMPLoopDirective11HelperExprsEb
libclangAST.so.8:_ZN5clang23OMPTargetTeamsDirective11CreateEmptyERKNS_10ASTContextEjNS_4Stmt10EmptyShellE
libclangAST.so.8:_ZN5clang23OMPTargetTeamsDirective6CreateERKNS_10ASTContextENS_14SourceLocationES4_N4llvm8ArrayRefIPNS_9OMPClauseEEEPNS_4StmtE
libclangAST.so.8:_ZN5clang23ObjCCompatibleAliasDecl18CreateDeserializedERNS_10ASTContextEj
libclangAST.so.8:_ZN5clang23ObjCCompatibleAliasDecl6CreateERNS_10ASTContextEPNS_11DeclContextENS_14SourceLocationEPNS_14IdentifierInfoEPNS_17ObjCInterfaceDeclE
libclangAST.so.8:_ZN5clang23ObjCCompatibleAliasDecl6anchorEv
libclangAST.so.8:_ZN5clang23getParameterABISpellingENS_12ParameterABIE
libclangAST.so.8:_ZN5clang23hasStandardSelectorLocsENS_8SelectorEN4llvm8ArrayRefINS_14SourceLocationEEENS2_IPNS_11ParmVarDeclEEES3_
libclangAST.so.8:_ZN5clang23hasStandardSelectorLocsENS_8SelectorEN4llvm8ArrayRefINS_14SourceLocationEEENS2_IPNS_4ExprEEES3_
libclangAST.so.8:_ZN5clang24ASTTemplateKWAndArgsInfo14initializeFromENS_14SourceLocationE
libclangAST.so.8:_ZN5clang24ASTTemplateKWAndArgsInfo14initializeFromENS_14SourceLocationERKNS_24TemplateArgumentListInfoEPNS_19TemplateArgumentLocE
libclangAST.so.8:_ZN5clang24ASTTemplateKWAndArgsInfo14initializeFromENS_14SourceLocationERKNS_24TemplateArgumentListInfoEPNS_19TemplateArgumentLocERbS7_S7_
libclangAST.so.8:_ZN5clang24DesignatedInitUpdateExprC1ERKNS_10ASTContextENS_14SourceLocationEPNS_4ExprES4_
libclangAST.so.8:_ZN5clang24DesignatedInitUpdateExprC2ERKNS_10ASTContextENS_14SourceLocationEPNS_4ExprES4_
libclangAST.so.8:_ZN5clang24MaterializeTemporaryExpr16setExtendingDeclEPKNS_9ValueDeclEj
libclangAST.so.8:_ZN5clang24OMPTargetUpdateDirective11CreateEmptyERKNS_10ASTContextEjNS_4Stmt10EmptyShellE
libclangAST.so.8:_ZN5clang24OMPTargetUpdateDirective6CreateERKNS_10ASTContextENS_14SourceLocationES4_N4llvm8ArrayRefIPNS_9OMPClauseEEEPNS_4StmtE
libclangAST.so.8:_ZN5clang24OMPTaskLoopSimdDirective11CreateEmptyERKNS_10ASTContextEjjNS_4Stmt10EmptyShellE
libclangAST.so.8:_ZN5clang24OMPTaskLoopSimdDirective6CreateERKNS_10ASTContextENS_14SourceLocationES4_jN4llvm8ArrayRefIPNS_9OMPClauseEEEPNS_4StmtERKNS_16OMPLoopDirective11HelperExprsE
libclangAST.so.8:_ZN5clang24PragmaDetectMismatchDecl18CreateDeserializedERNS_10ASTContextEjj
libclangAST.so.8:_ZN5clang24PragmaDetectMismatchDecl6CreateERKNS_10ASTContextEPNS_19TranslationUnitDeclENS_14SourceLocationEN4llvm9StringRefES8_
libclangAST.so.8:_ZN5clang24PragmaDetectMismatchDecl6anchorEv
libclangAST.so.8:_ZN5clang24RedeclarableTemplateDecl6anchorEv
libclangAST.so.8:_ZN5clang24TemplateTemplateParmDecl18CreateDeserializedERNS_10ASTContextEj
libclangAST.so.8:_ZN5clang24TemplateTemplateParmDecl18CreateDeserializedERNS_10ASTContextEjj
libclangAST.so.8:_ZN5clang24TemplateTemplateParmDecl18setDefaultArgumentERKNS_10ASTContextERKNS_19TemplateArgumentLocE
libclangAST.so.8:_ZN5clang24TemplateTemplateParmDecl6CreateERKNS_10ASTContextEPNS_11DeclContextENS_14SourceLocationEjjPNS_14IdentifierInfoEPNS_21TemplateParameterListEN4llvm8ArrayRefISA_EE
libclangAST.so.8:_ZN5clang24TemplateTemplateParmDecl6CreateERKNS_10ASTContextEPNS_11DeclContextENS_14SourceLocationEjjbPNS_14IdentifierInfoEPNS_21TemplateParameterListE
libclangAST.so.8:_ZN5clang24TemplateTemplateParmDecl6anchorEv
libclangAST.so.8:_ZN5clang24TemplateTemplateParmDeclC1EPNS_11DeclContextENS_14SourceLocationEjjPNS_14IdentifierInfoEPNS_21TemplateParameterListEN4llvm8ArrayRefIS7_EE
libclangAST.so.8:_ZN5clang24TemplateTemplateParmDeclC2EPNS_11DeclContextENS_14SourceLocationEjjPNS_14IdentifierInfoEPNS_21TemplateParameterListEN4llvm8ArrayRefIS7_EE
libclangAST.so.8:_ZN5clang24UnaryExprOrTypeTraitExpr8childrenEv
libclangAST.so.8:_ZN5clang24UnaryExprOrTypeTraitExprC1ENS_20UnaryExprOrTypeTraitEPNS_4ExprENS_8QualTypeENS_14SourceLocationES5_
libclangAST.so.8:_ZN5clang24UnaryExprOrTypeTraitExprC2ENS_20UnaryExprOrTypeTraitEPNS_4ExprENS_8QualTypeENS_14SourceLocationES5_
libclangAST.so.8:_ZN5clang24UnresolvedUsingValueDecl18CreateDeserializedERNS_10ASTContextEj
libclangAST.so.8:_ZN5clang24UnresolvedUsingValueDecl6CreateERNS_10ASTContextEPNS_11DeclContextENS_14SourceLocationENS_22NestedNameSpecifierLocERKNS_19DeclarationNameInfoES5_
libclangAST.so.8:_ZN5clang24UnresolvedUsingValueDecl6anchorEv
libclangAST.so.8:_ZN5clang25DependentAddressSpaceType7ProfileERN4llvm16FoldingSetNodeIDERKNS_10ASTContextENS_8QualTypeEPNS_4ExprE
libclangAST.so.8:_ZN5clang25DependentAddressSpaceTypeC1ERKNS_10ASTContextENS_8QualTypeES4_PNS_4ExprENS_14SourceLocationE
libclangAST.so.8:_ZN5clang25DependentAddressSpaceTypeC2ERKNS_10ASTContextENS_8QualTypeES4_PNS_4ExprENS_14SourceLocationE
libclangAST.so.8:_ZN5clang25DependentScopeDeclRefExpr11CreateEmptyERKNS_10ASTContextEbj
libclangAST.so.8:_ZN5clang25DependentScopeDeclRefExpr6CreateERKNS_10ASTContextENS_22NestedNameSpecifierLocENS_14SourceLocationERKNS_19DeclarationNameInfoEPKNS_24TemplateArgumentListInfoE
libclangAST.so.8:_ZN5clang25DependentScopeDeclRefExprC1ENS_8QualTypeENS_22NestedNameSpecifierLocENS_14SourceLocationERKNS_19DeclarationNameInfoEPKNS_24TemplateArgumentListInfoE
libclangAST.so.8:_ZN5clang25DependentScopeDeclRefExprC2ENS_8QualTypeENS_22NestedNameSpecifierLocENS_14SourceLocationERKNS_19DeclarationNameInfoEPKNS_24TemplateArgumentListInfoE
libclangAST.so.8:_ZN5clang25printTemplateArgumentListERN4llvm11raw_ostreamENS0_8ArrayRefINS_16TemplateArgumentEEERKNS_14PrintingPolicyE
libclangAST.so.8:_ZN5clang25printTemplateArgumentListERN4llvm11raw_ostreamENS0_8ArrayRefINS_19TemplateArgumentLocEEERKNS_14PrintingPolicyE
libclangAST.so.8:_ZN5clang25printTemplateArgumentListERN4llvm11raw_ostreamERKNS_24TemplateArgumentListInfoERKNS_14PrintingPolicyE
libclangAST.so.8:_ZN5clang26CXXUnresolvedConstructExpr11CreateEmptyERKNS_10ASTContextEj
libclangAST.so.8:_ZN5clang26CXXUnresolvedConstructExpr6CreateERKNS_10ASTContextEPNS_14TypeSourceInfoENS_14SourceLocationEN4llvm8ArrayRefIPNS_4ExprEEES6_
libclangAST.so.8:_ZN5clang26CXXUnresolvedConstructExprC1EPNS_14TypeSourceInfoENS_14SourceLocationEN4llvm8ArrayRefIPNS_4ExprEEES3_
libclangAST.so.8:_ZN5clang26CXXUnresolvedConstructExprC2EPNS_14TypeSourceInfoENS_14SourceLocationEN4llvm8ArrayRefIPNS_4ExprEEES3_
libclangAST.so.8:_ZN5clang26ConstructorUsingShadowDecl18CreateDeserializedERNS_10ASTContextEj
libclangAST.so.8:_ZN5clang26ConstructorUsingShadowDecl6CreateERNS_10ASTContextEPNS_11DeclContextENS_14SourceLocationEPNS_9UsingDeclEPNS_9NamedDeclEb
libclangAST.so.8:_ZN5clang26ConstructorUsingShadowDecl6anchorEv
libclangAST.so.8:_ZN5clang26OMPDistributeSimdDirective11CreateEmptyERKNS_10ASTContextEjjNS_4Stmt10EmptyShellE
libclangAST.so.8:_ZN5clang26OMPDistributeSimdDirective6CreateERKNS_10ASTContextENS_14SourceLocationES4_jN4llvm8ArrayRefIPNS_9OMPClauseEEEPNS_4StmtERKNS_16OMPLoopDirective11HelperExprsE
libclangAST.so.8:_ZN5clang26OMPTargetExitDataDirective11CreateEmptyERKNS_10ASTContextEjNS_4Stmt10EmptyShellE
libclangAST.so.8:_ZN5clang26OMPTargetExitDataDirective6CreateERKNS_10ASTContextENS_14SourceLocationES4_N4llvm8ArrayRefIPNS_9OMPClauseEEEPNS_4StmtE
libclangAST.so.8:_ZN5clang26OMPTargetParallelDirective11CreateEmptyERKNS_10ASTContextEjNS_4Stmt10EmptyShellE
libclangAST.so.8:_ZN5clang26OMPTargetParallelDirective6CreateERKNS_10ASTContextENS_14SourceLocationES4_N4llvm8ArrayRefIPNS_9OMPClauseEEEPNS_4StmtE
libclangAST.so.8:_ZN5clang26TemplateSpecializationType29anyDependentTemplateArgumentsEN4llvm8ArrayRefINS_19TemplateArgumentLocEEERb
libclangAST.so.8:_ZN5clang26TemplateSpecializationType29anyDependentTemplateArgumentsERKNS_24TemplateArgumentListInfoERb
libclangAST.so.8:_ZN5clang26TemplateSpecializationType7ProfileERN4llvm16FoldingSetNodeIDENS_12TemplateNameENS1_8ArrayRefINS_16TemplateArgumentEEERKNS_10ASTContextE
libclangAST.so.8:_ZN5clang26TemplateSpecializationTypeC1ENS_12TemplateNameEN4llvm8ArrayRefINS_16TemplateArgumentEEENS_8QualTypeES6_
libclangAST.so.8:_ZN5clang26TemplateSpecializationTypeC2ENS_12TemplateNameEN4llvm8ArrayRefINS_16TemplateArgumentEEENS_8QualTypeES6_
libclangAST.so.8:_ZN5clang27ASTTemplateArgumentListInfo6CreateERNS_10ASTContextERKNS_24TemplateArgumentListInfoE
libclangAST.so.8:_ZN5clang27ASTTemplateArgumentListInfoC1ERKNS_24TemplateArgumentListInfoE
libclangAST.so.8:_ZN5clang27ASTTemplateArgumentListInfoC2ERKNS_24TemplateArgumentListInfoE
libclangAST.so.8:_ZN5clang27CXXDependentScopeMemberExpr11CreateEmptyERKNS_10ASTContextEbjb
libclangAST.so.8:_ZN5clang27CXXDependentScopeMemberExpr6CreateERKNS_10ASTContextEPNS_4ExprENS_8QualTypeEbNS_14SourceLocationENS_22NestedNameSpecifierLocES7_PNS_9NamedDeclENS_19DeclarationNameInfoEPKNS_24TemplateArgumentListInfoE
libclangAST.so.8:_ZN5clang27CXXDependentScopeMemberExprC1ENS_4Stmt10EmptyShellEbb
libclangAST.so.8:_ZN5clang27CXXDependentScopeMemberExprC1ERKNS_10ASTContextEPNS_4ExprENS_8QualTypeEbNS_14SourceLocationENS_22NestedNameSpecifierLocES7_PNS_9NamedDeclENS_19DeclarationNameInfoEPKNS_24TemplateArgumentListInfoE
libclangAST.so.8:_ZN5clang27CXXDependentScopeMemberExprC2ENS_4Stmt10EmptyShellEbb
libclangAST.so.8:_ZN5clang27CXXDependentScopeMemberExprC2ERKNS_10ASTContextEPNS_4ExprENS_8QualTypeEbNS_14SourceLocationENS_22NestedNameSpecifierLocES7_PNS_9NamedDeclENS_19DeclarationNameInfoEPKNS_24TemplateArgumentListInfoE
libclangAST.so.8:_ZN5clang27DependentSizedExtVectorType7ProfileERN4llvm16FoldingSetNodeIDERKNS_10ASTContextENS_8QualTypeEPNS_4ExprE
libclangAST.so.8:_ZN5clang27DependentSizedExtVectorTypeC1ERKNS_10ASTContextENS_8QualTypeES4_PNS_4ExprENS_14SourceLocationE
libclangAST.so.8:_ZN5clang27DependentSizedExtVectorTypeC2ERKNS_10ASTContextENS_8QualTypeES4_PNS_4ExprENS_14SourceLocationE
libclangAST.so.8:_ZN5clang27DependentUnaryTransformTypeC1ERKNS_10ASTContextENS_8QualTypeENS_18UnaryTransformType7UTTKindE
libclangAST.so.8:_ZN5clang27DependentUnaryTransformTypeC2ERKNS_10ASTContextENS_8QualTypeENS_18UnaryTransformType7UTTKindE
libclangAST.so.8:_ZN5clang27OMPClauseMappableExprCommon24getComponentsTotalNumberEN4llvm8ArrayRefINS1_11SmallVectorINS0_17MappableComponentELj8EEEEE
libclangAST.so.8:_ZN5clang27OMPClauseMappableExprCommon32getUniqueDeclarationsTotalNumberEN4llvm8ArrayRefIPKNS_9ValueDeclEEE
libclangAST.so.8:_ZN5clang27OMPParallelForSimdDirective11CreateEmptyERKNS_10ASTContextEjjNS_4Stmt10EmptyShellE
libclangAST.so.8:_ZN5clang27OMPParallelForSimdDirective6CreateERKNS_10ASTContextENS_14SourceLocationES4_jN4llvm8ArrayRefIPNS_9OMPClauseEEEPNS_4StmtERKNS_16OMPLoopDirective11HelperExprsE
libclangAST.so.8:_ZN5clang27OMPTargetEnterDataDirective11CreateEmptyERKNS_10ASTContextEjNS_4Stmt10EmptyShellE
libclangAST.so.8:_ZN5clang27OMPTargetEnterDataDirective6CreateERKNS_10ASTContextENS_14SourceLocationES4_N4llvm8ArrayRefIPNS_9OMPClauseEEEPNS_4StmtE
libclangAST.so.8:_ZN5clang27OMPTeamsDistributeDirective11CreateEmptyERKNS_10ASTContextEjjNS_4Stmt10EmptyShellE
libclangAST.so.8:_ZN5clang27OMPTeamsDistributeDirective6CreateERKNS_10ASTContextENS_14SourceLocationES4_jN4llvm8ArrayRefIPNS_9OMPClauseEEEPNS_4StmtERKNS_16OMPLoopDirective11HelperExprsE
libclangAST.so.8:_ZN5clang27PseudoDestructorTypeStorageC1EPNS_14TypeSourceInfoE
libclangAST.so.8:_ZN5clang27PseudoDestructorTypeStorageC2EPNS_14TypeSourceInfoE
libclangAST.so.8:_ZN5clang27UnresolvedUsingTypenameDecl18CreateDeserializedERNS_10ASTContextEj
libclangAST.so.8:_ZN5clang27UnresolvedUsingTypenameDecl6CreateERNS_10ASTContextEPNS_11DeclContextENS_14SourceLocationES5_NS_22NestedNameSpecifierLocES5_NS_15DeclarationNameES5_
libclangAST.so.8:_ZN5clang27UnresolvedUsingTypenameDecl6anchorEv
libclangAST.so.8:_ZN5clang28OMPParallelSectionsDirective11CreateEmptyERKNS_10ASTContextEjNS_4Stmt10EmptyShellE
libclangAST.so.8:_ZN5clang28OMPParallelSectionsDirective6CreateERKNS_10ASTContextENS_14SourceLocationES4_N4llvm8ArrayRefIPNS_9OMPClauseEEEPNS_4StmtEb
libclangAST.so.8:_ZN5clang28StructuralEquivalenceContext12IsEquivalentENS_8QualTypeES1_
libclangAST.so.8:_ZN5clang28StructuralEquivalenceContext12IsEquivalentEPNS_4DeclES2_
libclangAST.so.8:_ZN5clang28StructuralEquivalenceContext22CheckCommonEquivalenceEPNS_4DeclES2_
libclangAST.so.8:_ZN5clang28StructuralEquivalenceContext28CheckKindSpecificEquivalenceEPNS_4DeclES2_
libclangAST.so.8:_ZN5clang28StructuralEquivalenceContext30findUntaggedStructOrUnionIndexEPNS_10RecordDeclE
libclangAST.so.8:_ZN5clang28StructuralEquivalenceContext5Diag1ENS_14SourceLocationEj
libclangAST.so.8:_ZN5clang28StructuralEquivalenceContext5Diag2ENS_14SourceLocationEj
libclangAST.so.8:_ZN5clang28StructuralEquivalenceContext6FinishEv
libclangAST.so.8:_ZN5clang29NestedNameSpecifierLocBuilder10MakeGlobalERNS_10ASTContextENS_14SourceLocationE
libclangAST.so.8:_ZN5clang29NestedNameSpecifierLocBuilder11MakeTrivialERNS_10ASTContextEPNS_19NestedNameSpecifierENS_11SourceRangeE
libclangAST.so.8:_ZN5clang29NestedNameSpecifierLocBuilder5AdoptENS_22NestedNameSpecifierLocE
libclangAST.so.8:_ZN5clang29NestedNameSpecifierLocBuilder6ExtendERNS_10ASTContextENS_14SourceLocationENS_7TypeLocES3_
libclangAST.so.8:_ZN5clang29NestedNameSpecifierLocBuilder6ExtendERNS_10ASTContextEPNS_13NamespaceDeclENS_14SourceLocationES5_
libclangAST.so.8:_ZN5clang29NestedNameSpecifierLocBuilder6ExtendERNS_10ASTContextEPNS_14IdentifierInfoENS_14SourceLocationES5_
libclangAST.so.8:_ZN5clang29NestedNameSpecifierLocBuilder6ExtendERNS_10ASTContextEPNS_18NamespaceAliasDeclENS_14SourceLocationES5_
libclangAST.so.8:_ZN5clang29NestedNameSpecifierLocBuilder9MakeSuperERNS_10ASTContextEPNS_13CXXRecordDeclENS_14SourceLocationES5_
libclangAST.so.8:_ZN5clang29NestedNameSpecifierLocBuilderC1ERKS0_
libclangAST.so.8:_ZN5clang29NestedNameSpecifierLocBuilderC2ERKS0_
libclangAST.so.8:_ZN5clang29NestedNameSpecifierLocBuilderaSERKS0_
libclangAST.so.8:_ZN5clang29OMPCancellationPointDirective11CreateEmptyERKNS_10ASTContextENS_4Stmt10EmptyShellE
libclangAST.so.8:_ZN5clang29OMPCancellationPointDirective6CreateERKNS_10ASTContextENS_14SourceLocationES4_NS_19OpenMPDirectiveKindE
libclangAST.so.8:_ZN5clang29OMPTargetParallelForDirective11CreateEmptyERKNS_10ASTContextEjjNS_4Stmt10EmptyShellE
libclangAST.so.8:_ZN5clang29OMPTargetParallelForDirective6CreateERKNS_10ASTContextENS_14SourceLocationES4_jN4llvm8ArrayRefIPNS_9OMPClauseEEEPNS_4StmtERKNS_16OMPLoopDirective11HelperExprsEb
libclangAST.so.8:_ZN5clang29SubstTemplateTypeParmPackType7ProfileERN4llvm16FoldingSetNodeIDE
libclangAST.so.8:_ZN5clang29SubstTemplateTypeParmPackType7ProfileERN4llvm16FoldingSetNodeIDEPKNS_20TemplateTypeParmTypeERKNS_16TemplateArgumentE
libclangAST.so.8:_ZN5clang29SubstTemplateTypeParmPackTypeC1EPKNS_20TemplateTypeParmTypeENS_8QualTypeERKNS_16TemplateArgumentE
libclangAST.so.8:_ZN5clang29SubstTemplateTypeParmPackTypeC2EPKNS_20TemplateTypeParmTypeENS_8QualTypeERKNS_16TemplateArgumentE
libclangAST.so.8:_ZN5clang29TemplateSpecializationTypeLoc17initializeArgLocsERNS_10ASTContextEjPKNS_16TemplateArgumentEPNS_23TemplateArgumentLocInfoENS_14SourceLocationE
libclangAST.so.8:_ZN5clang29VarTemplateSpecializationDecl18CreateDeserializedERNS_10ASTContextEj
libclangAST.so.8:_ZN5clang29VarTemplateSpecializationDecl19setTemplateArgsInfoERKNS_24TemplateArgumentListInfoE
libclangAST.so.8:_ZN5clang29VarTemplateSpecializationDecl6CreateERNS_10ASTContextEPNS_11DeclContextENS_14SourceLocationES5_PNS_15VarTemplateDeclENS_8QualTypeEPNS_14TypeSourceInfoENS_12StorageClassEN4llvm8ArrayRefINS_16TemplateArgumentEEE
libclangAST.so.8:_ZN5clang29VarTemplateSpecializationDeclC1ENS_4Decl4KindERNS_10ASTContextE
libclangAST.so.8:_ZN5clang29VarTemplateSpecializationDeclC1ENS_4Decl4KindERNS_10ASTContextEPNS_11DeclContextENS_14SourceLocationES7_PNS_15VarTemplateDeclENS_8QualTypeEPNS_14TypeSourceInfoENS_12StorageClassEN4llvm8ArrayRefINS_16TemplateArgumentEEE
libclangAST.so.8:_ZN5clang29VarTemplateSpecializationDeclC2ENS_4Decl4KindERNS_10ASTContextE
libclangAST.so.8:_ZN5clang29VarTemplateSpecializationDeclC2ENS_4Decl4KindERNS_10ASTContextEPNS_11DeclContextENS_14SourceLocationES7_PNS_15VarTemplateDeclENS_8QualTypeEPNS_14TypeSourceInfoENS_12StorageClassEN4llvm8ArrayRefINS_16TemplateArgumentEEE
libclangAST.so.8:_ZN5clang30allocateDefaultArgStorageChainERKNS_10ASTContextE
libclangAST.so.8:_ZN5clang30getCanonicalForwardRedeclChainEPNS_4DeclE
libclangAST.so.8:_ZN5clang31ClassTemplateSpecializationDecl18CreateDeserializedERNS_10ASTContextEj
libclangAST.so.8:_ZN5clang31ClassTemplateSpecializationDecl6CreateERNS_10ASTContextENS_11TagTypeKindEPNS_11DeclContextENS_14SourceLocationES6_PNS_17ClassTemplateDeclEN4llvm8ArrayRefINS_16TemplateArgumentEEEPS0_
libclangAST.so.8:_ZN5clang31ClassTemplateSpecializationDeclC1ERNS_10ASTContextENS_4Decl4KindE
libclangAST.so.8:_ZN5clang31ClassTemplateSpecializationDeclC1ERNS_10ASTContextENS_4Decl4KindENS_11TagTypeKindEPNS_11DeclContextENS_14SourceLocationES8_PNS_17ClassTemplateDeclEN4llvm8ArrayRefINS_16TemplateArgumentEEEPS0_
libclangAST.so.8:_ZN5clang31ClassTemplateSpecializationDeclC2ERNS_10ASTContextENS_4Decl4KindE
libclangAST.so.8:_ZN5clang31ClassTemplateSpecializationDeclC2ERNS_10ASTContextENS_4Decl4KindENS_11TagTypeKindEPNS_11DeclContextENS_14SourceLocationES8_PNS_17ClassTemplateDeclEN4llvm8ArrayRefINS_16TemplateArgumentEEEPS0_
libclangAST.so.8:_ZN5clang31FormatASTNodeDiagnosticArgumentENS_17DiagnosticsEngine12ArgumentKindElN4llvm9StringRefES3_NS2_8ArrayRefISt4pairIS1_lEEERNS2_15SmallVectorImplIcEEPvNS4_IlEE
libclangAST.so.8:_ZN5clang31OMPTeamsDistributeSimdDirective11CreateEmptyERKNS_10ASTContextEjjNS_4Stmt10EmptyShellE
libclangAST.so.8:_ZN5clang31OMPTeamsDistributeSimdDirective6CreateERKNS_10ASTContextENS_14SourceLocationES4_jN4llvm8ArrayRefIPNS_9OMPClauseEEEPNS_4StmtERKNS_16OMPLoopDirective11HelperExprsE
libclangAST.so.8:_ZN5clang32SubstNonTypeTemplateParmPackExprC1ENS_8QualTypeENS_13ExprValueKindEPNS_23NonTypeTemplateParmDeclENS_14SourceLocationERKNS_16TemplateArgumentE
libclangAST.so.8:_ZN5clang32SubstNonTypeTemplateParmPackExprC2ENS_8QualTypeENS_13ExprValueKindEPNS_23NonTypeTemplateParmDeclENS_14SourceLocationERKNS_16TemplateArgumentE
libclangAST.so.8:_ZN5clang32SubstTemplateTemplateParmStorage7ProfileERN4llvm16FoldingSetNodeIDE
libclangAST.so.8:_ZN5clang32SubstTemplateTemplateParmStorage7ProfileERN4llvm16FoldingSetNodeIDEPNS_24TemplateTemplateParmDeclENS_12TemplateNameE
libclangAST.so.8:_ZN5clang33OMPDistributeParallelForDirective11CreateEmptyERKNS_10ASTContextEjjNS_4Stmt10EmptyShellE
libclangAST.so.8:_ZN5clang33OMPDistributeParallelForDirective6CreateERKNS_10ASTContextENS_14SourceLocationES4_jN4llvm8ArrayRefIPNS_9OMPClauseEEEPNS_4StmtERKNS_16OMPLoopDirective11HelperExprsEb
libclangAST.so.8:_ZN5clang33OMPTargetParallelForSimdDirective11CreateEmptyERKNS_10ASTContextEjjNS_4Stmt10EmptyShellE
libclangAST.so.8:_ZN5clang33OMPTargetParallelForSimdDirective6CreateERKNS_10ASTContextENS_14SourceLocationES4_jN4llvm8ArrayRefIPNS_9OMPClauseEEEPNS_4StmtERKNS_16OMPLoopDirective11HelperExprsE
libclangAST.so.8:_ZN5clang33OMPTargetTeamsDistributeDirective11CreateEmptyERKNS_10ASTContextEjjNS_4Stmt10EmptyShellE
libclangAST.so.8:_ZN5clang33OMPTargetTeamsDistributeDirective6CreateERKNS_10ASTContextENS_14SourceLocationES4_jN4llvm8ArrayRefIPNS_9OMPClauseEEEPNS_4StmtERKNS_16OMPLoopDirective11HelperExprsE
libclangAST.so.8:_ZN5clang34FunctionTemplateSpecializationInfo6CreateERNS_10ASTContextEPNS_12FunctionDeclEPNS_20FunctionTemplateDeclENS_26TemplateSpecializationKindEPKNS_20TemplateArgumentListEPKNS_24TemplateArgumentListInfoENS_14SourceLocationE
libclangAST.so.8:_ZN5clang35DependentTemplateSpecializationType7ProfileERN4llvm16FoldingSetNodeIDERKNS_10ASTContextENS_21ElaboratedTypeKeywordEPNS_19NestedNameSpecifierEPKNS_14IdentifierInfoENS1_8ArrayRefINS_16TemplateArgumentEEE
libclangAST.so.8:_ZN5clang35DependentTemplateSpecializationTypeC1ENS_21ElaboratedTypeKeywordEPNS_19NestedNameSpecifierEPKNS_14IdentifierInfoEN4llvm8ArrayRefINS_16TemplateArgumentEEENS_8QualTypeE
libclangAST.so.8:_ZN5clang35DependentTemplateSpecializationTypeC2ENS_21ElaboratedTypeKeywordEPNS_19NestedNameSpecifierEPKNS_14IdentifierInfoEN4llvm8ArrayRefINS_16TemplateArgumentEEENS_8QualTypeE
libclangAST.so.8:_ZN5clang36ClassScopeFunctionSpecializationDecl18CreateDeserializedERNS_10ASTContextEj
libclangAST.so.8:_ZN5clang36ClassScopeFunctionSpecializationDecl6anchorEv
libclangAST.so.8:_ZN5clang36SubstTemplateTemplateParmPackStorage7ProfileERN4llvm16FoldingSetNodeIDERNS_10ASTContextE
libclangAST.so.8:_ZN5clang36SubstTemplateTemplateParmPackStorage7ProfileERN4llvm16FoldingSetNodeIDERNS_10ASTContextEPNS_24TemplateTemplateParmDeclERKNS_16TemplateArgumentE
libclangAST.so.8:_ZN5clang36VarTemplatePartialSpecializationDecl18CreateDeserializedERNS_10ASTContextEj
libclangAST.so.8:_ZN5clang36VarTemplatePartialSpecializationDecl6CreateERNS_10ASTContextEPNS_11DeclContextENS_14SourceLocationES5_PNS_21TemplateParameterListEPNS_15VarTemplateDeclENS_8QualTypeEPNS_14TypeSourceInfoENS_12StorageClassEN4llvm8ArrayRefINS_16TemplateArgumentEEERKNS_24TemplateArgumentListInfoE
libclangAST.so.8:_ZN5clang36VarTemplatePartialSpecializationDecl6anchorEv
libclangAST.so.8:_ZN5clang36VarTemplatePartialSpecializationDeclC1ERNS_10ASTContextEPNS_11DeclContextENS_14SourceLocationES5_PNS_21TemplateParameterListEPNS_15VarTemplateDeclENS_8QualTypeEPNS_14TypeSourceInfoENS_12StorageClassEN4llvm8ArrayRefINS_16TemplateArgumentEEEPKNS_27ASTTemplateArgumentListInfoE
libclangAST.so.8:_ZN5clang36VarTemplatePartialSpecializationDeclC2ERNS_10ASTContextEPNS_11DeclContextENS_14SourceLocationES5_PNS_21TemplateParameterListEPNS_15VarTemplateDeclENS_8QualTypeEPNS_14TypeSourceInfoENS_12StorageClassEN4llvm8ArrayRefINS_16TemplateArgumentEEEPKNS_27ASTTemplateArgumentListInfoE
libclangAST.so.8:_ZN5clang37OMPDistributeParallelForSimdDirective11CreateEmptyERKNS_10ASTContextEjjNS_4Stmt10EmptyShellE
libclangAST.so.8:_ZN5clang37OMPDistributeParallelForSimdDirective6CreateERKNS_10ASTContextENS_14SourceLocationES4_jN4llvm8ArrayRefIPNS_9OMPClauseEEEPNS_4StmtERKNS_16OMPLoopDirective11HelperExprsE
libclangAST.so.8:_ZN5clang37OMPTargetTeamsDistributeSimdDirective11CreateEmptyERKNS_10ASTContextEjjNS_4Stmt10EmptyShellE
libclangAST.so.8:_ZN5clang37OMPTargetTeamsDistributeSimdDirective6CreateERKNS_10ASTContextENS_14SourceLocationES4_jN4llvm8ArrayRefIPNS_9OMPClauseEEEPNS_4StmtERKNS_16OMPLoopDirective11HelperExprsE
libclangAST.so.8:_ZN5clang38ClassTemplatePartialSpecializationDecl18CreateDeserializedERNS_10ASTContextEj
libclangAST.so.8:_ZN5clang38ClassTemplatePartialSpecializationDecl6CreateERNS_10ASTContextENS_11TagTypeKindEPNS_11DeclContextENS_14SourceLocationES6_PNS_21TemplateParameterListEPNS_17ClassTemplateDeclEN4llvm8ArrayRefINS_16TemplateArgumentEEERKNS_24TemplateArgumentListInfoENS_8QualTypeEPS0_
libclangAST.so.8:_ZN5clang38ClassTemplatePartialSpecializationDecl6anchorEv
libclangAST.so.8:_ZN5clang38ClassTemplatePartialSpecializationDeclC1ERNS_10ASTContextENS_11TagTypeKindEPNS_11DeclContextENS_14SourceLocationES6_PNS_21TemplateParameterListEPNS_17ClassTemplateDeclEN4llvm8ArrayRefINS_16TemplateArgumentEEEPKNS_27ASTTemplateArgumentListInfoEPS0_
libclangAST.so.8:_ZN5clang38ClassTemplatePartialSpecializationDeclC2ERNS_10ASTContextENS_11TagTypeKindEPNS_11DeclContextENS_14SourceLocationES6_PNS_21TemplateParameterListEPNS_17ClassTemplateDeclEN4llvm8ArrayRefINS_16TemplateArgumentEEEPKNS_27ASTTemplateArgumentListInfoEPS0_
libclangAST.so.8:_ZN5clang38DependentTemplateSpecializationTypeLoc15initializeLocalERNS_10ASTContextENS_14SourceLocationE
libclangAST.so.8:_ZN5clang38OMPTeamsDistributeParallelForDirective11CreateEmptyERKNS_10ASTContextEjjNS_4Stmt10EmptyShellE
libclangAST.so.8:_ZN5clang38OMPTeamsDistributeParallelForDirective6CreateERKNS_10ASTContextENS_14SourceLocationES4_jN4llvm8ArrayRefIPNS_9OMPClauseEEEPNS_4StmtERKNS_16OMPLoopDirective11HelperExprsEb
libclangAST.so.8:_ZN5clang42OMPTeamsDistributeParallelForSimdDirective11CreateEmptyERKNS_10ASTContextEjjNS_4Stmt10EmptyShellE
libclangAST.so.8:_ZN5clang42OMPTeamsDistributeParallelForSimdDirective6CreateERKNS_10ASTContextENS_14SourceLocationES4_jN4llvm8ArrayRefIPNS_9OMPClauseEEEPNS_4StmtERKNS_16OMPLoopDirective11HelperExprsE
libclangAST.so.8:_ZN5clang43DependentFunctionTemplateSpecializationInfo6CreateERNS_10ASTContextERKNS_17UnresolvedSetImplERKNS_24TemplateArgumentListInfoE
libclangAST.so.8:_ZN5clang43DependentFunctionTemplateSpecializationInfoC1ERKNS_17UnresolvedSetImplERKNS_24TemplateArgumentListInfoE
libclangAST.so.8:_ZN5clang43DependentFunctionTemplateSpecializationInfoC2ERKNS_17UnresolvedSetImplERKNS_24TemplateArgumentListInfoE
libclangAST.so.8:_ZN5clang44OMPTargetTeamsDistributeParallelForDirective11CreateEmptyERKNS_10ASTContextEjjNS_4Stmt10EmptyShellE
libclangAST.so.8:_ZN5clang44OMPTargetTeamsDistributeParallelForDirective6CreateERKNS_10ASTContextENS_14SourceLocationES4_jN4llvm8ArrayRefIPNS_9OMPClauseEEEPNS_4StmtERKNS_16OMPLoopDirective11HelperExprsEb
libclangAST.so.8:_ZN5clang48OMPTargetTeamsDistributeParallelForSimdDirective11CreateEmptyERKNS_10ASTContextEjjNS_4Stmt10EmptyShellE
libclangAST.so.8:_ZN5clang48OMPTargetTeamsDistributeParallelForSimdDirective6CreateERKNS_10ASTContextENS_14SourceLocationES4_jN4llvm8ArrayRefIPNS_9OMPClauseEEEPNS_4StmtERKNS_16OMPLoopDirective11HelperExprsE
libclangAST.so.8:_ZN5clang4Decl10PrintStatsEv
libclangAST.so.8:_ZN5clang4Decl10printGroupEPPS0_jRN4llvm11raw_ostreamERKNS_14PrintingPolicyEj
libclangAST.so.8:_ZN5clang4Decl12setAttrsImplERKN4llvm11SmallVectorIPNS_4AttrELj4EEERNS_10ASTContextE
libclangAST.so.8:_ZN5clang4Decl13getAsFunctionEv
libclangAST.so.8:_ZN5clang4Decl14setDeclContextEPNS_11DeclContextE
libclangAST.so.8:_ZN5clang4Decl14setInvalidDeclEb
libclangAST.so.8:_ZN5clang4Decl16EnableStatisticsEv
libclangAST.so.8:_ZN5clang4Decl17castToDeclContextEPKS0_
libclangAST.so.8:_ZN5clang4Decl19castFromDeclContextEPKNS_11DeclContextE
libclangAST.so.8:_ZN5clang4Decl19setDeclContextsImplEPNS_11DeclContextES2_RNS_10ASTContextE
libclangAST.so.8:_ZN5clang4Decl20getNonClosureContextEv
libclangAST.so.8:_ZN5clang4Decl21setLexicalDeclContextEPNS_11DeclContextE
libclangAST.so.8:_ZN5clang4Decl22getTranslationUnitDeclEv
libclangAST.so.8:_ZN5clang4Decl29getIdentifierNamespaceForKindENS0_4KindE
libclangAST.so.8:_ZN5clang4Decl3addENS0_4KindE
libclangAST.so.8:_ZN5clang4Decl7addAttrEPNS_4AttrE
libclangAST.so.8:_ZN5clang4Decl8markUsedERNS_10ASTContextE
libclangAST.so.8:_ZN5clang4Decl9dropAttrsEv
libclangAST.so.8:_ZN5clang4DeclD0Ev
libclangAST.so.8:_ZN5clang4DeclD1Ev
libclangAST.so.8:_ZN5clang4DeclD2Ev
libclangAST.so.8:_ZN5clang4DeclnwEmRKNS_10ASTContextEPNS_11DeclContextEm
libclangAST.so.8:_ZN5clang4DeclnwEmRKNS_10ASTContextEjm
libclangAST.so.8:_ZN5clang4Expr11IgnoreCastsEv
libclangAST.so.8:_ZN5clang4Expr12IgnoreParensEv
libclangAST.so.8:_ZN5clang4Expr16IgnoreParenCastsEv
libclangAST.so.8:_ZN5clang4Expr17getSourceBitFieldEv
libclangAST.so.8:_ZN5clang4Expr19IgnoreParenImpCastsEv
libclangAST.so.8:_ZN5clang4Expr19findBoundMemberTypeEPKS0_
libclangAST.so.8:_ZN5clang4Expr20IgnoreParenNoopCastsERNS_10ASTContextE
libclangAST.so.8:_ZN5clang4Expr20ignoreParenBaseCastsEv
libclangAST.so.8:_ZN5clang4Expr22IgnoreParenLValueCastsEv
libclangAST.so.8:_ZN5clang4Expr23isPotentialConstantExprEPKNS_12FunctionDeclERN4llvm15SmallVectorImplISt4pairINS_14SourceLocationENS_17PartialDiagnosticEEEE
libclangAST.so.8:_ZN5clang4Expr24IgnoreConversionOperatorEv
libclangAST.so.8:_ZN5clang4Expr25getReferencedDeclOfCalleeEv
libclangAST.so.8:_ZN5clang4Expr28hasAnyTypeDependentArgumentsEN4llvm8ArrayRefIPS0_EE
libclangAST.so.8:_ZN5clang4Expr34isPotentialConstantExprUnevaluatedEPS0_PKNS_12FunctionDeclERN4llvm15SmallVectorImplISt4pairINS_14SourceLocationENS_17PartialDiagnosticEEEE
libclangAST.so.8:_ZN5clang4Stmt10PrintStatsEv
libclangAST.so.8:_ZN5clang4Stmt12addStmtClassENS0_9StmtClassE
libclangAST.so.8:_ZN5clang4Stmt14IgnoreImplicitEv
libclangAST.so.8:_ZN5clang4Stmt16EnableStatisticsEv
libclangAST.so.8:_ZN5clang4Stmt16IgnoreContainersEb
libclangAST.so.8:_ZN5clang4Stmt8childrenEv
libclangAST.so.8:_ZN5clang4StmtnwEmRKNS_10ASTContextEj
libclangAST.so.8:_ZN5clang5NSAPI18getNSSetMethodKindENS_8SelectorE
libclangAST.so.8:_ZN5clang5NSAPI20getNSArrayMethodKindENS_8SelectorE
libclangAST.so.8:_ZN5clang5NSAPI25getNSDictionaryMethodKindENS_8SelectorE
libclangAST.so.8:_ZN5clang5NSAPIC1ERNS_10ASTContextE
libclangAST.so.8:_ZN5clang5NSAPIC2ERNS_10ASTContextE
libclangAST.so.8:_ZN5clang6CXXABID0Ev
libclangAST.so.8:_ZN5clang6CXXABID1Ev
libclangAST.so.8:_ZN5clang6CXXABID2Ev
libclangAST.so.8:_ZN5clang6IfStmt11CreateEmptyERKNS_10ASTContextEbbb
libclangAST.so.8:_ZN5clang6IfStmt20getConditionVariableEv
libclangAST.so.8:_ZN5clang6IfStmt20setConditionVariableERKNS_10ASTContextEPNS_7VarDeclE
libclangAST.so.8:_ZN5clang6IfStmt6CreateERKNS_10ASTContextENS_14SourceLocationEbPNS_4StmtEPNS_7VarDeclEPNS_4ExprES6_S4_S6_
libclangAST.so.8:_ZN5clang6IfStmtC1ENS_4Stmt10EmptyShellEbbb
libclangAST.so.8:_ZN5clang6IfStmtC1ERKNS_10ASTContextENS_14SourceLocationEbPNS_4StmtEPNS_7VarDeclEPNS_4ExprES6_S4_S6_
libclangAST.so.8:_ZN5clang6IfStmtC2ENS_4Stmt10EmptyShellEbbb
libclangAST.so.8:_ZN5clang6IfStmtC2ERKNS_10ASTContextENS_14SourceLocationEbPNS_4StmtEPNS_7VarDeclEPNS_4ExprES6_S4_S6_
libclangAST.so.8:_ZN5clang7APValue10MakeLValueEv
libclangAST.so.8:_ZN5clang7APValue10StructDataC1Ejj
libclangAST.so.8:_ZN5clang7APValue10StructDataC2Ejj
libclangAST.so.8:_ZN5clang7APValue10StructDataD1Ev
libclangAST.so.8:_ZN5clang7APValue10StructDataD2Ev
libclangAST.so.8:_ZN5clang7APValue15getLValueOffsetEv
libclangAST.so.8:_ZN5clang7APValue17MakeMemberPointerEPKNS_9ValueDeclEbN4llvm8ArrayRefIPKNS_13CXXRecordDeclEEE
libclangAST.so.8:_ZN5clang7APValue24DestroyDataAndMakeUninitEv
libclangAST.so.8:_ZN5clang7APValue3ArrC1Ejj
libclangAST.so.8:_ZN5clang7APValue3ArrC2Ejj
libclangAST.so.8:_ZN5clang7APValue3ArrD1Ev
libclangAST.so.8:_ZN5clang7APValue3ArrD2Ev
libclangAST.so.8:_ZN5clang7APValue4swapERS0_
libclangAST.so.8:_ZN5clang7APValue9MakeArrayEjj
libclangAST.so.8:_ZN5clang7APValue9UnionDataC1Ev
libclangAST.so.8:_ZN5clang7APValue9UnionDataC2Ev
libclangAST.so.8:_ZN5clang7APValue9UnionDataD1Ev
libclangAST.so.8:_ZN5clang7APValue9UnionDataD2Ev
libclangAST.so.8:_ZN5clang7APValue9setLValueENS0_10LValueBaseERKNS_9CharUnitsEN4llvm8ArrayRefINS0_15LValuePathEntryEEEbb
libclangAST.so.8:_ZN5clang7APValue9setLValueENS0_10LValueBaseERKNS_9CharUnitsENS0_12NoLValuePathEb
libclangAST.so.8:_ZN5clang7APValueC1ERKS0_
libclangAST.so.8:_ZN5clang7APValueC2ERKS0_
libclangAST.so.8:_ZN5clang7ForStmt20setConditionVariableERKNS_10ASTContextEPNS_7VarDeclE
libclangAST.so.8:_ZN5clang7ForStmtC1ERKNS_10ASTContextEPNS_4StmtEPNS_4ExprEPNS_7VarDeclES7_S5_NS_14SourceLocationESA_SA_
libclangAST.so.8:_ZN5clang7ForStmtC2ERKNS_10ASTContextEPNS_4StmtEPNS_4ExprEPNS_7VarDeclES7_S5_NS_14SourceLocationESA_SA_
libclangAST.so.8:_ZN5clang7ODRHash10AddBooleanEb
libclangAST.so.8:_ZN5clang7ODRHash10AddSubDeclEPKNS_4DeclE
libclangAST.so.8:_ZN5clang7ODRHash11AddEnumDeclEPKNS_8EnumDeclE
libclangAST.so.8:_ZN5clang7ODRHash11AddQualTypeENS_8QualTypeE
libclangAST.so.8:_ZN5clang7ODRHash13CalculateHashEv
libclangAST.so.8:_ZN5clang7ODRHash15AddFunctionDeclEPKNS_12FunctionDeclEb
libclangAST.so.8:_ZN5clang7ODRHash15AddTemplateNameENS_12TemplateNameE
libclangAST.so.8:_ZN5clang7ODRHash16AddCXXRecordDeclEPKNS_13CXXRecordDeclE
libclangAST.so.8:_ZN5clang7ODRHash17AddIdentifierInfoEPKNS_14IdentifierInfoE
libclangAST.so.8:_ZN5clang7ODRHash17isWhitelistedDeclEPKNS_4DeclEPKNS_11DeclContextE
libclangAST.so.8:_ZN5clang7ODRHash18AddDeclarationNameENS_15DeclarationNameEb
libclangAST.so.8:_ZN5clang7ODRHash19AddTemplateArgumentENS_16TemplateArgumentE
libclangAST.so.8:_ZN5clang7ODRHash22AddDeclarationNameImplENS_15DeclarationNameE
libclangAST.so.8:_ZN5clang7ODRHash22AddNestedNameSpecifierEPKNS_19NestedNameSpecifierE
libclangAST.so.8:_ZN5clang7ODRHash24AddTemplateParameterListEPKNS_21TemplateParameterListE
libclangAST.so.8:_ZN5clang7ODRHash5clearEv
libclangAST.so.8:_ZN5clang7ODRHash7AddDeclEPKNS_4DeclE
libclangAST.so.8:_ZN5clang7ODRHash7AddStmtEPKNS_4StmtE
libclangAST.so.8:_ZN5clang7ODRHash7AddTypeEPKNS_4TypeE
libclangAST.so.8:_ZN5clang7TagDecl15startDefinitionEv
libclangAST.so.8:_ZN5clang7TagDecl16getCanonicalDeclEv
libclangAST.so.8:_ZN5clang7TagDecl16setQualifierInfoENS_22NestedNameSpecifierLocE
libclangAST.so.8:_ZN5clang7TagDecl18completeDefinitionEv
libclangAST.so.8:_ZN5clang7TagDecl25setTypedefNameForAnonDeclEPNS_15TypedefNameDeclE
libclangAST.so.8:_ZN5clang7TagDecl29setTemplateParameterListsInfoERNS_10ASTContextEN4llvm8ArrayRefIPNS_21TemplateParameterListEEE
libclangAST.so.8:_ZN5clang7TagDeclC1ENS_4Decl4KindENS_11TagTypeKindERKNS_10ASTContextEPNS_11DeclContextENS_14SourceLocationEPNS_14IdentifierInfoEPS0_S9_
libclangAST.so.8:_ZN5clang7TagDeclC2ENS_4Decl4KindENS_11TagTypeKindERKNS_10ASTContextEPNS_11DeclContextENS_14SourceLocationEPNS_14IdentifierInfoEPS0_S9_
libclangAST.so.8:_ZN5clang7TagTypeC1ENS_4Type9TypeClassEPKNS_7TagDeclENS_8QualTypeE
libclangAST.so.8:_ZN5clang7TagTypeC2ENS_4Type9TypeClassEPKNS_7TagDeclENS_8QualTypeE
libclangAST.so.8:_ZN5clang7TypeLoc14initializeImplERNS_10ASTContextES0_NS_14SourceLocationE
libclangAST.so.8:_ZN5clang7TypeLoc16IgnoreParensImplES0_
libclangAST.so.8:_ZN5clang7TypeLoc18getNextTypeLocImplES0_
libclangAST.so.8:_ZN5clang7TypeLoc22getFullDataSizeForTypeENS_8QualTypeE
libclangAST.so.8:_ZN5clang7TypeLoc23getLocalSourceRangeImplES0_
libclangAST.so.8:_ZN5clang7TypeLoc24getLocalAlignmentForTypeENS_8QualTypeE
libclangAST.so.8:_ZN5clang7TypeLoc4copyES0_
libclangAST.so.8:_ZN5clang7VarDecl13getDefinitionERNS_10ASTContextE
libclangAST.so.8:_ZN5clang7VarDecl14getInitAddressEv
libclangAST.so.8:_ZN5clang7VarDecl15setStorageClassENS_12StorageClassE
libclangAST.so.8:_ZN5clang7VarDecl16getCanonicalDeclEv
libclangAST.so.8:_ZN5clang7VarDecl18CreateDeserializedERNS_10ASTContextEj
libclangAST.so.8:_ZN5clang7VarDecl19getActingDefinitionEv
libclangAST.so.8:_ZN5clang7VarDecl23setDescribedVarTemplateEPNS_15VarTemplateDeclE
libclangAST.so.8:_ZN5clang7VarDecl29setTemplateSpecializationKindENS_26TemplateSpecializationKindENS_14SourceLocationE
libclangAST.so.8:_ZN5clang7VarDecl30getStorageClassSpecifierStringENS_12StorageClassE
libclangAST.so.8:_ZN5clang7VarDecl34setInstantiationOfStaticDataMemberEPS0_NS_26TemplateSpecializationKindE
libclangAST.so.8:_ZN5clang7VarDecl6CreateERNS_10ASTContextEPNS_11DeclContextENS_14SourceLocationES5_PNS_14IdentifierInfoENS_8QualTypeEPNS_14TypeSourceInfoENS_12StorageClassE
libclangAST.so.8:_ZN5clang7VarDecl7getInitEv
libclangAST.so.8:_ZN5clang7VarDecl7setInitEPNS_4ExprE
libclangAST.so.8:_ZN5clang7VarDeclC1ENS_4Decl4KindERNS_10ASTContextEPNS_11DeclContextENS_14SourceLocationES7_PNS_14IdentifierInfoENS_8QualTypeEPNS_14TypeSourceInfoENS_12StorageClassE
libclangAST.so.8:_ZN5clang7VarDeclC2ENS_4Decl4KindERNS_10ASTContextEPNS_11DeclContextENS_14SourceLocationES7_PNS_14IdentifierInfoENS_8QualTypeEPNS_14TypeSourceInfoENS_12StorageClassE
libclangAST.so.8:_ZN5clang8CallExpr11CreateEmptyERKNS_10ASTContextEjNS_4Stmt10EmptyShellE
libclangAST.so.8:_ZN5clang8CallExpr15CreateTemporaryEPvPNS_4ExprENS_8QualTypeENS_13ExprValueKindENS_14SourceLocationENS0_11ADLCallKindE
libclangAST.so.8:_ZN5clang8CallExpr23offsetToTrailingObjectsENS_4Stmt9StmtClassE
libclangAST.so.8:_ZN5clang8CallExpr25updateDependenciesFromArgEPNS_4ExprE
libclangAST.so.8:_ZN5clang8CallExpr6CreateERKNS_10ASTContextEPNS_4ExprEN4llvm8ArrayRefIS5_EENS_8QualTypeENS_13ExprValueKindENS_14SourceLocationEjNS0_11ADLCallKindE
libclangAST.so.8:_ZN5clang8CallExprC1ENS_4Stmt9StmtClassEPNS_4ExprEN4llvm8ArrayRefIS4_EES7_NS_8QualTypeENS_13ExprValueKindENS_14SourceLocationEjNS0_11ADLCallKindE
libclangAST.so.8:_ZN5clang8CallExprC1ENS_4Stmt9StmtClassEjjNS1_10EmptyShellE
libclangAST.so.8:_ZN5clang8CallExprC2ENS_4Stmt9StmtClassEPNS_4ExprEN4llvm8ArrayRefIS4_EES7_NS_8QualTypeENS_13ExprValueKindENS_14SourceLocationEjNS0_11ADLCallKindE
libclangAST.so.8:_ZN5clang8CallExprC2ENS_4Stmt9StmtClassEjjNS1_10EmptyShellE
libclangAST.so.8:_ZN5clang8CaseStmt11CreateEmptyERKNS_10ASTContextEb
libclangAST.so.8:_ZN5clang8CaseStmt6CreateERKNS_10ASTContextEPNS_4ExprES5_NS_14SourceLocationES6_S6_
libclangAST.so.8:_ZN5clang8CastExpr11path_bufferEv
libclangAST.so.8:_ZN5clang8CastExpr15getCastKindNameENS_8CastKindE
libclangAST.so.8:_ZN5clang8CastExpr19getSubExprAsWrittenEv
libclangAST.so.8:_ZN5clang8CastExpr28getTargetFieldForToUnionCastENS_8QualTypeES1_
libclangAST.so.8:_ZN5clang8CastExpr28getTargetFieldForToUnionCastEPKNS_10RecordDeclENS_8QualTypeE
libclangAST.so.8:_ZN5clang8EnumDecl10getODRHashEv
libclangAST.so.8:_ZN5clang8EnumDecl18CreateDeserializedERNS_10ASTContextEj
libclangAST.so.8:_ZN5clang8EnumDecl18completeDefinitionENS_8QualTypeES1_jj
libclangAST.so.8:_ZN5clang8EnumDecl28setInstantiationOfMemberEnumERNS_10ASTContextEPS0_NS_26TemplateSpecializationKindE
libclangAST.so.8:_ZN5clang8EnumDecl29setTemplateSpecializationKindENS_26TemplateSpecializationKindENS_14SourceLocationE
libclangAST.so.8:_ZN5clang8EnumDecl6CreateERNS_10ASTContextEPNS_11DeclContextENS_14SourceLocationES5_PNS_14IdentifierInfoEPS0_bbb
libclangAST.so.8:_ZN5clang8EnumDecl6anchorEv
libclangAST.so.8:_ZN5clang8EnumDeclC1ERNS_10ASTContextEPNS_11DeclContextENS_14SourceLocationES5_PNS_14IdentifierInfoEPS0_bbb
libclangAST.so.8:_ZN5clang8EnumDeclC2ERNS_10ASTContextEPNS_11DeclContextENS_14SourceLocationES5_PNS_14IdentifierInfoEPS0_bbb
libclangAST.so.8:_ZN5clang8QualType10isConstantES0_RKNS_10ASTContextE
libclangAST.so.8:_ZN5clang8QualType11getAsStringB5cxx11EPKNS_4TypeENS_10QualifiersERKNS_14PrintingPolicyE
libclangAST.so.8:_ZN5clang8QualType12IgnoreParensES0_
libclangAST.so.8:_ZN5clang8QualType16getDesugaredTypeES0_RKNS_10ASTContextE
libclangAST.so.8:_ZN5clang8QualType19getAsStringInternalEPKNS_4TypeENS_10QualifiersERNSt7__cxx1112basic_stringIcSt11char_traitsIcESaIcEEERKNS_14PrintingPolicyE
libclangAST.so.8:_ZN5clang8QualType20isDestructedTypeImplES0_
libclangAST.so.8:_ZN5clang8QualType21getSplitDesugaredTypeES0_
libclangAST.so.8:_ZN5clang8QualType27getSplitUnqualifiedTypeImplES0_
libclangAST.so.8:_ZN5clang8QualType30getSingleStepDesugaredTypeImplES0_RKNS_10ASTContextE
libclangAST.so.8:_ZN5clang8QualType5printEPKNS_4TypeENS_10QualifiersERN4llvm11raw_ostreamERKNS_14PrintingPolicyERKNS5_5TwineEj
libclangAST.so.8:_ZN5clang8TypeDecl6anchorEv
libclangAST.so.8:_ZN5clang8TypeName21getFullyQualifiedNameB5cxx11ENS_8QualTypeERKNS_10ASTContextERKNS_14PrintingPolicyEb
libclangAST.so.8:_ZN5clang8TypeName21getFullyQualifiedTypeENS_8QualTypeERKNS_10ASTContextEb
libclangAST.so.8:_ZN5clang8comments11BriefParser5ParseB5cxx11Ev
libclangAST.so.8:_ZN5clang8comments11BriefParserC1ERNS0_5LexerERKNS0_13CommandTraitsE
libclangAST.so.8:_ZN5clang8comments11BriefParserC2ERNS0_5LexerERKNS0_13CommandTraitsE
libclangAST.so.8:_ZN5clang8comments13CommandTraits20registerBlockCommandEN4llvm9StringRefE
libclangAST.so.8:_ZN5clang8comments13CommandTraits21getBuiltinCommandInfoEN4llvm9StringRefE
libclangAST.so.8:_ZN5clang8comments13CommandTraits21getBuiltinCommandInfoEj
libclangAST.so.8:_ZN5clang8comments13CommandTraits22registerCommentOptionsERKNS_14CommentOptionsE
libclangAST.so.8:_ZN5clang8comments13CommandTraits22registerUnknownCommandEN4llvm9StringRefE
libclangAST.so.8:_ZN5clang8comments13CommandTraits25createCommandInfoWithNameEN4llvm9StringRefE
libclangAST.so.8:_ZN5clang8comments13CommandTraitsC1ERN4llvm20BumpPtrAllocatorImplINS2_15MallocAllocatorELm4096ELm4096EEERKNS_14CommentOptionsE
libclangAST.so.8:_ZN5clang8comments13CommandTraitsC2ERN4llvm20BumpPtrAllocatorImplINS2_15MallocAllocatorELm4096ELm4096EEERKNS_14CommentOptionsE
libclangAST.so.8:_ZN5clang8comments19ParamCommandComment20getDirectionAsStringENS1_13PassDirectionE
libclangAST.so.8:_ZN5clang8comments4Sema11isUnionDeclEv
libclangAST.so.8:_ZN5clang8comments4Sema12getParamVarsEv
libclangAST.so.8:_ZN5clang8comments4Sema14isFunctionDeclEv
libclangAST.so.8:_ZN5clang8comments4Sema15actOnHTMLEndTagENS_14SourceLocationES2_N4llvm9StringRefE
libclangAST.so.8:_ZN5clang8comments4Sema15inspectThisDeclEv
libclangAST.so.8:_ZN5clang8comments4Sema16actOnFullCommentEN4llvm8ArrayRefIPNS0_19BlockContentCommentEEE
libclangAST.so.8:_ZN5clang8comments4Sema16isObjCMethodDeclEv
libclangAST.so.8:_ZN5clang8comments4Sema16isRecordLikeDeclEv
libclangAST.so.8:_ZN5clang8comments4Sema17actOnVerbatimLineENS_14SourceLocationEjS2_N4llvm9StringRefE
libclangAST.so.8:_ZN5clang8comments4Sema17isAnyFunctionDeclEv
libclangAST.so.8:_ZN5clang8comments4Sema18actOnInlineCommandENS_14SourceLocationES2_j
libclangAST.so.8:_ZN5clang8comments4Sema18actOnInlineCommandENS_14SourceLocationES2_jS2_S2_N4llvm9StringRefE
libclangAST.so.8:_ZN5clang8comments4Sema18checkContainerDeclEPKNS0_19BlockCommandCommentE
libclangAST.so.8:_ZN5clang8comments4Sema18isObjCPropertyDeclEv
libclangAST.so.8:_ZN5clang8comments4Sema18isObjCProtocolDeclEv
libclangAST.so.8:_ZN5clang8comments4Sema19actOnUnknownCommandENS_14SourceLocationES2_N4llvm9StringRefE
libclangAST.so.8:_ZN5clang8comments4Sema19actOnUnknownCommandENS_14SourceLocationES2_j
libclangAST.so.8:_ZN5clang8comments4Sema19checkReturnsCommandEPKNS0_19BlockCommandCommentE
libclangAST.so.8:_ZN5clang8comments4Sema19isClassOrStructDeclEv
libclangAST.so.8:_ZN5clang8comments4Sema19isClassTemplateDeclEv
libclangAST.so.8:_ZN5clang8comments4Sema19isObjCInterfaceDeclEv
libclangAST.so.8:_ZN5clang8comments4Sema21actOnBlockCommandArgsEPNS0_19BlockCommandCommentEN4llvm8ArrayRefINS2_8ArgumentEEE
libclangAST.so.8:_ZN5clang8comments4Sema21actOnParagraphCommentEN4llvm8ArrayRefIPNS0_20InlineContentCommentEEE
libclangAST.so.8:_ZN5clang8comments4Sema22actOnBlockCommandStartENS_14SourceLocationES2_jNS0_17CommandMarkerKindE
libclangAST.so.8:_ZN5clang8comments4Sema22actOnHTMLStartTagStartENS_14SourceLocationEN4llvm9StringRefE
libclangAST.so.8:_ZN5clang8comments4Sema22actOnParamCommandStartENS_14SourceLocationES2_jNS0_17CommandMarkerKindE
libclangAST.so.8:_ZN5clang8comments4Sema22actOnVerbatimBlockLineENS_14SourceLocationEN4llvm9StringRefE
libclangAST.so.8:_ZN5clang8comments4Sema22checkDeprecatedCommandEPKNS0_19BlockCommandCommentE
libclangAST.so.8:_ZN5clang8comments4Sema22isFunctionTemplateDeclEv
libclangAST.so.8:_ZN5clang8comments4Sema22resolveTParamReferenceEN4llvm9StringRefEPKNS_21TemplateParameterListEPNS2_15SmallVectorImplIjEE
libclangAST.so.8:_ZN5clang8comments4Sema23actOnBlockCommandFinishEPNS0_19BlockCommandCommentEPNS0_16ParagraphCommentE
libclangAST.so.8:_ZN5clang8comments4Sema23actOnHTMLStartTagFinishEPNS0_19HTMLStartTagCommentEN4llvm8ArrayRefINS2_9AttributeEEENS_14SourceLocationEb
libclangAST.so.8:_ZN5clang8comments4Sema23actOnParamCommandFinishEPNS0_19ParamCommandCommentEPNS0_16ParagraphCommentE
libclangAST.so.8:_ZN5clang8comments4Sema23actOnTParamCommandStartENS_14SourceLocationES2_jNS0_17CommandMarkerKindE
libclangAST.so.8:_ZN5clang8comments4Sema23actOnVerbatimBlockStartENS_14SourceLocationEj
libclangAST.so.8:_ZN5clang8comments4Sema23resolveParmVarReferenceEN4llvm9StringRefENS2_8ArrayRefIPKNS_11ParmVarDeclEEE
libclangAST.so.8:_ZN5clang8comments4Sema24actOnTParamCommandFinishEPNS0_20TParamCommandCommentEPNS0_16ParagraphCommentE
libclangAST.so.8:_ZN5clang8comments4Sema24actOnVerbatimBlockFinishEPNS0_20VerbatimBlockCommentENS_14SourceLocationEN4llvm9StringRefENS5_8ArrayRefIPNS0_24VerbatimBlockLineCommentEEE
libclangAST.so.8:_ZN5clang8comments4Sema24isFunctionPointerVarDeclEv
libclangAST.so.8:_ZN5clang8comments4Sema26checkBlockCommandDuplicateEPKNS0_19BlockCommandCommentE
libclangAST.so.8:_ZN5clang8comments4Sema26isFunctionOrMethodVariadicEv
libclangAST.so.8:_ZN5clang8comments4Sema26isTemplateOrSpecializationEv
libclangAST.so.8:_ZN5clang8comments4Sema26resolveParamCommandIndexesEPKNS0_11FullCommentE
libclangAST.so.8:_ZN5clang8comments4Sema28correctTypoInTParamReferenceEN4llvm9StringRefEPKNS_21TemplateParameterListE
libclangAST.so.8:_ZN5clang8comments4Sema29actOnParamCommandDirectionArgEPNS0_19ParamCommandCommentENS_14SourceLocationES4_N4llvm9StringRefE
libclangAST.so.8:_ZN5clang8comments4Sema29actOnParamCommandParamNameArgEPNS0_19ParamCommandCommentENS_14SourceLocationES4_N4llvm9StringRefE
libclangAST.so.8:_ZN5clang8comments4Sema29checkFunctionDeclVerbatimLineEPKNS0_19BlockCommandCommentE
libclangAST.so.8:_ZN5clang8comments4Sema29correctTypoInParmVarReferenceEN4llvm9StringRefENS2_8ArrayRefIPKNS_11ParmVarDeclEEE
libclangAST.so.8:_ZN5clang8comments4Sema30actOnTParamCommandParamNameArgEPNS0_20TParamCommandCommentENS_14SourceLocationES4_N4llvm9StringRefE
libclangAST.so.8:_ZN5clang8comments4Sema30checkContainerDeclVerbatimLineEPKNS0_19BlockCommandCommentE
libclangAST.so.8:_ZN5clang8comments4Sema31checkBlockCommandEmptyParagraphEPNS0_19BlockCommandCommentE
libclangAST.so.8:_ZN5clang8comments4Sema35isFunctionOrBlockPointerVarLikeDeclEv
libclangAST.so.8:_ZN5clang8comments4Sema7setDeclEPKNS_4DeclE
libclangAST.so.8:_ZN5clang8comments4Sema9actOnTextENS_14SourceLocationES2_N4llvm9StringRefE
libclangAST.so.8:_ZN5clang8comments4SemaC1ERN4llvm20BumpPtrAllocatorImplINS2_15MallocAllocatorELm4096ELm4096EEERKNS_13SourceManagerERNS_17DiagnosticsEngineERNS0_13CommandTraitsEPKNS_12PreprocessorE
libclangAST.so.8:_ZN5clang8comments4SemaC2ERN4llvm20BumpPtrAllocatorImplINS2_15MallocAllocatorELm4096ELm4096EEERKNS_13SourceManagerERNS_17DiagnosticsEngineERNS0_13CommandTraitsEPKNS_12PreprocessorE
libclangAST.so.8:_ZN5clang8comments5Lexer13lexHTMLEndTagERNS0_5TokenE
libclangAST.so.8:_ZN5clang8comments5Lexer14lexCommentTextERNS0_5TokenE
libclangAST.so.8:_ZN5clang8comments5Lexer15lexHTMLStartTagERNS0_5TokenE
libclangAST.so.8:_ZN5clang8comments5Lexer18formTokenWithCharsERNS0_5TokenEPKcNS0_3tok9TokenKindE
libclangAST.so.8:_ZN5clang8comments5Lexer19lexVerbatimLineTextERNS0_5TokenE
libclangAST.so.8:_ZN5clang8comments5Lexer20lexVerbatimBlockBodyERNS0_5TokenE
libclangAST.so.8:_ZN5clang8comments5Lexer21setupAndLexHTMLEndTagERNS0_5TokenE
libclangAST.so.8:_ZN5clang8comments5Lexer23setupAndLexHTMLStartTagERNS0_5TokenE
libclangAST.so.8:_ZN5clang8comments5Lexer23setupAndLexVerbatimLineERNS0_5TokenEPKcPKNS0_11CommandInfoE
libclangAST.so.8:_ZN5clang8comments5Lexer24setupAndLexVerbatimBlockERNS0_5TokenEPKccPKNS0_11CommandInfoE
libclangAST.so.8:_ZN5clang8comments5Lexer25lexHTMLCharacterReferenceERNS0_5TokenE
libclangAST.so.8:_ZN5clang8comments5Lexer25lexVerbatimBlockFirstLineERNS0_5TokenE
libclangAST.so.8:_ZN5clang8comments5Lexer27skipLineStartingDecorationsEv
libclangAST.so.8:_ZN5clang8comments5Lexer3lexERNS0_5TokenE
libclangAST.so.8:_ZN5clang8comments5LexerC1ERN4llvm20BumpPtrAllocatorImplINS2_15MallocAllocatorELm4096ELm4096EEERNS_17DiagnosticsEngineERKNS0_13CommandTraitsENS_14SourceLocationEPKcSE_b
libclangAST.so.8:_ZN5clang8comments5LexerC2ERN4llvm20BumpPtrAllocatorImplINS2_15MallocAllocatorELm4096ELm4096EEERNS_17DiagnosticsEngineERKNS0_13CommandTraitsENS_14SourceLocationEPKcSE_b
libclangAST.so.8:_ZN5clang8comments6Parser15parseHTMLEndTagEv
libclangAST.so.8:_ZN5clang8comments6Parser16parseFullCommentEv
libclangAST.so.8:_ZN5clang8comments6Parser17parseBlockCommandEv
libclangAST.so.8:_ZN5clang8comments6Parser17parseBlockContentEv
libclangAST.so.8:_ZN5clang8comments6Parser17parseHTMLStartTagEv
libclangAST.so.8:_ZN5clang8comments6Parser17parseVerbatimLineEv
libclangAST.so.8:_ZN5clang8comments6Parser18parseInlineCommandEv
libclangAST.so.8:_ZN5clang8comments6Parser18parseVerbatimBlockEv
libclangAST.so.8:_ZN5clang8comments6Parser21parseBlockCommandArgsEPNS0_19BlockCommandCommentERNS0_20TextTokenRetokenizerEj
libclangAST.so.8:_ZN5clang8comments6Parser21parseParamCommandArgsEPNS0_19ParamCommandCommentERNS0_20TextTokenRetokenizerE
libclangAST.so.8:_ZN5clang8comments6Parser22parseTParamCommandArgsEPNS0_20TParamCommandCommentERNS0_20TextTokenRetokenizerE
libclangAST.so.8:_ZN5clang8comments6Parser28parseParagraphOrBlockCommandEv
libclangAST.so.8:_ZN5clang8comments6ParserC1ERNS0_5LexerERNS0_4SemaERN4llvm20BumpPtrAllocatorImplINS6_15MallocAllocatorELm4096ELm4096EEERKNS_13SourceManagerERNS_17DiagnosticsEngineERKNS0_13CommandTraitsE
libclangAST.so.8:_ZN5clang8comments6ParserC2ERNS0_5LexerERNS0_4SemaERN4llvm20BumpPtrAllocatorImplINS6_15MallocAllocatorELm4096ELm4096EEERKNS_13SourceManagerERNS_17DiagnosticsEngineERKNS0_13CommandTraitsE
libclangAST.so.8:_ZN5clang8comments8DeclInfo4fillEv
libclangAST.so.8:_ZN5clang9BlockDecl11setCapturesERNS_10ASTContextEN4llvm8ArrayRefINS0_7CaptureEEEb
libclangAST.so.8:_ZN5clang9BlockDecl18CreateDeserializedERNS_10ASTContextEj
libclangAST.so.8:_ZN5clang9BlockDecl6CreateERNS_10ASTContextEPNS_11DeclContextENS_14SourceLocationE
libclangAST.so.8:_ZN5clang9BlockDecl9setParamsEN4llvm8ArrayRefIPNS_11ParmVarDeclEEE
libclangAST.so.8:_ZN5clang9BlockDeclC1EPNS_11DeclContextENS_14SourceLocationE
libclangAST.so.8:_ZN5clang9BlockDeclC2EPNS_11DeclContextENS_14SourceLocationE
libclangAST.so.8:_ZN5clang9BlockExpr7getBodyEv
libclangAST.so.8:_ZN5clang9DeclGroup6CreateERNS_10ASTContextEPPNS_4DeclEj
libclangAST.so.8:_ZN5clang9DeclGroupC1EjPPNS_4DeclE
libclangAST.so.8:_ZN5clang9DeclGroupC2EjPPNS_4DeclE
libclangAST.so.8:_ZN5clang9EmptyDecl18CreateDeserializedERNS_10ASTContextEj
libclangAST.so.8:_ZN5clang9EmptyDecl6CreateERNS_10ASTContextEPNS_11DeclContextENS_14SourceLocationE
libclangAST.so.8:_ZN5clang9EmptyDecl6anchorEv
libclangAST.so.8:_ZN5clang9FieldDecl18CreateDeserializedERNS_10ASTContextEj
libclangAST.so.8:_ZN5clang9FieldDecl18setCapturedVLATypeEPKNS_17VariableArrayTypeE
libclangAST.so.8:_ZN5clang9FieldDecl6CreateERKNS_10ASTContextEPNS_11DeclContextENS_14SourceLocationES6_PNS_14IdentifierInfoENS_8QualTypeEPNS_14TypeSourceInfoEPNS_4ExprEbNS_16InClassInitStyleE
libclangAST.so.8:_ZN5clang9LabelDecl13setMSAsmLabelEN4llvm9StringRefE
libclangAST.so.8:_ZN5clang9LabelDecl18CreateDeserializedERNS_10ASTContextEj
libclangAST.so.8:_ZN5clang9LabelDecl6CreateERNS_10ASTContextEPNS_11DeclContextENS_14SourceLocationEPNS_14IdentifierInfoE
libclangAST.so.8:_ZN5clang9LabelDecl6CreateERNS_10ASTContextEPNS_11DeclContextENS_14SourceLocationEPNS_14IdentifierInfoES5_
libclangAST.so.8:_ZN5clang9LabelDecl6anchorEv
libclangAST.so.8:_ZN5clang9MSAsmStmt10initializeERKNS_10ASTContextEN4llvm9StringRefENS4_8ArrayRefINS_5TokenEEENS6_IS5_EENS6_IPNS_4ExprEEES9_
libclangAST.so.8:_ZN5clang9MSAsmStmt12getInputExprEj
libclangAST.so.8:_ZN5clang9MSAsmStmt12setInputExprEjPNS_4ExprE
libclangAST.so.8:_ZN5clang9MSAsmStmt13getOutputExprEj
libclangAST.so.8:_ZN5clang9MSAsmStmtC1ERKNS_10ASTContextENS_14SourceLocationES4_bbN4llvm8ArrayRefINS_5TokenEEEjjNS6_INS5_9StringRefEEENS6_IPNS_4ExprEEES9_SA_S4_
libclangAST.so.8:_ZN5clang9MSAsmStmtC2ERKNS_10ASTContextENS_14SourceLocationES4_bbN4llvm8ArrayRefINS_5TokenEEEjjNS6_INS5_9StringRefEEENS6_IPNS_4ExprEEES9_SA_S4_
libclangAST.so.8:_ZN5clang9NamedDecl21getUnderlyingDeclImplEv
libclangAST.so.8:_ZN5clang9NamedDecl6anchorEv
libclangAST.so.8:_ZN5clang9OMPClause8childrenEv
libclangAST.so.8:_ZN5clang9ParentMap7addStmtEPNS_4StmtE
libclangAST.so.8:_ZN5clang9ParentMap9setParentEPKNS_4StmtES3_
libclangAST.so.8:_ZN5clang9ParentMapC1EPNS_4StmtE
libclangAST.so.8:_ZN5clang9ParentMapC2EPNS_4StmtE
libclangAST.so.8:_ZN5clang9ParentMapD1Ev
libclangAST.so.8:_ZN5clang9ParentMapD2Ev
libclangAST.so.8:_ZN5clang9UsingDecl13addShadowDeclEPNS_15UsingShadowDeclE
libclangAST.so.8:_ZN5clang9UsingDecl16removeShadowDeclEPNS_15UsingShadowDeclE
libclangAST.so.8:_ZN5clang9UsingDecl18CreateDeserializedERNS_10ASTContextEj
libclangAST.so.8:_ZN5clang9UsingDecl6CreateERNS_10ASTContextEPNS_11DeclContextENS_14SourceLocationENS_22NestedNameSpecifierLocERKNS_19DeclarationNameInfoEb
libclangAST.so.8:_ZN5clang9UsingDecl6anchorEv
libclangAST.so.8:_ZN5clang9ValueDecl6anchorEv
libclangAST.so.8:_ZN5clang9WhileStmt11CreateEmptyERKNS_10ASTContextEb
libclangAST.so.8:_ZN5clang9WhileStmt20getConditionVariableEv
libclangAST.so.8:_ZN5clang9WhileStmt20setConditionVariableERKNS_10ASTContextEPNS_7VarDeclE
libclangAST.so.8:_ZN5clang9WhileStmt6CreateERKNS_10ASTContextEPNS_7VarDeclEPNS_4ExprEPNS_4StmtENS_14SourceLocationE
libclangAST.so.8:_ZN5clang9WhileStmtC1ENS_4Stmt10EmptyShellEb
libclangAST.so.8:_ZN5clang9WhileStmtC1ERKNS_10ASTContextEPNS_7VarDeclEPNS_4ExprEPNS_4StmtENS_14SourceLocationE
libclangAST.so.8:_ZN5clang9WhileStmtC2ENS_4Stmt10EmptyShellEb
libclangAST.so.8:_ZN5clang9WhileStmtC2ERKNS_10ASTContextEPNS_7VarDeclEPNS_4ExprEPNS_4StmtENS_14SourceLocationE
libclangAST.so.8:_ZN5clanglsERKNS_17DiagnosticBuilderENS_12TemplateNameE
libclangAST.so.8:_ZN5clanglsERKNS_17DiagnosticBuilderENS_15AccessSpecifierE
libclangAST.so.8:_ZN5clanglsERKNS_17DiagnosticBuilderERKNS_16TemplateArgumentE
libclangAST.so.8:_ZN5clanglsERKNS_17PartialDiagnosticENS_15AccessSpecifierE
libclangAST.so.8:_ZN5clanglsERN4llvm11raw_ostreamENS_15DeclarationNameE
libclangAST.so.8:_ZN5clanglsERN4llvm11raw_ostreamERKNS_20ObjCCategoryImplDeclE
libclangAST.so.8:_ZN5clanglsERN4llvm11raw_ostreamERKNS_22ObjCImplementationDeclE
libclangAST.so.8:_ZNK5clang10ASTContext10PrintStatsEv
libclangAST.so.8:_ZNK5clang10ASTContext11getAutoTypeENS_8QualTypeENS_15AutoTypeKeywordEb
libclangAST.so.8:_ZNK5clang10ASTContext11getEnumTypeEPKNS_8EnumDeclE
libclangAST.so.8:_ZNK5clang10ASTContext11getIntWidthENS_8QualTypeE
libclangAST.so.8:_ZNK5clang10ASTContext11getPipeTypeENS_8QualTypeEb
libclangAST.so.8:_ZNK5clang10ASTContext11getSizeTypeEv
libclangAST.so.8:_ZNK5clang10ASTContext11getTypeInfoEPKNS_4TypeE
libclangAST.so.8:_ZNK5clang10ASTContext12getDeclAlignEPKNS_4DeclEb
libclangAST.so.8:_ZNK5clang10ASTContext12getParenTypeENS_8QualTypeE
libclangAST.so.8:_ZNK5clang10ASTContext13getAtomicTypeENS_8QualTypeE
libclangAST.so.8:_ZNK5clang10ASTContext13getInt128DeclEv
libclangAST.so.8:_ZNK5clang10ASTContext13getIntMaxTypeEv
libclangAST.so.8:_ZNK5clang10ASTContext13getIntPtrTypeEv
libclangAST.so.8:_ZNK5clang10ASTContext13getObjCIdDeclEv
libclangAST.so.8:_ZNK5clang10ASTContext13getObjCLayoutEPKNS_17ObjCInterfaceDeclEPKNS_22ObjCImplementationDeclE
libclangAST.so.8:_ZNK5clang10ASTContext13getRecordTypeEPKNS_10RecordDeclE
libclangAST.so.8:_ZNK5clang10ASTContext13getTypeOfTypeENS_8QualTypeE
libclangAST.so.8:_ZNK5clang10ASTContext13getVectorTypeENS_8QualTypeEjNS_10VectorType10VectorKindE
libclangAST.so.8:_ZNK5clang10ASTContext13isNearlyEmptyEPKNS_13CXXRecordDeclE
libclangAST.so.8:_ZNK5clang10ASTContext14GetBuiltinTypeEjRNS0_19GetBuiltinTypeErrorEPj
libclangAST.so.8:_ZNK5clang10ASTContext14getAsArrayTypeENS_8QualTypeE
libclangAST.so.8:_ZNK5clang10ASTContext14getComplexTypeENS_8QualTypeE
libclangAST.so.8:_ZNK5clang10ASTContext14getDecayedTypeENS_8QualTypeE
libclangAST.so.8:_ZNK5clang10ASTContext14getDiagnosticsEv
libclangAST.so.8:_ZNK5clang10ASTContext14getExtQualTypeEPKNS_4TypeENS_10QualifiersE
libclangAST.so.8:_ZNK5clang10ASTContext14getFieldOffsetEPKNS_9ValueDeclE
libclangAST.so.8:_ZNK5clang10ASTContext14getIntegerRankEPKNS_4TypeE
libclangAST.so.8:_ZNK5clang10ASTContext14getObjCSelDeclEv
libclangAST.so.8:_ZNK5clang10ASTContext14getPointerTypeENS_8QualTypeE
libclangAST.so.8:_ZNK5clang10ASTContext14getTagDeclTypeEPKNS_7TagDeclE
libclangAST.so.8:_ZNK5clang10ASTContext14getTypedefTypeEPKNS_15TypedefNameDeclENS_8QualTypeE
libclangAST.so.8:_ZNK5clang10ASTContext14getUInt128DeclEv
libclangAST.so.8:_ZNK5clang10ASTContext14getUIntMaxTypeEv
libclangAST.so.8:_ZNK5clang10ASTContext14getUIntPtrTypeEv
libclangAST.so.8:_ZNK5clang10ASTContext15getAdjustedTypeENS_8QualTypeES1_
libclangAST.so.8:_ZNK5clang10ASTContext15getDecltypeTypeEPNS_4ExprENS_8QualTypeE
libclangAST.so.8:_ZNK5clang10ASTContext15getReadPipeTypeENS_8QualTypeE
libclangAST.so.8:_ZNK5clang10ASTContext15getTypeInfoImplEPKNS_4TypeE
libclangAST.so.8:_ZNK5clang10ASTContext16DumpRecordLayoutEPKNS_10RecordDeclERN4llvm11raw_ostreamEb
libclangAST.so.8:_ZNK5clang10ASTContext16cloneFullCommentEPNS_8comments11FullCommentEPKNS_4DeclE
libclangAST.so.8:_ZNK5clang10ASTContext16getByrefLifetimeENS_8QualTypeERNS_10Qualifiers12ObjCLifetimeERb
libclangAST.so.8:_ZNK5clang10ASTContext16getExtVectorTypeENS_8QualTypeEj
libclangAST.so.8:_ZNK5clang10ASTContext16getFixedPointMaxENS_8QualTypeE
libclangAST.so.8:_ZNK5clang10ASTContext16getFixedPointMinENS_8QualTypeE
libclangAST.so.8:_ZNK5clang10ASTContext16getObjCClassDeclEv
libclangAST.so.8:_ZNK5clang10ASTContext16getObjCSuperTypeEv
libclangAST.so.8:_ZNK5clang10ASTContext16getProcessIDTypeEv
libclangAST.so.8:_ZNK5clang10ASTContext16getVaListTagDeclEv
libclangAST.so.8:_ZNK5clang10ASTContext16getWritePipeTypeENS_8QualTypeE
libclangAST.so.8:_ZNK5clang10ASTContext17getAutoDeductTypeEv
libclangAST.so.8:_ZNK5clang10ASTContext17getCommentForDeclEPKNS_4DeclEPKNS_12PreprocessorE
libclangAST.so.8:_ZNK5clang10ASTContext17getElaboratedTypeENS_21ElaboratedTypeKeywordEPNS_19NestedNameSpecifierENS_8QualTypeEPNS_7TagDeclE
libclangAST.so.8:_ZNK5clang10ASTContext17getFromTargetTypeEj
libclangAST.so.8:_ZNK5clang10ASTContext17getManglingNumberEPKNS_9NamedDeclE
libclangAST.so.8:_ZNK5clang10ASTContext17getObjCGCAttrKindENS_8QualTypeE
libclangAST.so.8:_ZNK5clang10ASTContext17getObjCGCQualTypeENS_8QualTypeENS_10Qualifiers2GCE
libclangAST.so.8:_ZNK5clang10ASTContext17getObjCObjectTypeENS_8QualTypeEN4llvm8ArrayRefIS1_EENS3_IPNS_16ObjCProtocolDeclEEEb
libclangAST.so.8:_ZNK5clang10ASTContext17getObjCObjectTypeENS_8QualTypeEPKPNS_16ObjCProtocolDeclEj
libclangAST.so.8:_ZNK5clang10ASTContext17getOpenCLTypeKindEPKNS_4TypeE
libclangAST.so.8:_ZNK5clang10ASTContext17getParameterIndexEPKNS_11ParmVarDeclE
libclangAST.so.8:_ZNK5clang10ASTContext17getSignedSizeTypeEv
libclangAST.so.8:_ZNK5clang10ASTContext17getTypeOfExprTypeEPNS_4ExprE
libclangAST.so.8:_ZNK5clang10ASTContext18CountNonClassIvarsEPKNS_17ObjCInterfaceDeclE
libclangAST.so.8:_ZNK5clang10ASTContext18getASTRecordLayoutEPKNS_10RecordDeclE
libclangAST.so.8:_ZNK5clang10ASTContext18getBaseElementTypeENS_8QualTypeE
libclangAST.so.8:_ZNK5clang10ASTContext18getBaseElementTypeEPKNS_9ArrayTypeE
libclangAST.so.8:_ZNK5clang10ASTContext18getFixedPointIBitsENS_8QualTypeE
libclangAST.so.8:_ZNK5clang10ASTContext18getFixedPointScaleENS_8QualTypeE
libclangAST.so.8:_ZNK5clang10ASTContext18getNameForTemplateENS_12TemplateNameENS_14SourceLocationE
libclangAST.so.8:_ZNK5clang10ASTContext18getPointerDiffTypeEv
libclangAST.so.8:_ZNK5clang10ASTContext18getSignedWCharTypeEv
libclangAST.so.8:_ZNK5clang10ASTContext18getTypeInfoInCharsENS_8QualTypeE
libclangAST.so.8:_ZNK5clang10ASTContext18getTypeInfoInCharsEPKNS_4TypeE
libclangAST.so.8:_ZNK5clang10ASTContext18getTypeSizeInCharsENS_8QualTypeE
libclangAST.so.8:_ZNK5clang10ASTContext18getTypeSizeInCharsEPKNS_4TypeE
libclangAST.so.8:_ZNK5clang10ASTContext18overridden_methodsEPKNS_13CXXMethodDeclE
libclangAST.so.8:_ZNK5clang10ASTContext19buildImplicitRecordEN4llvm9StringRefENS_11TagTypeKindE
libclangAST.so.8:_ZNK5clang10ASTContext19getAlignOfGlobalVarENS_8QualTypeE
libclangAST.so.8:_ZNK5clang10ASTContext19getArrayDecayedTypeENS_8QualTypeE
libclangAST.so.8:_ZNK5clang10ASTContext19getBlockPointerTypeENS_8QualTypeE
libclangAST.so.8:_ZNK5clang10ASTContext19getBlockVarCopyInitEPKNS_7VarDeclE
libclangAST.so.8:_ZNK5clang10ASTContext19getIntegerTypeOrderENS_8QualTypeES1_
libclangAST.so.8:_ZNK5clang10ASTContext19getObjCProtocolDeclEv
libclangAST.so.8:_ZNK5clang10ASTContext19getTypeAlignIfKnownENS_8QualTypeE
libclangAST.so.8:_ZNK5clang10ASTContext19getTypeAlignInCharsENS_8QualTypeE
libclangAST.so.8:_ZNK5clang10ASTContext19getTypeAlignInCharsEPKNS_4TypeE
libclangAST.so.8:_ZNK5clang10ASTContext19getTypeDeclTypeSlowEPKNS_8TypeDeclE
libclangAST.so.8:_ZNK5clang10ASTContext19isAlignmentRequiredENS_8QualTypeE
libclangAST.so.8:_ZNK5clang10ASTContext19isAlignmentRequiredEPKNS_4TypeE
libclangAST.so.8:_ZNK5clang10ASTContext19toCharUnitsFromBitsEl
libclangAST.so.8:_ZNK5clang10ASTContext20CreateTypeSourceInfoENS_8QualTypeEj
libclangAST.so.8:_ZNK5clang10ASTContext20DeepCollectObjCIvarsEPKNS_17ObjCInterfaceDeclEbRN4llvm15SmallVectorImplIPKNS_12ObjCIvarDeclEEE
libclangAST.so.8:_ZNK5clang10ASTContext20buildImplicitTypedefENS_8QualTypeEN4llvm9StringRefE
libclangAST.so.8:_ZNK5clang10ASTContext20getAddrSpaceQualTypeENS_8QualTypeENS_6LangASE
libclangAST.so.8:_ZNK5clang10ASTContext20getBuiltinVaListDeclEv
libclangAST.so.8:_ZNK5clang10ASTContext20getConstantArrayTypeENS_8QualTypeERKN4llvm5APIntENS_9ArrayType17ArraySizeModifierEj
libclangAST.so.8:_ZNK5clang10ASTContext20getDependentNameTypeENS_21ElaboratedTypeKeywordEPNS_19NestedNameSpecifierEPKNS_14IdentifierInfoENS_8QualTypeE
libclangAST.so.8:_ZNK5clang10ASTContext20getFloatingTypeOrderENS_8QualTypeES1_
libclangAST.so.8:_ZNK5clang10ASTContext20getMemberPointerTypeENS_8QualTypeEPKNS_4TypeE
libclangAST.so.8:_ZNK5clang10ASTContext20getObjCInterfaceTypeEPKNS_17ObjCInterfaceDeclEPS1_
libclangAST.so.8:_ZNK5clang10ASTContext20getObjCTypeParamTypeEPKNS_17ObjCTypeParamDeclEN4llvm8ArrayRefIPNS_16ObjCProtocolDeclEEENS_8QualTypeE
libclangAST.so.8:_ZNK5clang10ASTContext20getOverriddenMethodsEPKNS_9NamedDeclERN4llvm15SmallVectorImplIS3_EE
libclangAST.so.8:_ZNK5clang10ASTContext20getStaticLocalNumberEPKNS_7VarDeclE
libclangAST.so.8:_ZNK5clang10ASTContext20getUnsignedWCharTypeEv
libclangAST.so.8:_ZNK5clang10ASTContext20getVariableArrayTypeENS_8QualTypeEPNS_4ExprENS_9ArrayType17ArraySizeModifierEjNS_11SourceRangeE
libclangAST.so.8:_ZNK5clang10ASTContext20isPromotableBitFieldEPNS_4ExprE
libclangAST.so.8:_ZNK5clang10ASTContext20lookupFieldBitOffsetEPKNS_17ObjCInterfaceDeclEPKNS_22ObjCImplementationDeclEPKNS_12ObjCIvarDeclE
libclangAST.so.8:_ZNK5clang10ASTContext21getAutoRRefDeductTypeEv
libclangAST.so.8:_ZNK5clang10ASTContext21getCanonicalParamTypeENS_8QualTypeE
libclangAST.so.8:_ZNK5clang10ASTContext21getExternCContextDeclEv
libclangAST.so.8:_ZNK5clang10ASTContext21getFloatTypeSemanticsENS_8QualTypeE
libclangAST.so.8:_ZNK5clang10ASTContext21getInnerObjCOwnershipENS_8QualTypeE
libclangAST.so.8:_ZNK5clang10ASTContext21getIntTypeForBitwidthEjj
libclangAST.so.8:_ZNK5clang10ASTContext21getMakeIntegerSeqDeclEv
libclangAST.so.8:_ZNK5clang10ASTContext21getPreferredTypeAlignEPKNS_4TypeE
libclangAST.so.8:_ZNK5clang10ASTContext21getTargetAddressSpaceENS_6LangASE
libclangAST.so.8:_ZNK5clang10ASTContext21getUnaryTransformTypeENS_8QualTypeES1_NS_18UnaryTransformType7UTTKindE
libclangAST.so.8:_ZNK5clang10ASTContext22canBuiltinBeRedeclaredEPKNS_12FunctionDeclE
libclangAST.so.8:_ZNK5clang10ASTContext22getBlockDescriptorTypeEv
libclangAST.so.8:_ZNK5clang10ASTContext22getBuiltinMSVaListDeclEv
libclangAST.so.8:_ZNK5clang10ASTContext22getDependentVectorTypeENS_8QualTypeEPNS_4ExprENS_14SourceLocationENS_10VectorType10VectorKindE
libclangAST.so.8:_ZNK5clang10ASTContext22getExceptionObjectTypeENS_8QualTypeE
libclangAST.so.8:_ZNK5clang10ASTContext22getFixedPointSemanticsENS_8QualTypeE
libclangAST.so.8:_ZNK5clang10ASTContext22getFunctionNoProtoTypeENS_8QualTypeERKNS_12FunctionType7ExtInfoE
libclangAST.so.8:_ZNK5clang10ASTContext22getIncompleteArrayTypeENS_8QualTypeENS_9ArrayType17ArraySizeModifierEj
libclangAST.so.8:_ZNK5clang10ASTContext22getLValueReferenceTypeENS_8QualTypeEb
libclangAST.so.8:_ZNK5clang10ASTContext22getObjCEncodingForTypeENS_8QualTypeERNSt7__cxx1112basic_stringIcSt11char_traitsIcESaIcEEEPKNS_9FieldDeclEPS1_
libclangAST.so.8:_ZNK5clang10ASTContext22getOpenCLTypeAddrSpaceEPKNS_4TypeE
libclangAST.so.8:_ZNK5clang10ASTContext22getPromotedIntegerTypeENS_8QualTypeE
libclangAST.so.8:_ZNK5clang10ASTContext22getRValueReferenceTypeENS_8QualTypeE
libclangAST.so.8:_ZNK5clang10ASTContext22getRealTypeForBitwidthEj
libclangAST.so.8:_ZNK5clang10ASTContext22getTypePackElementDeclEv
libclangAST.so.8:_ZNK5clang10ASTContext22getTypeUnadjustedAlignEPKNS_4TypeE
libclangAST.so.8:_ZNK5clang10ASTContext22overridden_methods_endEPKNS_13CXXMethodDeclE
libclangAST.so.8:_ZNK5clang10ASTContext23getCFConstantStringDeclEv
libclangAST.so.8:_ZNK5clang10ASTContext23getCFConstantStringTypeEv
libclangAST.so.8:_ZNK5clang10ASTContext23getFunctionTypeInternalENS_8QualTypeEN4llvm8ArrayRefIS1_EERKNS_17FunctionProtoType12ExtProtoInfoEb
libclangAST.so.8:_ZNK5clang10ASTContext23getObjCEncodingForBlockB5cxx11EPKNS_9BlockExprE
libclangAST.so.8:_ZNK5clang10ASTContext23getObjCEncodingTypeSizeENS_8QualTypeE
libclangAST.so.8:_ZNK5clang10ASTContext23getTemplateTypeParmTypeEjjbPNS_20TemplateTypeParmDeclE
libclangAST.so.8:_ZNK5clang10ASTContext23overridden_methods_sizeEPKNS_13CXXMethodDeclE
libclangAST.so.8:_ZNK5clang10ASTContext23removeAddrSpaceQualTypeENS_8QualTypeE
libclangAST.so.8:_ZNK5clang10ASTContext24GetGVALinkageForFunctionEPKNS_12FunctionDeclE
libclangAST.so.8:_ZNK5clang10ASTContext24buildBuiltinTemplateDeclENS_19BuiltinTemplateKindEPKNS_14IdentifierInfoE
libclangAST.so.8:_ZNK5clang10ASTContext24getAdjustedParameterTypeENS_8QualTypeE
libclangAST.so.8:_ZNK5clang10ASTContext24getCanonicalTemplateNameENS_12TemplateNameE
libclangAST.so.8:_ZNK5clang10ASTContext24getDependentTemplateNameEPNS_19NestedNameSpecifierENS_22OverloadedOperatorKindE
libclangAST.so.8:_ZNK5clang10ASTContext24getDependentTemplateNameEPNS_19NestedNameSpecifierEPKNS_14IdentifierInfoE
libclangAST.so.8:_ZNK5clang10ASTContext24getInjectedClassNameTypeEPNS_13CXXRecordDeclENS_8QualTypeE
libclangAST.so.8:_ZNK5clang10ASTContext24getObjCObjectPointerTypeENS_8QualTypeE
libclangAST.so.8:_ZNK5clang10ASTContext24getOffsetOfBaseWithVBPtrEPKNS_13CXXRecordDeclE
libclangAST.so.8:_ZNK5clang10ASTContext24getQualifiedTemplateNameEPNS_19NestedNameSpecifierEbPNS_12TemplateDeclE
libclangAST.so.8:_ZNK5clang10ASTContext24getTrivialTypeSourceInfoENS_8QualTypeENS_14SourceLocationE
libclangAST.so.8:_ZNK5clang10ASTContext24overridden_methods_beginEPKNS_13CXXMethodDeclE
libclangAST.so.8:_ZNK5clang10ASTContext25getASTObjCInterfaceLayoutEPKNS_17ObjCInterfaceDeclE
libclangAST.so.8:_ZNK5clang10ASTContext25getObjContainingInterfaceEPKNS_9NamedDeclE
libclangAST.so.8:_ZNK5clang10ASTContext25getOpenMPDefaultSimdAlignENS_8QualTypeE
libclangAST.so.8:_ZNK5clang10ASTContext25getOverloadedTemplateNameENS_21UnresolvedSetIteratorES1_
libclangAST.so.8:_ZNK5clang10ASTContext25getRawCommentForAnyRedeclEPKNS_4DeclEPS3_
libclangAST.so.8:_ZNK5clang10ASTContext25getSignatureParameterTypeENS_8QualTypeE
libclangAST.so.8:_ZNK5clang10ASTContext25getTargetNullPointerValueENS_8QualTypeE
libclangAST.so.8:_ZNK5clang10ASTContext26getAlignOfGlobalVarInCharsENS_8QualTypeE
libclangAST.so.8:_ZNK5clang10ASTContext26getCFConstantStringTagDeclEv
libclangAST.so.8:_ZNK5clang10ASTContext26getDependentSizedArrayTypeENS_8QualTypeEPNS_4ExprENS_9ArrayType17ArraySizeModifierEjNS_11SourceRangeE
libclangAST.so.8:_ZNK5clang10ASTContext26getObjCEncodingForTypeImplENS_8QualTypeERNSt7__cxx1112basic_stringIcSt11char_traitsIcESaIcEEEbbPKNS_9FieldDeclEbbbbbbPS1_
libclangAST.so.8:_ZNK5clang10ASTContext26getObjCMethodRedeclarationEPKNS_14ObjCMethodDeclE
libclangAST.so.8:_ZNK5clang10ASTContext26getTypeInfoDataSizeInCharsENS_8QualTypeE
libclangAST.so.8:_ZNK5clang10ASTContext26getUnsignedPointerDiffTypeEv
libclangAST.so.8:_ZNK5clang10ASTContext27adjustStringLiteralBaseTypeENS_8QualTypeE
libclangAST.so.8:_ZNK5clang10ASTContext27applyObjCProtocolQualifiersENS_8QualTypeEN4llvm8ArrayRefIPNS_16ObjCProtocolDeclEEERbb
libclangAST.so.8:_ZNK5clang10ASTContext27getDefaultCallingConventionEbb
libclangAST.so.8:_ZNK5clang10ASTContext27getRawCommentForDeclNoCacheEPKNS_4DeclE
libclangAST.so.8:_ZNK5clang10ASTContext27getSideTableAllocatedMemoryEv
libclangAST.so.8:_ZNK5clang10ASTContext27getVariableArrayDecayedTypeENS_8QualTypeE
libclangAST.so.8:_ZNK5clang10ASTContext28AtomicUsesUnsupportedLibcallEPKNS_10AtomicExprE
libclangAST.so.8:_ZNK5clang10ASTContext28createMangleNumberingContextEv
libclangAST.so.8:_ZNK5clang10ASTContext28getCanonicalTemplateArgumentERKNS_16TemplateArgumentE
libclangAST.so.8:_ZNK5clang10ASTContext28getConstantArrayElementCountEPKNS_17ConstantArrayTypeE
libclangAST.so.8:_ZNK5clang10ASTContext28getCorrespondingUnsignedTypeENS_8QualTypeE
libclangAST.so.8:_ZNK5clang10ASTContext28getDependentAddressSpaceTypeENS_8QualTypeEPNS_4ExprENS_14SourceLocationE
libclangAST.so.8:_ZNK5clang10ASTContext28getObjCEncodingForMethodDeclB5cxx11EPKNS_14ObjCMethodDeclEb
libclangAST.so.8:_ZNK5clang10ASTContext28getSubstTemplateTemplateParmEPNS_24TemplateTemplateParmDeclENS_12TemplateNameE
libclangAST.so.8:_ZNK5clang10ASTContext28getSubstTemplateTypeParmTypeEPKNS_20TemplateTypeParmTypeENS_8QualTypeE
libclangAST.so.8:_ZNK5clang10ASTContext29getCorrespondingSaturatedTypeENS_8QualTypeE
libclangAST.so.8:_ZNK5clang10ASTContext29getLegacyIntegralTypeEncodingERNS_8QualTypeE
libclangAST.so.8:_ZNK5clang10ASTContext29getTemplateSpecializationTypeENS_12TemplateNameEN4llvm8ArrayRefINS_16TemplateArgumentEEENS_8QualTypeE
libclangAST.so.8:_ZNK5clang10ASTContext29getTemplateSpecializationTypeENS_12TemplateNameERKNS_24TemplateArgumentListInfoENS_8QualTypeE
libclangAST.so.8:_ZNK5clang10ASTContext29getTypeUnadjustedAlignInCharsENS_8QualTypeE
libclangAST.so.8:_ZNK5clang10ASTContext29getTypeUnadjustedAlignInCharsEPKNS_4TypeE
libclangAST.so.8:_ZNK5clang10ASTContext30ProtocolCompatibleWithProtocolEPNS_16ObjCProtocolDeclES2_
libclangAST.so.8:_ZNK5clang10ASTContext30getASTObjCImplementationLayoutEPKNS_22ObjCImplementationDeclE
libclangAST.so.8:_ZNK5clang10ASTContext30getBlockDescriptorExtendedTypeEv
libclangAST.so.8:_ZNK5clang10ASTContext30getCanonicalFunctionResultTypeENS_8QualTypeE
libclangAST.so.8:_ZNK5clang10ASTContext30getDependentSizedExtVectorTypeENS_8QualTypeEPNS_4ExprENS_14SourceLocationE
libclangAST.so.8:_ZNK5clang10ASTContext30getLocalCommentForDeclUncachedEPKNS_4DeclE
libclangAST.so.8:_ZNK5clang10ASTContext30getObjCEncodingForFunctionDeclB5cxx11EPKNS_12FunctionDeclE
libclangAST.so.8:_ZNK5clang10ASTContext30getObjCEncodingForPropertyDeclB5cxx11EPKNS_16ObjCPropertyDeclEPKNS_4DeclE
libclangAST.so.8:_ZNK5clang10ASTContext30getObjCEncodingForPropertyTypeENS_8QualTypeERNSt7__cxx1112basic_stringIcSt11char_traitsIcESaIcEEE
libclangAST.so.8:_ZNK5clang10ASTContext30hasUniqueObjectRepresentationsENS_8QualTypeE
libclangAST.so.8:_ZNK5clang10ASTContext31getCanonicalNestedNameSpecifierEPNS_19NestedNameSpecifierE
libclangAST.so.8:_ZNK5clang10ASTContext31getInlineVariableDefinitionKindEPKNS_7VarDeclE
libclangAST.so.8:_ZNK5clang10ASTContext31getLangASForBuiltinAddressSpaceEj
libclangAST.so.8:_ZNK5clang10ASTContext31getObjCEncodingForStructureImplEPNS_10RecordDeclERNSt7__cxx1112basic_stringIcSt11char_traitsIcESaIcEEEPKNS_9FieldDeclEbPNS_8QualTypeE
libclangAST.so.8:_ZNK5clang10ASTContext31getObjCEncodingForTypeQualifierENS_4Decl17ObjCDeclQualifierERNSt7__cxx1112basic_stringIcSt11char_traitsIcESaIcEEE
libclangAST.so.8:_ZNK5clang10ASTContext32getSubstTemplateTemplateParmPackEPNS_24TemplateTemplateParmDeclERKNS_16TemplateArgumentE
libclangAST.so.8:_ZNK5clang10ASTContext33getFloatingTypeOfSizeWithinDomainENS_8QualTypeES1_
libclangAST.so.8:_ZNK5clang10ASTContext33getObjCEncodingForMethodParameterENS_4Decl17ObjCDeclQualifierENS_8QualTypeERNSt7__cxx1112basic_stringIcSt11char_traitsIcESaIcEEEb
libclangAST.so.8:_ZNK5clang10ASTContext33getTemplateSpecializationTypeInfoENS_12TemplateNameENS_14SourceLocationERKNS_24TemplateArgumentListInfoENS_8QualTypeE
libclangAST.so.8:_ZNK5clang10ASTContext36forEachMultiversionedFunctionVersionEPKNS_12FunctionDeclEN4llvm12function_refIFvPS1_EEE
libclangAST.so.8:_ZNK5clang10ASTContext36getCanonicalTemplateTemplateParmDeclEPNS_24TemplateTemplateParmDeclE
libclangAST.so.8:_ZNK5clang10ASTContext36getDeducedTemplateSpecializationTypeENS_12TemplateNameENS_8QualTypeEb
libclangAST.so.8:_ZNK5clang10ASTContext36isMSStaticDataMemberInlineDefinitionEPKNS_7VarDeclE
libclangAST.so.8:_ZNK5clang10ASTContext38getCanonicalTemplateSpecializationTypeENS_12TemplateNameEN4llvm8ArrayRefINS_16TemplateArgumentEEE
libclangAST.so.8:_ZNK5clang10ASTContext38getDependentTemplateSpecializationTypeENS_21ElaboratedTypeKeywordEPNS_19NestedNameSpecifierEPKNS_14IdentifierInfoEN4llvm8ArrayRefINS_16TemplateArgumentEEE
libclangAST.so.8:_ZNK5clang10ASTContext38getDependentTemplateSpecializationTypeENS_21ElaboratedTypeKeywordEPNS_19NestedNameSpecifierEPKNS_14IdentifierInfoERKNS_24TemplateArgumentListInfoE
libclangAST.so.8:_ZNK5clang10ASTContext38getObjCPropertyImplDeclForPropertyDeclEPKNS_16ObjCPropertyDeclEPKNS_4DeclE
libclangAST.so.8:_ZNK5clang10ASTContext40getTargetDefaultAlignForAttributeAlignedEv
libclangAST.so.8:_ZNK5clang10ASTContext6toBitsENS_9CharUnitsE
libclangAST.so.8:_ZNK5clang10AbiTagAttr11getSpellingEv
libclangAST.so.8:_ZNK5clang10AbiTagAttr11printPrettyERN4llvm11raw_ostreamERKNS_14PrintingPolicyE
libclangAST.so.8:_ZNK5clang10AbiTagAttr5cloneERNS_10ASTContextE
libclangAST.so.8:_ZNK5clang10AtomicExpr12getValueTypeEv
libclangAST.so.8:_ZNK5clang10BlocksAttr11getSpellingEv
libclangAST.so.8:_ZNK5clang10BlocksAttr11printPrettyERN4llvm11raw_ostreamERKNS_14PrintingPolicyE
libclangAST.so.8:_ZNK5clang10BlocksAttr5cloneERNS_10ASTContextE
libclangAST.so.8:_ZNK5clang10CXXNewExpr25shouldNullCheckAllocationEv
libclangAST.so.8:_ZNK5clang10CommonAttr11getSpellingEv
libclangAST.so.8:_ZNK5clang10CommonAttr11printPrettyERN4llvm11raw_ostreamERKNS_14PrintingPolicyE
libclangAST.so.8:_ZNK5clang10CommonAttr5cloneERNS_10ASTContextE
libclangAST.so.8:_ZNK5clang10FormatAttr11getSpellingEv
libclangAST.so.8:_ZNK5clang10FormatAttr11printPrettyERN4llvm11raw_ostreamERKNS_14PrintingPolicyE
libclangAST.so.8:_ZNK5clang10FormatAttr5cloneERNS_10ASTContextE
libclangAST.so.8:_ZNK5clang10GCCAsmStmt10getClobberEj
libclangAST.so.8:_ZNK5clang10GCCAsmStmt14AsmStringPiece11getModifierEv
libclangAST.so.8:_ZNK5clang10GCCAsmStmt15getNamedOperandEN4llvm9StringRefE
libclangAST.so.8:_ZNK5clang10GCCAsmStmt16AnalyzeAsmStringERN4llvm15SmallVectorImplINS0_14AsmStringPieceEEERKNS_10ASTContextERj
libclangAST.so.8:_ZNK5clang10GCCAsmStmt17generateAsmStringB5cxx11ERKNS_10ASTContextE
libclangAST.so.8:_ZNK5clang10GCCAsmStmt18getInputConstraintEj
libclangAST.so.8:_ZNK5clang10GCCAsmStmt19getOutputConstraintEj
libclangAST.so.8:_ZNK5clang10ImportDecl14getSourceRangeEv
libclangAST.so.8:_ZNK5clang10ImportDecl17getIdentifierLocsEv
libclangAST.so.8:_ZNK5clang10LambdaExpr11capture_endEv
libclangAST.so.8:_ZNK5clang10LambdaExpr13capture_beginEv
libclangAST.so.8:_ZNK5clang10LambdaExpr13isInitCaptureEPKNS_13LambdaCaptureE
libclangAST.so.8:_ZNK5clang10LambdaExpr14getLambdaClassEv
libclangAST.so.8:_ZNK5clang10LambdaExpr15getCallOperatorEv
libclangAST.so.8:_ZNK5clang10LambdaExpr17explicit_capturesEv
libclangAST.so.8:_ZNK5clang10LambdaExpr17implicit_capturesEv
libclangAST.so.8:_ZNK5clang10LambdaExpr20explicit_capture_endEv
libclangAST.so.8:_ZNK5clang10LambdaExpr20implicit_capture_endEv
libclangAST.so.8:_ZNK5clang10LambdaExpr22explicit_capture_beginEv
libclangAST.so.8:_ZNK5clang10LambdaExpr22implicit_capture_beginEv
libclangAST.so.8:_ZNK5clang10LambdaExpr24getTemplateParameterListEv
libclangAST.so.8:_ZNK5clang10LambdaExpr7getBodyEv
libclangAST.so.8:_ZNK5clang10LambdaExpr8capturesEv
libclangAST.so.8:_ZNK5clang10LambdaExpr9isMutableEv
libclangAST.so.8:_ZNK5clang10MemberExpr11getBeginLocEv
libclangAST.so.8:_ZNK5clang10MemberExpr9getEndLocEv
libclangAST.so.8:_ZNK5clang10Mips16Attr11getSpellingEv
libclangAST.so.8:_ZNK5clang10Mips16Attr11printPrettyERN4llvm11raw_ostreamERKNS_14PrintingPolicyE
libclangAST.so.8:_ZNK5clang10Mips16Attr5cloneERNS_10ASTContextE
libclangAST.so.8:_ZNK5clang10ObjCGCAttr11getSpellingEv
libclangAST.so.8:_ZNK5clang10ObjCGCAttr11printPrettyERN4llvm11raw_ostreamERKNS_14PrintingPolicyE
libclangAST.so.8:_ZNK5clang10ObjCGCAttr5cloneERNS_10ASTContextE
libclangAST.so.8:_ZNK5clang10PackedAttr11getSpellingEv
libclangAST.so.8:_ZNK5clang10PackedAttr11printPrettyERN4llvm11raw_ostreamERKNS_14PrintingPolicyE
libclangAST.so.8:_ZNK5clang10PackedAttr5cloneERNS_10ASTContextE
libclangAST.so.8:_ZNK5clang10PascalAttr11getSpellingEv
libclangAST.so.8:_ZNK5clang10PascalAttr11printPrettyERN4llvm11raw_ostreamERKNS_14PrintingPolicyE
libclangAST.so.8:_ZNK5clang10PascalAttr5cloneERNS_10ASTContextE
libclangAST.so.8:_ZNK5clang10Qualifiers11getAsStringB5cxx11ERKNS_14PrintingPolicyE
libclangAST.so.8:_ZNK5clang10Qualifiers11getAsStringB5cxx11Ev
libclangAST.so.8:_ZNK5clang10Qualifiers18isEmptyWhenPrintedERKNS_14PrintingPolicyE
libclangAST.so.8:_ZNK5clang10Qualifiers18isStrictSupersetOfES0_
libclangAST.so.8:_ZNK5clang10Qualifiers5printERN4llvm11raw_ostreamERKNS_14PrintingPolicyEb
libclangAST.so.8:_ZNK5clang10RawComment14getRawTextSlowERKNS_13SourceManagerE
libclangAST.so.8:_ZNK5clang10RawComment16extractBriefTextERKNS_10ASTContextE
libclangAST.so.8:_ZNK5clang10RawComment16getFormattedTextB5cxx11ERKNS_13SourceManagerERNS_17DiagnosticsEngineE
libclangAST.so.8:_ZNK5clang10RawComment5parseERKNS_10ASTContextEPKNS_12PreprocessorEPKNS_4DeclE
libclangAST.so.8:_ZNK5clang10RecordDecl10isMsStructERKNS_10ASTContextE
libclangAST.so.8:_ZNK5clang10RecordDecl11field_beginEv
libclangAST.so.8:_ZNK5clang10RecordDecl16isCapturedRecordEv
libclangAST.so.8:_ZNK5clang10RecordDecl19isInjectedClassNameEv
libclangAST.so.8:_ZNK5clang10RecordDecl21mayInsertExtraPaddingEb
libclangAST.so.8:_ZNK5clang10RecordDecl24findFirstNamedDataMemberEv
libclangAST.so.8:_ZNK5clang10RecordDecl29LoadFieldsFromExternalStorageEv
libclangAST.so.8:_ZNK5clang10RecordDecl8isLambdaEv
libclangAST.so.8:_ZNK5clang10RecordType14hasConstFieldsEv
libclangAST.so.8:_ZNK5clang10SEHTryStmt16getExceptHandlerEv
libclangAST.so.8:_ZNK5clang10SEHTryStmt17getFinallyHandlerEv
libclangAST.so.8:_ZNK5clang10TargetAttr11getSpellingEv
libclangAST.so.8:_ZNK5clang10TargetAttr11printPrettyERN4llvm11raw_ostreamERKNS_14PrintingPolicyE
libclangAST.so.8:_ZNK5clang10TargetAttr5cloneERNS_10ASTContextE
libclangAST.so.8:_ZNK5clang10ThreadAttr11getSpellingEv
libclangAST.so.8:_ZNK5clang10ThreadAttr11printPrettyERN4llvm11raw_ostreamERKNS_14PrintingPolicyE
libclangAST.so.8:_ZNK5clang10ThreadAttr5cloneERNS_10ASTContextE
libclangAST.so.8:_ZNK5clang10UnusedAttr11getSpellingEv
libclangAST.so.8:_ZNK5clang10UnusedAttr11printPrettyERN4llvm11raw_ostreamERKNS_14PrintingPolicyE
libclangAST.so.8:_ZNK5clang10UnusedAttr5cloneERNS_10ASTContextE
libclangAST.so.8:_ZNK5clang11ASTImporter24GetAlreadyImportedOrNullEPKNS_4DeclE
libclangAST.so.8:_ZNK5clang11AlignedAttr11getSpellingEv
libclangAST.so.8:_ZNK5clang11AlignedAttr11printPrettyERN4llvm11raw_ostreamERKNS_14PrintingPolicyE
libclangAST.so.8:_ZNK5clang11AlignedAttr12getAlignmentERNS_10ASTContextE
libclangAST.so.8:_ZNK5clang11AlignedAttr20isAlignmentDependentEv
libclangAST.so.8:_ZNK5clang11AlignedAttr5cloneERNS_10ASTContextE
libclangAST.so.8:_ZNK5clang11BindingDecl13getHoldingVarEv
libclangAST.so.8:_ZNK5clang11BuiltinType7getNameERKNS_14PrintingPolicyE
libclangAST.so.8:_ZNK5clang11CleanupAttr11getSpellingEv
libclangAST.so.8:_ZNK5clang11CleanupAttr11printPrettyERN4llvm11raw_ostreamERKNS_14PrintingPolicyE
libclangAST.so.8:_ZNK5clang11CleanupAttr5cloneERNS_10ASTContextE
libclangAST.so.8:_ZNK5clang11CodeSegAttr11getSpellingEv
libclangAST.so.8:_ZNK5clang11CodeSegAttr11printPrettyERN4llvm11raw_ostreamERKNS_14PrintingPolicyE
libclangAST.so.8:_ZNK5clang11CodeSegAttr5cloneERNS_10ASTContextE
libclangAST.so.8:_ZNK5clang11DeclContext11decls_beginEv
libclangAST.so.8:_ZNK5clang11DeclContext11decls_emptyEv
libclangAST.so.8:_ZNK5clang11DeclContext11dumpLookupsERN4llvm11raw_ostreamEbb
libclangAST.so.8:_ZNK5clang11DeclContext11dumpLookupsEv
libclangAST.so.8:_ZNK5clang11DeclContext12containsDeclEPNS_4DeclE
libclangAST.so.8:_ZNK5clang11DeclContext13udir_iteratordeEv
libclangAST.so.8:_ZNK5clang11DeclContext14isStdNamespaceEv
libclangAST.so.8:_ZNK5clang11DeclContext15dumpDeclContextEv
libclangAST.so.8:_ZNK5clang11DeclContext15getDeclKindNameEv
libclangAST.so.8:_ZNK5clang11DeclContext16isExternCContextEv
libclangAST.so.8:_ZNK5clang11DeclContext16using_directivesEv
libclangAST.so.8:_ZNK5clang11DeclContext17getExternCContextEv
libclangAST.so.8:_ZNK5clang11DeclContext17isInlineNamespaceEv
libclangAST.so.8:_ZNK5clang11DeclContext18isDependentContextEv
libclangAST.so.8:_ZNK5clang11DeclContext18isExternCXXContextEv
libclangAST.so.8:_ZNK5clang11DeclContext19containsDeclAndLoadEPNS_4DeclE
libclangAST.so.8:_ZNK5clang11DeclContext20CreateStoredDeclsMapERNS_10ASTContextE
libclangAST.so.8:_ZNK5clang11DeclContext20isTransparentContextEv
libclangAST.so.8:_ZNK5clang11DeclContext25InEnclosingNamespaceSetOfEPKS0_
libclangAST.so.8:_ZNK5clang11DeclContext31reconcileExternalVisibleStorageEv
libclangAST.so.8:_ZNK5clang11DeclContext35LoadLexicalDeclsFromExternalStorageEv
libclangAST.so.8:_ZNK5clang11DeclContext6lookupENS_15DeclarationNameE
libclangAST.so.8:_ZNK5clang11DeclContext8EnclosesEPKS0_
libclangAST.so.8:_ZNK5clang11DeclRefExpr11getBeginLocEv
libclangAST.so.8:_ZNK5clang11DeclRefExpr9getEndLocEv
libclangAST.so.8:_ZNK5clang11FlattenAttr11getSpellingEv
libclangAST.so.8:_ZNK5clang11FlattenAttr11printPrettyERN4llvm11raw_ostreamERKNS_14PrintingPolicyE
libclangAST.so.8:_ZNK5clang11FlattenAttr5cloneERNS_10ASTContextE
libclangAST.so.8:_ZNK5clang11ImportError18convertToErrorCodeEv
libclangAST.so.8:_ZNK5clang11ImportError3logERN4llvm11raw_ostreamE
libclangAST.so.8:_ZNK5clang11ImportError8toStringB5cxx11Ev
libclangAST.so.8:_ZNK5clang11InitSegAttr11getSpellingEv
libclangAST.so.8:_ZNK5clang11InitSegAttr11printPrettyERN4llvm11raw_ostreamERKNS_14PrintingPolicyE
libclangAST.so.8:_ZNK5clang11InitSegAttr5cloneERNS_10ASTContextE
libclangAST.so.8:_ZNK5clang11MinSizeAttr11getSpellingEv
libclangAST.so.8:_ZNK5clang11MinSizeAttr11printPrettyERN4llvm11raw_ostreamERKNS_14PrintingPolicyE
libclangAST.so.8:_ZNK5clang11MinSizeAttr5cloneERNS_10ASTContextE
libclangAST.so.8:_ZNK5clang11NoAliasAttr11getSpellingEv
libclangAST.so.8:_ZNK5clang11NoAliasAttr11printPrettyERN4llvm11raw_ostreamERKNS_14PrintingPolicyE
libclangAST.so.8:_ZNK5clang11NoAliasAttr5cloneERNS_10ASTContextE
libclangAST.so.8:_ZNK5clang11NoDebugAttr11getSpellingEv
libclangAST.so.8:_ZNK5clang11NoDebugAttr11printPrettyERN4llvm11raw_ostreamERKNS_14PrintingPolicyE
libclangAST.so.8:_ZNK5clang11NoDebugAttr5cloneERNS_10ASTContextE
libclangAST.so.8:_ZNK5clang11NoDerefAttr11getSpellingEv
libclangAST.so.8:_ZNK5clang11NoDerefAttr11printPrettyERN4llvm11raw_ostreamERKNS_14PrintingPolicyE
libclangAST.so.8:_ZNK5clang11NoDerefAttr5cloneERNS_10ASTContextE
libclangAST.so.8:_ZNK5clang11NoThrowAttr11getSpellingEv
libclangAST.so.8:_ZNK5clang11NoThrowAttr11printPrettyERN4llvm11raw_ostreamERKNS_14PrintingPolicyE
libclangAST.so.8:_ZNK5clang11NoThrowAttr5cloneERNS_10ASTContextE
libclangAST.so.8:_ZNK5clang11NonNullAttr11getSpellingEv
libclangAST.so.8:_ZNK5clang11NonNullAttr11printPrettyERN4llvm11raw_ostreamERKNS_14PrintingPolicyE
libclangAST.so.8:_ZNK5clang11NonNullAttr5cloneERNS_10ASTContextE
libclangAST.so.8:_ZNK5clang11ParmVarDecl13hasDefaultArgEv
libclangAST.so.8:_ZNK5clang11ParmVarDecl14getSourceRangeEv
libclangAST.so.8:_ZNK5clang11ParmVarDecl15getOriginalTypeEv
libclangAST.so.8:_ZNK5clang11ParmVarDecl15isParameterPackEv
libclangAST.so.8:_ZNK5clang11ParmVarDecl18getDefaultArgRangeEv
libclangAST.so.8:_ZNK5clang11ParmVarDecl22getParameterIndexLargeEv
libclangAST.so.8:_ZNK5clang11RegCallAttr11getSpellingEv
libclangAST.so.8:_ZNK5clang11RegCallAttr11printPrettyERN4llvm11raw_ostreamERKNS_14PrintingPolicyE
libclangAST.so.8:_ZNK5clang11RegCallAttr5cloneERNS_10ASTContextE
libclangAST.so.8:_ZNK5clang11SectionAttr11getSpellingEv
libclangAST.so.8:_ZNK5clang11SectionAttr11printPrettyERN4llvm11raw_ostreamERKNS_14PrintingPolicyE
libclangAST.so.8:_ZNK5clang11SectionAttr5cloneERNS_10ASTContextE
libclangAST.so.8:_ZNK5clang11StdCallAttr11getSpellingEv
libclangAST.so.8:_ZNK5clang11StdCallAttr11printPrettyERN4llvm11raw_ostreamERKNS_14PrintingPolicyE
libclangAST.so.8:_ZNK5clang11StdCallAttr5cloneERNS_10ASTContextE
libclangAST.so.8:_ZNK5clang11SysVABIAttr11getSpellingEv
libclangAST.so.8:_ZNK5clang11SysVABIAttr11printPrettyERN4llvm11raw_ostreamERKNS_14PrintingPolicyE
libclangAST.so.8:_ZNK5clang11SysVABIAttr5cloneERNS_10ASTContextE
libclangAST.so.8:_ZNK5clang11TypedefDecl14getSourceRangeEv
libclangAST.so.8:_ZNK5clang11TypedefType7desugarEv
libclangAST.so.8:_ZNK5clang11WeakRefAttr11getSpellingEv
libclangAST.so.8:_ZNK5clang11WeakRefAttr11printPrettyERN4llvm11raw_ostreamERKNS_14PrintingPolicyE
libclangAST.so.8:_ZNK5clang11WeakRefAttr5cloneERNS_10ASTContextE
libclangAST.so.8:_ZNK5clang12AnnotateAttr11getSpellingEv
libclangAST.so.8:_ZNK5clang12AnnotateAttr11printPrettyERN4llvm11raw_ostreamERKNS_14PrintingPolicyE
libclangAST.so.8:_ZNK5clang12AnnotateAttr5cloneERNS_10ASTContextE
libclangAST.so.8:_ZNK5clang12AsmLabelAttr11getSpellingEv
libclangAST.so.8:_ZNK5clang12AsmLabelAttr11printPrettyERN4llvm11raw_ostreamERKNS_14PrintingPolicyE
libclangAST.so.8:_ZNK5clang12AsmLabelAttr5cloneERNS_10ASTContextE
libclangAST.so.8:_ZNK5clang12CUDAHostAttr11getSpellingEv
libclangAST.so.8:_ZNK5clang12CUDAHostAttr11printPrettyERN4llvm11raw_ostreamERKNS_14PrintingPolicyE
libclangAST.so.8:_ZNK5clang12CUDAHostAttr5cloneERNS_10ASTContextE
libclangAST.so.8:_ZNK5clang12CXXCatchStmt13getCaughtTypeEv
libclangAST.so.8:_ZNK5clang12CapturedDecl7getBodyEv
libclangAST.so.8:_ZNK5clang12CapturedDecl9isNothrowEv
libclangAST.so.8:_ZNK5clang12CapturedStmt15getCapturedDeclEv
libclangAST.so.8:_ZNK5clang12CapturedStmt16capturesVariableEPKNS_7VarDeclE
libclangAST.so.8:_ZNK5clang12CapturedStmt17getStoredCapturesEv
libclangAST.so.8:_ZNK5clang12CapturedStmt21getCapturedRegionKindEv
libclangAST.so.8:_ZNK5clang12CapturedStmt7Capture14getCaptureKindEv
libclangAST.so.8:_ZNK5clang12CapturedStmt7Capture14getCapturedVarEv
libclangAST.so.8:_ZNK5clang12DecltypeType7desugarEv
libclangAST.so.8:_ZNK5clang12DecltypeType9isSugaredEv
libclangAST.so.8:_ZNK5clang12EnableIfAttr11getSpellingEv
libclangAST.so.8:_ZNK5clang12EnableIfAttr11printPrettyERN4llvm11raw_ostreamERKNS_14PrintingPolicyE
libclangAST.so.8:_ZNK5clang12EnableIfAttr5cloneERNS_10ASTContextE
libclangAST.so.8:_ZNK5clang12FastCallAttr11getSpellingEv
libclangAST.so.8:_ZNK5clang12FastCallAttr11printPrettyERN4llvm11raw_ostreamERKNS_14PrintingPolicyE
libclangAST.so.8:_ZNK5clang12FastCallAttr5cloneERNS_10ASTContextE
libclangAST.so.8:_ZNK5clang12FlagEnumAttr11getSpellingEv
libclangAST.so.8:_ZNK5clang12FlagEnumAttr11printPrettyERN4llvm11raw_ostreamERKNS_14PrintingPolicyE
libclangAST.so.8:_ZNK5clang12FlagEnumAttr5cloneERNS_10ASTContextE
libclangAST.so.8:_ZNK5clang12FunctionDecl10getODRHashEv
libclangAST.so.8:_ZNK5clang12FunctionDecl10isNoReturnEv
libclangAST.so.8:_ZNK5clang12FunctionDecl10isVariadicEv
libclangAST.so.8:_ZNK5clang12FunctionDecl11isOutOfLineEv
libclangAST.so.8:_ZNK5clang12FunctionDecl12getBuiltinIDEv
libclangAST.so.8:_ZNK5clang12FunctionDecl12getNumParamsEv
libclangAST.so.8:_ZNK5clang12FunctionDecl14getSourceRangeEv
libclangAST.so.8:_ZNK5clang12FunctionDecl14hasTrivialBodyEv
libclangAST.so.8:_ZNK5clang12FunctionDecl16getTemplatedKindEv
libclangAST.so.8:_ZNK5clang12FunctionDecl16isMSExternInlineEv
libclangAST.so.8:_ZNK5clang12FunctionDecl18getLanguageLinkageEv
libclangAST.so.8:_ZNK5clang12FunctionDecl18getPrimaryTemplateEv
libclangAST.so.8:_ZNK5clang12FunctionDecl18isInExternCContextEv
libclangAST.so.8:_ZNK5clang12FunctionDecl18isMSVCRTEntryPointEv
libclangAST.so.8:_ZNK5clang12FunctionDecl19getMultiVersionKindEv
libclangAST.so.8:_ZNK5clang12FunctionDecl20getLiteralIdentifierEv
libclangAST.so.8:_ZNK5clang12FunctionDecl20getNameForDiagnosticERN4llvm11raw_ostreamERKNS_14PrintingPolicyEb
libclangAST.so.8:_ZNK5clang12FunctionDecl20isInExternCXXContextEv
libclangAST.so.8:_ZNK5clang12FunctionDecl20isTargetMultiVersionEv
libclangAST.so.8:_ZNK5clang12FunctionDecl21getMemoryFunctionKindEv
libclangAST.so.8:_ZNK5clang12FunctionDecl21getOverloadedOperatorEv
libclangAST.so.8:_ZNK5clang12FunctionDecl23getMinRequiredArgumentsEv
libclangAST.so.8:_ZNK5clang12FunctionDecl23getPointOfInstantiationEv
libclangAST.so.8:_ZNK5clang12FunctionDecl23isTemplateInstantiationEv
libclangAST.so.8:_ZNK5clang12FunctionDecl24getReturnTypeSourceRangeEv
libclangAST.so.8:_ZNK5clang12FunctionDecl24isImplicitlyInstantiableEv
libclangAST.so.8:_ZNK5clang12FunctionDecl25isCPUDispatchMultiVersionEv
libclangAST.so.8:_ZNK5clang12FunctionDecl25isCPUSpecificMultiVersionEv
libclangAST.so.8:_ZNK5clang12FunctionDecl26isDestroyingOperatorDeleteEv
libclangAST.so.8:_ZNK5clang12FunctionDecl27getExceptionSpecSourceRangeEv
libclangAST.so.8:_ZNK5clang12FunctionDecl27getMemberSpecializationInfoEv
libclangAST.so.8:_ZNK5clang12FunctionDecl28getDescribedFunctionTemplateEv
libclangAST.so.8:_ZNK5clang12FunctionDecl29getTemplateSpecializationArgsEv
libclangAST.so.8:_ZNK5clang12FunctionDecl29getTemplateSpecializationInfoEv
libclangAST.so.8:_ZNK5clang12FunctionDecl29getTemplateSpecializationKindEv
libclangAST.so.8:_ZNK5clang12FunctionDecl30getDependentSpecializationInfoEv
libclangAST.so.8:_ZNK5clang12FunctionDecl31getTemplateInstantiationPatternEv
libclangAST.so.8:_ZNK5clang12FunctionDecl33getInstantiatedFromMemberFunctionEv
libclangAST.so.8:_ZNK5clang12FunctionDecl33isReservedGlobalPlacementOperatorEv
libclangAST.so.8:_ZNK5clang12FunctionDecl34getClassScopeSpecializationPatternEv
libclangAST.so.8:_ZNK5clang12FunctionDecl35isInlineDefinitionExternallyVisibleEv
libclangAST.so.8:_ZNK5clang12FunctionDecl37isReplaceableGlobalAllocationFunctionEPb
libclangAST.so.8:_ZNK5clang12FunctionDecl38getTemplateSpecializationArgsAsWrittenEv
libclangAST.so.8:_ZNK5clang12FunctionDecl47doesDeclarationForceExternallyVisibleDefinitionEv
libclangAST.so.8:_ZNK5clang12FunctionDecl6isMainEv
libclangAST.so.8:_ZNK5clang12FunctionDecl7getBodyERPKS0_
libclangAST.so.8:_ZNK5clang12FunctionDecl7hasBodyERPKS0_
libclangAST.so.8:_ZNK5clang12FunctionDecl8isGlobalEv
libclangAST.so.8:_ZNK5clang12FunctionDecl9isDefinedERPKS0_
libclangAST.so.8:_ZNK5clang12FunctionDecl9isExternCEv
libclangAST.so.8:_ZNK5clang12IBActionAttr11getSpellingEv
libclangAST.so.8:_ZNK5clang12IBActionAttr11printPrettyERN4llvm11raw_ostreamERKNS_14PrintingPolicyE
libclangAST.so.8:_ZNK5clang12IBActionAttr5cloneERNS_10ASTContextE
libclangAST.so.8:_ZNK5clang12IBOutletAttr11getSpellingEv
libclangAST.so.8:_ZNK5clang12IBOutletAttr11printPrettyERN4llvm11raw_ostreamERKNS_14PrintingPolicyE
libclangAST.so.8:_ZNK5clang12IBOutletAttr5cloneERNS_10ASTContextE
libclangAST.so.8:_ZNK5clang12InitListExpr11getBeginLocEv
libclangAST.so.8:_ZNK5clang12InitListExpr13isTransparentEv
libclangAST.so.8:_ZNK5clang12InitListExpr19isStringLiteralInitEv
libclangAST.so.8:_ZNK5clang12InitListExpr26isIdiomaticZeroInitializerERKNS_11LangOptionsE
libclangAST.so.8:_ZNK5clang12InitListExpr9getEndLocEv
libclangAST.so.8:_ZNK5clang12LoopHintAttr11getSpellingEv
libclangAST.so.8:_ZNK5clang12LoopHintAttr11printPrettyERN4llvm11raw_ostreamERKNS_14PrintingPolicyE
libclangAST.so.8:_ZNK5clang12LoopHintAttr5cloneERNS_10ASTContextE
libclangAST.so.8:_ZNK5clang12MSStructAttr11getSpellingEv
libclangAST.so.8:_ZNK5clang12MSStructAttr11printPrettyERN4llvm11raw_ostreamERKNS_14PrintingPolicyE
libclangAST.so.8:_ZNK5clang12MSStructAttr5cloneERNS_10ASTContextE
libclangAST.so.8:_ZNK5clang12MayAliasAttr11getSpellingEv
libclangAST.so.8:_ZNK5clang12MayAliasAttr11printPrettyERN4llvm11raw_ostreamERKNS_14PrintingPolicyE
libclangAST.so.8:_ZNK5clang12MayAliasAttr5cloneERNS_10ASTContextE
libclangAST.so.8:_ZNK5clang12NoCommonAttr11getSpellingEv
libclangAST.so.8:_ZNK5clang12NoCommonAttr11printPrettyERN4llvm11raw_ostreamERKNS_14PrintingPolicyE
libclangAST.so.8:_ZNK5clang12NoCommonAttr5cloneERNS_10ASTContextE
libclangAST.so.8:_ZNK5clang12NoEscapeAttr11getSpellingEv
libclangAST.so.8:_ZNK5clang12NoEscapeAttr11printPrettyERN4llvm11raw_ostreamERKNS_14PrintingPolicyE
libclangAST.so.8:_ZNK5clang12NoEscapeAttr5cloneERNS_10ASTContextE
libclangAST.so.8:_ZNK5clang12NoInlineAttr11getSpellingEv
libclangAST.so.8:_ZNK5clang12NoInlineAttr11printPrettyERN4llvm11raw_ostreamERKNS_14PrintingPolicyE
libclangAST.so.8:_ZNK5clang12NoInlineAttr5cloneERNS_10ASTContextE
libclangAST.so.8:_ZNK5clang12NoMips16Attr11getSpellingEv
libclangAST.so.8:_ZNK5clang12NoMips16Attr11printPrettyERN4llvm11raw_ostreamERKNS_14PrintingPolicyE
libclangAST.so.8:_ZNK5clang12NoMips16Attr5cloneERNS_10ASTContextE
libclangAST.so.8:_ZNK5clang12NoReturnAttr11getSpellingEv
libclangAST.so.8:_ZNK5clang12NoReturnAttr11printPrettyERN4llvm11raw_ostreamERKNS_14PrintingPolicyE
libclangAST.so.8:_ZNK5clang12NoReturnAttr5cloneERNS_10ASTContextE
libclangAST.so.8:_ZNK5clang12ObjCImplDecl20FindPropertyImplDeclEPNS_14IdentifierInfoENS_21ObjCPropertyQueryKindE
libclangAST.so.8:_ZNK5clang12ObjCImplDecl24FindPropertyImplIvarDeclEPNS_14IdentifierInfoE
libclangAST.so.8:_ZNK5clang12ObjCIvarDecl12getUsageTypeENS_8QualTypeE
libclangAST.so.8:_ZNK5clang12ObjCIvarDecl22getContainingInterfaceEv
libclangAST.so.8:_ZNK5clang12OffsetOfNode12getFieldNameEv
libclangAST.so.8:_ZNK5clang12OverrideAttr11getSpellingEv
libclangAST.so.8:_ZNK5clang12OverrideAttr11printPrettyERN4llvm11raw_ostreamERKNS_14PrintingPolicyE
libclangAST.so.8:_ZNK5clang12OverrideAttr5cloneERNS_10ASTContextE
libclangAST.so.8:_ZNK5clang12RestrictAttr11getSpellingEv
libclangAST.so.8:_ZNK5clang12RestrictAttr11printPrettyERN4llvm11raw_ostreamERKNS_14PrintingPolicyE
libclangAST.so.8:_ZNK5clang12RestrictAttr5cloneERNS_10ASTContextE
libclangAST.so.8:_ZNK5clang12SentinelAttr11getSpellingEv
libclangAST.so.8:_ZNK5clang12SentinelAttr11printPrettyERN4llvm11raw_ostreamERKNS_14PrintingPolicyE
libclangAST.so.8:_ZNK5clang12SentinelAttr5cloneERNS_10ASTContextE
libclangAST.so.8:_ZNK5clang12SuppressAttr11getSpellingEv
libclangAST.so.8:_ZNK5clang12SuppressAttr11printPrettyERN4llvm11raw_ostreamERKNS_14PrintingPolicyE
libclangAST.so.8:_ZNK5clang12SuppressAttr5cloneERNS_10ASTContextE
libclangAST.so.8:_ZNK5clang12TLSModelAttr11getSpellingEv
libclangAST.so.8:_ZNK5clang12TLSModelAttr11printPrettyERN4llvm11raw_ostreamERKNS_14PrintingPolicyE
libclangAST.so.8:_ZNK5clang12TLSModelAttr5cloneERNS_10ASTContextE
libclangAST.so.8:_ZNK5clang12TemplateName11isDependentEv
libclangAST.so.8:_ZNK5clang12TemplateName17getAsTemplateDeclEv
libclangAST.so.8:_ZNK5clang12TemplateName19getNameToSubstituteEv
libclangAST.so.8:_ZNK5clang12TemplateName23getAsOverloadedTemplateEv
libclangAST.so.8:_ZNK5clang12TemplateName24isInstantiationDependentEv
libclangAST.so.8:_ZNK5clang12TemplateName26getAsDependentTemplateNameEv
libclangAST.so.8:_ZNK5clang12TemplateName26getAsQualifiedTemplateNameEv
libclangAST.so.8:_ZNK5clang12TemplateName30getAsSubstTemplateTemplateParmEv
libclangAST.so.8:_ZNK5clang12TemplateName31containsUnexpandedParameterPackEv
libclangAST.so.8:_ZNK5clang12TemplateName34getAsSubstTemplateTemplateParmPackEv
libclangAST.so.8:_ZNK5clang12TemplateName4dumpERN4llvm11raw_ostreamE
libclangAST.so.8:_ZNK5clang12TemplateName4dumpEv
libclangAST.so.8:_ZNK5clang12TemplateName5printERN4llvm11raw_ostreamERKNS_14PrintingPolicyEb
libclangAST.so.8:_ZNK5clang12TemplateName6isNullEv
libclangAST.so.8:_ZNK5clang12TemplateName7getKindEv
libclangAST.so.8:_ZNK5clang12ThisCallAttr11getSpellingEv
libclangAST.so.8:_ZNK5clang12ThisCallAttr11printPrettyERN4llvm11raw_ostreamERKNS_14PrintingPolicyE
libclangAST.so.8:_ZNK5clang12ThisCallAttr5cloneERNS_10ASTContextE
libclangAST.so.8:_ZNK5clang13AVRSignalAttr11getSpellingEv
libclangAST.so.8:_ZNK5clang13AVRSignalAttr11printPrettyERN4llvm11raw_ostreamERKNS_14PrintingPolicyE
libclangAST.so.8:_ZNK5clang13AVRSignalAttr5cloneERNS_10ASTContextE
libclangAST.so.8:_ZNK5clang13AllocSizeAttr11getSpellingEv
libclangAST.so.8:_ZNK5clang13AllocSizeAttr11printPrettyERN4llvm11raw_ostreamERKNS_14PrintingPolicyE
libclangAST.so.8:_ZNK5clang13AllocSizeAttr5cloneERNS_10ASTContextE
libclangAST.so.8:_ZNK5clang13CXXDeleteExpr16getDestroyedTypeEv
libclangAST.so.8:_ZNK5clang13CXXMethodDecl11getThisTypeEv
libclangAST.so.8:_ZNK5clang13CXXMethodDecl13hasInlineBodyEv
libclangAST.so.8:_ZNK5clang13CXXMethodDecl18overridden_methodsEv
libclangAST.so.8:_ZNK5clang13CXXMethodDecl21isLambdaStaticInvokerEv
libclangAST.so.8:_ZNK5clang13CXXMethodDecl22end_overridden_methodsEv
libclangAST.so.8:_ZNK5clang13CXXMethodDecl23size_overridden_methodsEv
libclangAST.so.8:_ZNK5clang13CXXMethodDecl24begin_overridden_methodsEv
libclangAST.so.8:_ZNK5clang13CXXMethodDecl24isCopyAssignmentOperatorEv
libclangAST.so.8:_ZNK5clang13CXXMethodDecl24isMoveAssignmentOperatorEv
libclangAST.so.8:_ZNK5clang13CXXMethodDecl27isUsualDeallocationFunctionERN4llvm15SmallVectorImplIPKNS_12FunctionDeclEEE
libclangAST.so.8:_ZNK5clang13CXXMethodDecl8isStaticEv
libclangAST.so.8:_ZNK5clang13CXXRecordDecl10getODRHashEv
libclangAST.so.8:_ZNK5clang13CXXRecordDecl11forallBasesEN4llvm12function_refIFbPKS0_EEEb
libclangAST.so.8:_ZNK5clang13CXXRecordDecl13getDestructorEv
libclangAST.so.8:_ZNK5clang13CXXRecordDecl13isDerivedFromEPKS0_
libclangAST.so.8:_ZNK5clang13CXXRecordDecl13isDerivedFromEPKS0_RNS_12CXXBasePathsE
libclangAST.so.8:_ZNK5clang13CXXRecordDecl13lookupInBasesEN4llvm12function_refIFbPKNS_16CXXBaseSpecifierERNS_11CXXBasePathEEEERNS_12CXXBasePathsEb
libclangAST.so.8:_ZNK5clang13CXXRecordDecl13mayBeAbstractEv
libclangAST.so.8:_ZNK5clang13CXXRecordDecl14DefinitionData16getBasesSlowCaseEv
libclangAST.so.8:_ZNK5clang13CXXRecordDecl14DefinitionData17getVBasesSlowCaseEv
libclangAST.so.8:_ZNK5clang13CXXRecordDecl14getFirstFriendEv
libclangAST.so.8:_ZNK5clang13CXXRecordDecl15isGenericLambdaEv
libclangAST.so.8:_ZNK5clang13CXXRecordDecl15isInterfaceLikeEv
libclangAST.so.8:_ZNK5clang13CXXRecordDecl15viewInheritanceERNS_10ASTContextE
libclangAST.so.8:_ZNK5clang13CXXRecordDecl16getCaptureFieldsERN4llvm8DenseMapIPKNS_7VarDeclEPNS_9FieldDeclENS1_12DenseMapInfoIS5_EENS1_6detail12DenseMapPairIS5_S7_EEEERS7_
libclangAST.so.8:_ZNK5clang13CXXRecordDecl17getMSVtorDispModeEv
libclangAST.so.8:_ZNK5clang13CXXRecordDecl18getFinalOverridersERNS_20CXXFinalOverriderMapE
libclangAST.so.8:_ZNK5clang13CXXRecordDecl19isTriviallyCopyableEv
libclangAST.so.8:_ZNK5clang13CXXRecordDecl20getLambdaContextDeclEv
libclangAST.so.8:_ZNK5clang13CXXRecordDecl20hasAnyDependentBasesEv
libclangAST.so.8:_ZNK5clang13CXXRecordDecl21getLambdaCallOperatorEv
libclangAST.so.8:_ZNK5clang13CXXRecordDecl21getMSInheritanceModelEv
libclangAST.so.8:_ZNK5clang13CXXRecordDecl22getLambdaStaticInvokerEv
libclangAST.so.8:_ZNK5clang13CXXRecordDecl22isCurrentInstantiationEPKNS_11DeclContextE
libclangAST.so.8:_ZNK5clang13CXXRecordDecl22isVirtuallyDerivedFromEPKS0_
libclangAST.so.8:_ZNK5clang13CXXRecordDecl23getIndirectPrimaryBasesERNS_25CXXIndirectPrimaryBaseSetE
libclangAST.so.8:_ZNK5clang13CXXRecordDecl23isAnyDestructorNoReturnEv
libclangAST.so.8:_ZNK5clang13CXXRecordDecl24isProvablyNotDerivedFromEPKS0_
libclangAST.so.8:_ZNK5clang13CXXRecordDecl25calculateInheritanceModelEv
libclangAST.so.8:_ZNK5clang13CXXRecordDecl25getDescribedClassTemplateEv
libclangAST.so.8:_ZNK5clang13CXXRecordDecl27getMemberSpecializationInfoEv
libclangAST.so.8:_ZNK5clang13CXXRecordDecl29getTemplateSpecializationKindEv
libclangAST.so.8:_ZNK5clang13CXXRecordDecl30getInstantiatedFromMemberClassEv
libclangAST.so.8:_ZNK5clang13CXXRecordDecl31getTemplateInstantiationPatternEv
libclangAST.so.8:_ZNK5clang13CXXRecordDecl37getGenericLambdaTemplateParameterListEv
libclangAST.so.8:_ZNK5clang13CXXRecordDecl41lambdaIsDefaultConstructibleAndAssignableEv
libclangAST.so.8:_ZNK5clang13CXXRecordDecl7isCLikeEv
libclangAST.so.8:_ZNK5clang13CXXTypeidExpr14getTypeOperandERNS_10ASTContextE
libclangAST.so.8:_ZNK5clang13CXXTypeidExpr22isPotentiallyEvaluatedEv
libclangAST.so.8:_ZNK5clang13CXXUuidofExpr14getTypeOperandERNS_10ASTContextE
libclangAST.so.8:_ZNK5clang13DLLExportAttr11getSpellingEv
libclangAST.so.8:_ZNK5clang13DLLExportAttr11printPrettyERN4llvm11raw_ostreamERKNS_14PrintingPolicyE
libclangAST.so.8:_ZNK5clang13DLLExportAttr5cloneERNS_10ASTContextE
libclangAST.so.8:_ZNK5clang13DLLImportAttr11getSpellingEv
libclangAST.so.8:_ZNK5clang13DLLImportAttr11printPrettyERN4llvm11raw_ostreamERKNS_14PrintingPolicyE
libclangAST.so.8:_ZNK5clang13DLLImportAttr5cloneERNS_10ASTContextE
libclangAST.so.8:_ZNK5clang13FormatArgAttr11getSpellingEv
libclangAST.so.8:_ZNK5clang13FormatArgAttr11printPrettyERN4llvm11raw_ostreamERKNS_14PrintingPolicyE
libclangAST.so.8:_ZNK5clang13FormatArgAttr5cloneERNS_10ASTContextE
libclangAST.so.8:_ZNK5clang13GNUInlineAttr11getSpellingEv
libclangAST.so.8:_ZNK5clang13GNUInlineAttr11printPrettyERN4llvm11raw_ostreamERKNS_14PrintingPolicyE
libclangAST.so.8:_ZNK5clang13GNUInlineAttr5cloneERNS_10ASTContextE
libclangAST.so.8:_ZNK5clang13GuardedByAttr11getSpellingEv
libclangAST.so.8:_ZNK5clang13GuardedByAttr11printPrettyERN4llvm11raw_ostreamERKNS_14PrintingPolicyE
libclangAST.so.8:_ZNK5clang13GuardedByAttr5cloneERNS_10ASTContextE
libclangAST.so.8:_ZNK5clang13LambdaCapture14getCaptureKindEv
libclangAST.so.8:_ZNK5clang13MicroMipsAttr11getSpellingEv
libclangAST.so.8:_ZNK5clang13MicroMipsAttr11printPrettyERN4llvm11raw_ostreamERKNS_14PrintingPolicyE
libclangAST.so.8:_ZNK5clang13MicroMipsAttr5cloneERNS_10ASTContextE
libclangAST.so.8:_ZNK5clang13NamespaceDecl19isOriginalNamespaceEv
libclangAST.so.8:_ZNK5clang13NamespaceDecl20getOriginalNamespaceEv
libclangAST.so.8:_ZNK5clang13NoDestroyAttr11getSpellingEv
libclangAST.so.8:_ZNK5clang13NoDestroyAttr11printPrettyERN4llvm11raw_ostreamERKNS_14PrintingPolicyE
libclangAST.so.8:_ZNK5clang13NoDestroyAttr5cloneERNS_10ASTContextE
libclangAST.so.8:_ZNK5clang13ObjCAtTryStmt9getEndLocEv
libclangAST.so.8:_ZNK5clang13OwnershipAttr11getSpellingEv
libclangAST.so.8:_ZNK5clang13OwnershipAttr11printPrettyERN4llvm11raw_ostreamERKNS_14PrintingPolicyE
libclangAST.so.8:_ZNK5clang13OwnershipAttr5cloneERNS_10ASTContextE
libclangAST.so.8:_ZNK5clang13SelectAnyAttr11getSpellingEv
libclangAST.so.8:_ZNK5clang13SelectAnyAttr11printPrettyERN4llvm11raw_ostreamERKNS_14PrintingPolicyE
libclangAST.so.8:_ZNK5clang13SelectAnyAttr5cloneERNS_10ASTContextE
libclangAST.so.8:_ZNK5clang13StringLiteral12outputStringERN4llvm11raw_ostreamE
libclangAST.so.8:_ZNK5clang13StringLiteral17getLocationOfByteEjRKNS_13SourceManagerERKNS_11LangOptionsERKNS_10TargetInfoEPjSA_
libclangAST.so.8:_ZNK5clang13SwiftCallAttr11getSpellingEv
libclangAST.so.8:_ZNK5clang13SwiftCallAttr11printPrettyERN4llvm11raw_ostreamERKNS_14PrintingPolicyE
libclangAST.so.8:_ZNK5clang13SwiftCallAttr5cloneERNS_10ASTContextE
libclangAST.so.8:_ZNK5clang13TypeAliasDecl14getSourceRangeEv
libclangAST.so.8:_ZNK5clang13VecReturnAttr11getSpellingEv
libclangAST.so.8:_ZNK5clang13VecReturnAttr11printPrettyERN4llvm11raw_ostreamERKNS_14PrintingPolicyE
libclangAST.so.8:_ZNK5clang13VecReturnAttr5cloneERNS_10ASTContextE
libclangAST.so.8:_ZNK5clang13analyze_scanf14ScanfSpecifier10getArgTypeERNS_10ASTContextE
libclangAST.so.8:_ZNK5clang13analyze_scanf14ScanfSpecifier8toStringERN4llvm11raw_ostreamE
libclangAST.so.8:_ZNK5clang14AlignValueAttr11getSpellingEv
libclangAST.so.8:_ZNK5clang14AlignValueAttr11printPrettyERN4llvm11raw_ostreamERKNS_14PrintingPolicyE
libclangAST.so.8:_ZNK5clang14AlignValueAttr5cloneERNS_10ASTContextE
libclangAST.so.8:_ZNK5clang14AllocAlignAttr11getSpellingEv
libclangAST.so.8:_ZNK5clang14AllocAlignAttr11printPrettyERN4llvm11raw_ostreamERKNS_14PrintingPolicyE
libclangAST.so.8:_ZNK5clang14AllocAlignAttr5cloneERNS_10ASTContextE
libclangAST.so.8:_ZNK5clang14ArtificialAttr11getSpellingEv
libclangAST.so.8:_ZNK5clang14ArtificialAttr11printPrettyERN4llvm11raw_ostreamERKNS_14PrintingPolicyE
libclangAST.so.8:_ZNK5clang14ArtificialAttr5cloneERNS_10ASTContextE
libclangAST.so.8:_ZNK5clang14AttributedType11isQualifierEv
libclangAST.so.8:_ZNK5clang14AttributedType12isMSTypeSpecEv
libclangAST.so.8:_ZNK5clang14AttributedType13isCallingConvEv
libclangAST.so.8:_ZNK5clang14AttributedType23getImmediateNullabilityEv
libclangAST.so.8:_ZNK5clang14BuiltinTypeLoc18getWrittenTypeSpecEv
libclangAST.so.8:_ZNK5clang14CFConsumedAttr11getSpellingEv
libclangAST.so.8:_ZNK5clang14CFConsumedAttr11printPrettyERN4llvm11raw_ostreamERKNS_14PrintingPolicyE
libclangAST.so.8:_ZNK5clang14CFConsumedAttr5cloneERNS_10ASTContextE
libclangAST.so.8:_ZNK5clang14CUDADeviceAttr11getSpellingEv
libclangAST.so.8:_ZNK5clang14CUDADeviceAttr11printPrettyERN4llvm11raw_ostreamERKNS_14PrintingPolicyE
libclangAST.so.8:_ZNK5clang14CUDADeviceAttr5cloneERNS_10ASTContextE
libclangAST.so.8:_ZNK5clang14CUDAGlobalAttr11getSpellingEv
libclangAST.so.8:_ZNK5clang14CUDAGlobalAttr11printPrettyERN4llvm11raw_ostreamERKNS_14PrintingPolicyE
libclangAST.so.8:_ZNK5clang14CUDAGlobalAttr5cloneERNS_10ASTContextE
libclangAST.so.8:_ZNK5clang14CUDASharedAttr11getSpellingEv
libclangAST.so.8:_ZNK5clang14CUDASharedAttr11printPrettyERN4llvm11raw_ostreamERKNS_14PrintingPolicyE
libclangAST.so.8:_ZNK5clang14CUDASharedAttr5cloneERNS_10ASTContextE
libclangAST.so.8:_ZNK5clang14CapabilityAttr11getSpellingEv
libclangAST.so.8:_ZNK5clang14CapabilityAttr11printPrettyERN4llvm11raw_ostreamERKNS_14PrintingPolicyE
libclangAST.so.8:_ZNK5clang14CapabilityAttr5cloneERNS_10ASTContextE
libclangAST.so.8:_ZNK5clang14ConsumableAttr11getSpellingEv
libclangAST.so.8:_ZNK5clang14ConsumableAttr11printPrettyERN4llvm11raw_ostreamERKNS_14PrintingPolicyE
libclangAST.so.8:_ZNK5clang14ConsumableAttr5cloneERNS_10ASTContextE
libclangAST.so.8:_ZNK5clang14ConvergentAttr11getSpellingEv
libclangAST.so.8:_ZNK5clang14ConvergentAttr11printPrettyERN4llvm11raw_ostreamERKNS_14PrintingPolicyE
libclangAST.so.8:_ZNK5clang14ConvergentAttr5cloneERNS_10ASTContextE
libclangAST.so.8:_ZNK5clang14DeclaratorDecl14getSourceRangeEv
libclangAST.so.8:_ZNK5clang14DeclaratorDecl16getOuterLocStartEv
libclangAST.so.8:_ZNK5clang14DeclaratorDecl19getTypeSpecStartLocEv
libclangAST.so.8:_ZNK5clang14DeprecatedAttr11getSpellingEv
libclangAST.so.8:_ZNK5clang14DeprecatedAttr11printPrettyERN4llvm11raw_ostreamERKNS_14PrintingPolicyE
libclangAST.so.8:_ZNK5clang14DeprecatedAttr5cloneERNS_10ASTContextE
libclangAST.so.8:_ZNK5clang14DestructorAttr11getSpellingEv
libclangAST.so.8:_ZNK5clang14DestructorAttr11printPrettyERN4llvm11raw_ostreamERKNS_14PrintingPolicyE
libclangAST.so.8:_ZNK5clang14DestructorAttr5cloneERNS_10ASTContextE
libclangAST.so.8:_ZNK5clang14DiagnoseIfAttr11getSpellingEv
libclangAST.so.8:_ZNK5clang14DiagnoseIfAttr11printPrettyERN4llvm11raw_ostreamERKNS_14PrintingPolicyE
libclangAST.so.8:_ZNK5clang14DiagnoseIfAttr5cloneERNS_10ASTContextE
libclangAST.so.8:_ZNK5clang14EmptyBasesAttr11getSpellingEv
libclangAST.so.8:_ZNK5clang14EmptyBasesAttr11printPrettyERN4llvm11raw_ostreamERKNS_14PrintingPolicyE
libclangAST.so.8:_ZNK5clang14EmptyBasesAttr5cloneERNS_10ASTContextE
libclangAST.so.8:_ZNK5clang14GuardedVarAttr11getSpellingEv
libclangAST.so.8:_ZNK5clang14GuardedVarAttr11printPrettyERN4llvm11raw_ostreamERKNS_14PrintingPolicyE
libclangAST.so.8:_ZNK5clang14GuardedVarAttr5cloneERNS_10ASTContextE
libclangAST.so.8:_ZNK5clang14MSNoVTableAttr11getSpellingEv
libclangAST.so.8:_ZNK5clang14MSNoVTableAttr11printPrettyERN4llvm11raw_ostreamERKNS_14PrintingPolicyE
libclangAST.so.8:_ZNK5clang14MSNoVTableAttr5cloneERNS_10ASTContextE
libclangAST.so.8:_ZNK5clang14MSVtorDispAttr11getSpellingEv
libclangAST.so.8:_ZNK5clang14MSVtorDispAttr11printPrettyERN4llvm11raw_ostreamERKNS_14PrintingPolicyE
libclangAST.so.8:_ZNK5clang14MSVtorDispAttr5cloneERNS_10ASTContextE
libclangAST.so.8:_ZNK5clang14NSConsumedAttr11getSpellingEv
libclangAST.so.8:_ZNK5clang14NSConsumedAttr11printPrettyERN4llvm11raw_ostreamERKNS_14PrintingPolicyE
libclangAST.so.8:_ZNK5clang14NSConsumedAttr5cloneERNS_10ASTContextE
libclangAST.so.8:_ZNK5clang14NoSanitizeAttr11getSpellingEv
libclangAST.so.8:_ZNK5clang14NoSanitizeAttr11printPrettyERN4llvm11raw_ostreamERKNS_14PrintingPolicyE
libclangAST.so.8:_ZNK5clang14NoSanitizeAttr5cloneERNS_10ASTContextE
libclangAST.so.8:_ZNK5clang14OSConsumedAttr11getSpellingEv
libclangAST.so.8:_ZNK5clang14OSConsumedAttr11printPrettyERN4llvm11raw_ostreamERKNS_14PrintingPolicyE
libclangAST.so.8:_ZNK5clang14OSConsumedAttr5cloneERNS_10ASTContextE
libclangAST.so.8:_ZNK5clang14ObjCBridgeAttr11getSpellingEv
libclangAST.so.8:_ZNK5clang14ObjCBridgeAttr11printPrettyERN4llvm11raw_ostreamERKNS_14PrintingPolicyE
libclangAST.so.8:_ZNK5clang14ObjCBridgeAttr5cloneERNS_10ASTContextE
libclangAST.so.8:_ZNK5clang14ObjCKindOfAttr11getSpellingEv
libclangAST.so.8:_ZNK5clang14ObjCKindOfAttr11printPrettyERN4llvm11raw_ostreamERKNS_14PrintingPolicyE
libclangAST.so.8:_ZNK5clang14ObjCKindOfAttr5cloneERNS_10ASTContextE
libclangAST.so.8:_ZNK5clang14ObjCMethodDecl15getMethodFamilyEv
libclangAST.so.8:_ZNK5clang14ObjCMethodDecl15getSelectorLocsERN4llvm15SmallVectorImplINS_14SourceLocationEEE
libclangAST.so.8:_ZNK5clang14ObjCMethodDecl16findPropertyDeclEb
libclangAST.so.8:_ZNK5clang14ObjCMethodDecl17definedInNSObjectERKNS_10ASTContextE
libclangAST.so.8:_ZNK5clang14ObjCMethodDecl17getSendResultTypeENS_8QualTypeE
libclangAST.so.8:_ZNK5clang14ObjCMethodDecl17getSendResultTypeEv
libclangAST.so.8:_ZNK5clang14ObjCMethodDecl20getOverriddenMethodsERN4llvm15SmallVectorImplIPKS0_EE
libclangAST.so.8:_ZNK5clang14ObjCMethodDecl24getReturnTypeSourceRangeEv
libclangAST.so.8:_ZNK5clang14ObjCMethodDecl38isDesignatedInitializerForTheInterfaceEPPKS0_
libclangAST.so.8:_ZNK5clang14ObjCMethodDecl39isThisDeclarationADesignatedInitializerEv
libclangAST.so.8:_ZNK5clang14ObjCMethodDecl7getBodyEv
libclangAST.so.8:_ZNK5clang14ObjCMethodDecl9getEndLocEv
libclangAST.so.8:_ZNK5clang14ObjCObjectType11getTypeArgsEv
libclangAST.so.8:_ZNK5clang14ObjCObjectType12isKindOfTypeEv
libclangAST.so.8:_ZNK5clang14ObjCObjectType13isSpecializedEv
libclangAST.so.8:_ZNK5clang14ObjCObjectType25computeSuperClassTypeSlowEv
libclangAST.so.8:_ZNK5clang14ObjCObjectType27stripObjCKindOfTypeAndQualsERKNS_10ASTContextE
libclangAST.so.8:_ZNK5clang14TrivialABIAttr11getSpellingEv
libclangAST.so.8:_ZNK5clang14TrivialABIAttr11printPrettyERN4llvm11raw_ostreamERKNS_14PrintingPolicyE
libclangAST.so.8:_ZNK5clang14TrivialABIAttr5cloneERNS_10ASTContextE
libclangAST.so.8:_ZNK5clang14TypeOfExprType7desugarEv
libclangAST.so.8:_ZNK5clang14TypeOfExprType9isSugaredEv
libclangAST.so.8:_ZNK5clang14VectorCallAttr11getSpellingEv
libclangAST.so.8:_ZNK5clang14VectorCallAttr11printPrettyERN4llvm11raw_ostreamERKNS_14PrintingPolicyE
libclangAST.so.8:_ZNK5clang14VectorCallAttr5cloneERNS_10ASTContextE
libclangAST.so.8:_ZNK5clang14VisibilityAttr11getSpellingEv
libclangAST.so.8:_ZNK5clang14VisibilityAttr11printPrettyERN4llvm11raw_ostreamERKNS_14PrintingPolicyE
libclangAST.so.8:_ZNK5clang14VisibilityAttr5cloneERNS_10ASTContextE
libclangAST.so.8:_ZNK5clang14WarnUnusedAttr11getSpellingEv
libclangAST.so.8:_ZNK5clang14WarnUnusedAttr11printPrettyERN4llvm11raw_ostreamERKNS_14PrintingPolicyE
libclangAST.so.8:_ZNK5clang14WarnUnusedAttr5cloneERNS_10ASTContextE
libclangAST.so.8:_ZNK5clang14WeakImportAttr11getSpellingEv
libclangAST.so.8:_ZNK5clang14WeakImportAttr11printPrettyERN4llvm11raw_ostreamERKNS_14PrintingPolicyE
libclangAST.so.8:_ZNK5clang14WeakImportAttr5cloneERNS_10ASTContextE
libclangAST.so.8:_ZNK5clang14analyze_printf15PrintfSpecifier10getArgTypeERNS_10ASTContextEb
libclangAST.so.8:_ZNK5clang14analyze_printf15PrintfSpecifier16getScalarArgTypeERNS_10ASTContextEb
libclangAST.so.8:_ZNK5clang14analyze_printf15PrintfSpecifier17hasValidPrecisionEv
libclangAST.so.8:_ZNK5clang14analyze_printf15PrintfSpecifier18hasValidFieldWidthEv
libclangAST.so.8:_ZNK5clang14analyze_printf15PrintfSpecifier18hasValidPlusPrefixEv
libclangAST.so.8:_ZNK5clang14analyze_printf15PrintfSpecifier19hasValidSpacePrefixEv
libclangAST.so.8:_ZNK5clang14analyze_printf15PrintfSpecifier20hasValidLeadingZerosEv
libclangAST.so.8:_ZNK5clang14analyze_printf15PrintfSpecifier21hasValidLeftJustifiedEv
libclangAST.so.8:_ZNK5clang14analyze_printf15PrintfSpecifier23hasValidAlternativeFormEv
libclangAST.so.8:_ZNK5clang14analyze_printf15PrintfSpecifier31hasValidThousandsGroupingPrefixEv
libclangAST.so.8:_ZNK5clang14analyze_printf15PrintfSpecifier8toStringERN4llvm11raw_ostreamE
libclangAST.so.8:_ZNK5clang15AlignMac68kAttr11getSpellingEv
libclangAST.so.8:_ZNK5clang15AlignMac68kAttr11printPrettyERN4llvm11raw_ostreamERKNS_14PrintingPolicyE
libclangAST.so.8:_ZNK5clang15AlignMac68kAttr5cloneERNS_10ASTContextE
libclangAST.so.8:_ZNK5clang15C11NoReturnAttr11getSpellingEv
libclangAST.so.8:_ZNK5clang15C11NoReturnAttr11printPrettyERN4llvm11raw_ostreamERKNS_14PrintingPolicyE
libclangAST.so.8:_ZNK5clang15C11NoReturnAttr5cloneERNS_10ASTContextE
libclangAST.so.8:_ZNK5clang15CPUDispatchAttr11getSpellingEv
libclangAST.so.8:_ZNK5clang15CPUDispatchAttr11printPrettyERN4llvm11raw_ostreamERKNS_14PrintingPolicyE
libclangAST.so.8:_ZNK5clang15CPUDispatchAttr5cloneERNS_10ASTContextE
libclangAST.so.8:_ZNK5clang15CPUSpecificAttr11getSpellingEv
libclangAST.so.8:_ZNK5clang15CPUSpecificAttr11printPrettyERN4llvm11raw_ostreamERKNS_14PrintingPolicyE
libclangAST.so.8:_ZNK5clang15CPUSpecificAttr5cloneERNS_10ASTContextE
libclangAST.so.8:_ZNK5clang15CXXForRangeStmt12getRangeInitEv
libclangAST.so.8:_ZNK5clang15CXXForRangeStmt15getLoopVariableEv
libclangAST.so.8:_ZNK5clang15ConstructorAttr11getSpellingEv
libclangAST.so.8:_ZNK5clang15ConstructorAttr11printPrettyERN4llvm11raw_ostreamERKNS_14PrintingPolicyE
libclangAST.so.8:_ZNK5clang15ConstructorAttr5cloneERNS_10ASTContextE
libclangAST.so.8:_ZNK5clang15DeclarationName11getAsStringB5cxx11Ev
libclangAST.so.8:_ZNK5clang15DeclarationName15isDependentNameEv
libclangAST.so.8:_ZNK5clang15DeclarationName18getFETokenInfoSlowEv
libclangAST.so.8:_ZNK5clang15DeclarationName4dumpEv
libclangAST.so.8:_ZNK5clang15FallThroughAttr11getSpellingEv
libclangAST.so.8:_ZNK5clang15FallThroughAttr11printPrettyERN4llvm11raw_ostreamERKNS_14PrintingPolicyE
libclangAST.so.8:_ZNK5clang15FallThroughAttr5cloneERNS_10ASTContextE
libclangAST.so.8:_ZNK5clang15FloatingLiteral12getSemanticsEv
libclangAST.so.8:_ZNK5clang15FloatingLiteral27getValueAsApproximateDoubleEv
libclangAST.so.8:_ZNK5clang15NoDuplicateAttr11getSpellingEv
libclangAST.so.8:_ZNK5clang15NoDuplicateAttr11printPrettyERN4llvm11raw_ostreamERKNS_14PrintingPolicyE
libclangAST.so.8:_ZNK5clang15NoDuplicateAttr5cloneERNS_10ASTContextE
libclangAST.so.8:_ZNK5clang15NoMicroMipsAttr11getSpellingEv
libclangAST.so.8:_ZNK5clang15NoMicroMipsAttr11printPrettyERN4llvm11raw_ostreamERKNS_14PrintingPolicyE
libclangAST.so.8:_ZNK5clang15NoMicroMipsAttr5cloneERNS_10ASTContextE
libclangAST.so.8:_ZNK5clang15OMPDependClause11getLoopDataEj
libclangAST.so.8:_ZNK5clang15ObjCBoxableAttr11getSpellingEv
libclangAST.so.8:_ZNK5clang15ObjCBoxableAttr11printPrettyERN4llvm11raw_ostreamERKNS_14PrintingPolicyE
libclangAST.so.8:_ZNK5clang15ObjCBoxableAttr5cloneERNS_10ASTContextE
libclangAST.so.8:_ZNK5clang15ObjCMessageExpr11getSelectorEv
libclangAST.so.8:_ZNK5clang15ObjCMessageExpr15getReceiverTypeEv
libclangAST.so.8:_ZNK5clang15ObjCMessageExpr15getSelectorLocsERN4llvm15SmallVectorImplINS_14SourceLocationEEE
libclangAST.so.8:_ZNK5clang15ObjCMessageExpr16getReceiverRangeEv
libclangAST.so.8:_ZNK5clang15ObjCMessageExpr20getReceiverInterfaceEv
libclangAST.so.8:_ZNK5clang15PreserveAllAttr11getSpellingEv
libclangAST.so.8:_ZNK5clang15PreserveAllAttr11printPrettyERN4llvm11raw_ostreamERKNS_14PrintingPolicyE
libclangAST.so.8:_ZNK5clang15PreserveAllAttr5cloneERNS_10ASTContextE
libclangAST.so.8:_ZNK5clang15PtGuardedByAttr11getSpellingEv
libclangAST.so.8:_ZNK5clang15PtGuardedByAttr11printPrettyERN4llvm11raw_ostreamERKNS_14PrintingPolicyE
libclangAST.so.8:_ZNK5clang15PtGuardedByAttr5cloneERNS_10ASTContextE
libclangAST.so.8:_ZNK5clang15TypeNonNullAttr11getSpellingEv
libclangAST.so.8:_ZNK5clang15TypeNonNullAttr11printPrettyERN4llvm11raw_ostreamERKNS_14PrintingPolicyE
libclangAST.so.8:_ZNK5clang15TypeNonNullAttr5cloneERNS_10ASTContextE
libclangAST.so.8:_ZNK5clang15TypedefNameDecl20isTransparentTagSlowEv
libclangAST.so.8:_ZNK5clang15TypedefNameDecl26getAnonDeclWithTypedefNameEb
libclangAST.so.8:_ZNK5clang15UnavailableAttr11getSpellingEv
libclangAST.so.8:_ZNK5clang15UnavailableAttr11printPrettyERN4llvm11raw_ostreamERKNS_14PrintingPolicyE
libclangAST.so.8:_ZNK5clang15UnavailableAttr5cloneERNS_10ASTContextE
libclangAST.so.8:_ZNK5clang15UsingShadowDecl12getUsingDeclEv
libclangAST.so.8:_ZNK5clang15VarTemplateDecl18getSpecializationsEv
libclangAST.so.8:_ZNK5clang15VarTemplateDecl23LoadLazySpecializationsEv
libclangAST.so.8:_ZNK5clang15VarTemplateDecl9newCommonERNS_10ASTContextE
libclangAST.so.8:_ZNK5clang15VecTypeHintAttr11getSpellingEv
libclangAST.so.8:_ZNK5clang15VecTypeHintAttr11printPrettyERN4llvm11raw_ostreamERKNS_14PrintingPolicyE
libclangAST.so.8:_ZNK5clang15VecTypeHintAttr5cloneERNS_10ASTContextE
libclangAST.so.8:_ZNK5clang15XRayLogArgsAttr11getSpellingEv
libclangAST.so.8:_ZNK5clang15XRayLogArgsAttr11printPrettyERN4llvm11raw_ostreamERKNS_14PrintingPolicyE
libclangAST.so.8:_ZNK5clang15XRayLogArgsAttr5cloneERNS_10ASTContextE
libclangAST.so.8:_ZNK5clang15ast_type_traits11ASTNodeKind11asStringRefEv
libclangAST.so.8:_ZNK5clang15ast_type_traits11ASTNodeKind8isBaseOfES1_Pj
libclangAST.so.8:_ZNK5clang15ast_type_traits12DynTypedNode14getSourceRangeEv
libclangAST.so.8:_ZNK5clang15ast_type_traits12DynTypedNode4dumpERN4llvm11raw_ostreamERNS_13SourceManagerE
libclangAST.so.8:_ZNK5clang15ast_type_traits12DynTypedNode5printERN4llvm11raw_ostreamERKNS_14PrintingPolicyE
libclangAST.so.8:_ZNK5clang16ARMInterruptAttr11getSpellingEv
libclangAST.so.8:_ZNK5clang16ARMInterruptAttr11printPrettyERN4llvm11raw_ostreamERKNS_14PrintingPolicyE
libclangAST.so.8:_ZNK5clang16ARMInterruptAttr5cloneERNS_10ASTContextE
libclangAST.so.8:_ZNK5clang16AVRInterruptAttr11getSpellingEv
libclangAST.so.8:_ZNK5clang16AVRInterruptAttr11printPrettyERN4llvm11raw_ostreamERKNS_14PrintingPolicyE
libclangAST.so.8:_ZNK5clang16AVRInterruptAttr5cloneERNS_10ASTContextE
libclangAST.so.8:_ZNK5clang16AddressSpaceAttr11getSpellingEv
libclangAST.so.8:_ZNK5clang16AddressSpaceAttr11printPrettyERN4llvm11raw_ostreamERKNS_14PrintingPolicyE
libclangAST.so.8:_ZNK5clang16AddressSpaceAttr5cloneERNS_10ASTContextE
libclangAST.so.8:_ZNK5clang16AlwaysInlineAttr11getSpellingEv
libclangAST.so.8:_ZNK5clang16AlwaysInlineAttr11printPrettyERN4llvm11raw_ostreamERKNS_14PrintingPolicyE
libclangAST.so.8:_ZNK5clang16AlwaysInlineAttr5cloneERNS_10ASTContextE
libclangAST.so.8:_ZNK5clang16AvailabilityAttr11getSpellingEv
libclangAST.so.8:_ZNK5clang16AvailabilityAttr11printPrettyERN4llvm11raw_ostreamERKNS_14PrintingPolicyE
libclangAST.so.8:_ZNK5clang16AvailabilityAttr5cloneERNS_10ASTContextE
libclangAST.so.8:_ZNK5clang16CUDAConstantAttr11getSpellingEv
libclangAST.so.8:_ZNK5clang16CUDAConstantAttr11printPrettyERN4llvm11raw_ostreamERKNS_14PrintingPolicyE
libclangAST.so.8:_ZNK5clang16CUDAConstantAttr5cloneERNS_10ASTContextE
libclangAST.so.8:_ZNK5clang16CXXConstructExpr11getBeginLocEv
libclangAST.so.8:_ZNK5clang16CXXConstructExpr9getEndLocEv
libclangAST.so.8:_ZNK5clang16CXXNamedCastExpr11getCastNameEv
libclangAST.so.8:_ZNK5clang16CallableWhenAttr11getSpellingEv
libclangAST.so.8:_ZNK5clang16CallableWhenAttr11printPrettyERN4llvm11raw_ostreamERKNS_14PrintingPolicyE
libclangAST.so.8:_ZNK5clang16CallableWhenAttr5cloneERNS_10ASTContextE
libclangAST.so.8:_ZNK5clang16EnumConstantDecl14getSourceRangeEv
libclangAST.so.8:_ZNK5clang16InitPriorityAttr11getSpellingEv
libclangAST.so.8:_ZNK5clang16InitPriorityAttr11printPrettyERN4llvm11raw_ostreamERKNS_14PrintingPolicyE
libclangAST.so.8:_ZNK5clang16InitPriorityAttr5cloneERNS_10ASTContextE
libclangAST.so.8:_ZNK5clang16IntelOclBiccAttr11getSpellingEv
libclangAST.so.8:_ZNK5clang16IntelOclBiccAttr11printPrettyERN4llvm11raw_ostreamERKNS_14PrintingPolicyE
libclangAST.so.8:_ZNK5clang16IntelOclBiccAttr5cloneERNS_10ASTContextE
libclangAST.so.8:_ZNK5clang16LockReturnedAttr11getSpellingEv
libclangAST.so.8:_ZNK5clang16LockReturnedAttr11printPrettyERN4llvm11raw_ostreamERKNS_14PrintingPolicyE
libclangAST.so.8:_ZNK5clang16LockReturnedAttr5cloneERNS_10ASTContextE
libclangAST.so.8:_ZNK5clang16MipsLongCallAttr11getSpellingEv
libclangAST.so.8:_ZNK5clang16MipsLongCallAttr11printPrettyERN4llvm11raw_ostreamERKNS_14PrintingPolicyE
libclangAST.so.8:_ZNK5clang16MipsLongCallAttr5cloneERNS_10ASTContextE
libclangAST.so.8:_ZNK5clang16NoSplitStackAttr11getSpellingEv
libclangAST.so.8:_ZNK5clang16NoSplitStackAttr11printPrettyERN4llvm11raw_ostreamERKNS_14PrintingPolicyE
libclangAST.so.8:_ZNK5clang16NoSplitStackAttr5cloneERNS_10ASTContextE
libclangAST.so.8:_ZNK5clang16OMPOrderedClause14getLoopCounterEj
libclangAST.so.8:_ZNK5clang16OMPOrderedClause20getLoopNumIterationsEv
libclangAST.so.8:_ZNK5clang16ObjCCategoryDecl17getImplementationEv
libclangAST.so.8:_ZNK5clang16ObjCNSObjectAttr11getSpellingEv
libclangAST.so.8:_ZNK5clang16ObjCNSObjectAttr11printPrettyERN4llvm11raw_ostreamERKNS_14PrintingPolicyE
libclangAST.so.8:_ZNK5clang16ObjCNSObjectAttr5cloneERNS_10ASTContextE
libclangAST.so.8:_ZNK5clang16ObjCPropertyDecl12getUsageTypeENS_8QualTypeE
libclangAST.so.8:_ZNK5clang16ObjCPropertyDecl23getDefaultSynthIvarNameERNS_10ASTContextE
libclangAST.so.8:_ZNK5clang16ObjCProtocolDecl12lookupMethodENS_8SelectorEb
libclangAST.so.8:_ZNK5clang16ObjCProtocolDecl26getObjCRuntimeNameAsStringEv
libclangAST.so.8:_ZNK5clang16ObjCProtocolDecl28collectPropertiesToImplementERN4llvm8DenseMapISt4pairIPNS_14IdentifierInfoEjEPNS_16ObjCPropertyDeclENS1_12DenseMapInfoIS6_EENS1_6detail12DenseMapPairIS6_S8_EEEERNS1_11SmallVectorIS8_Lj8EEE
libclangAST.so.8:_ZNK5clang16ObjCProtocolDecl34collectInheritedProtocolPropertiesEPKNS_16ObjCPropertyDeclERN4llvm13SmallDenseSetIPKS0_Lj8ENS4_12DenseMapInfoIS7_EEEERNS4_11SmallVectorIPS1_Lj8EEE
libclangAST.so.8:_ZNK5clang16OpenCLAccessAttr11getSpellingEv
libclangAST.so.8:_ZNK5clang16OpenCLAccessAttr11printPrettyERN4llvm11raw_ostreamERKNS_14PrintingPolicyE
libclangAST.so.8:_ZNK5clang16OpenCLAccessAttr5cloneERNS_10ASTContextE
libclangAST.so.8:_ZNK5clang16OpenCLKernelAttr11getSpellingEv
libclangAST.so.8:_ZNK5clang16OpenCLKernelAttr11printPrettyERN4llvm11raw_ostreamERKNS_14PrintingPolicyE
libclangAST.so.8:_ZNK5clang16OpenCLKernelAttr5cloneERNS_10ASTContextE
libclangAST.so.8:_ZNK5clang16OptimizeNoneAttr11getSpellingEv
libclangAST.so.8:_ZNK5clang16OptimizeNoneAttr11printPrettyERN4llvm11raw_ostreamERKNS_14PrintingPolicyE
libclangAST.so.8:_ZNK5clang16OptimizeNoneAttr5cloneERNS_10ASTContextE
libclangAST.so.8:_ZNK5clang16OverloadableAttr11getSpellingEv
libclangAST.so.8:_ZNK5clang16OverloadableAttr11printPrettyERN4llvm11raw_ostreamERKNS_14PrintingPolicyE
libclangAST.so.8:_ZNK5clang16OverloadableAttr5cloneERNS_10ASTContextE
libclangAST.so.8:_ZNK5clang16PreserveMostAttr11getSpellingEv
libclangAST.so.8:_ZNK5clang16PreserveMostAttr11printPrettyERN4llvm11raw_ostreamERKNS_14PrintingPolicyE
libclangAST.so.8:_ZNK5clang16PreserveMostAttr5cloneERNS_10ASTContextE
libclangAST.so.8:_ZNK5clang16PtGuardedVarAttr11getSpellingEv
libclangAST.so.8:_ZNK5clang16PtGuardedVarAttr11printPrettyERN4llvm11raw_ostreamERKNS_14PrintingPolicyE
libclangAST.so.8:_ZNK5clang16PtGuardedVarAttr5cloneERNS_10ASTContextE
libclangAST.so.8:_ZNK5clang16ReturnsTwiceAttr11getSpellingEv
libclangAST.so.8:_ZNK5clang16ReturnsTwiceAttr11printPrettyERN4llvm11raw_ostreamERKNS_14PrintingPolicyE
libclangAST.so.8:_ZNK5clang16ReturnsTwiceAttr5cloneERNS_10ASTContextE
libclangAST.so.8:_ZNK5clang16SetTypestateAttr11getSpellingEv
libclangAST.so.8:_ZNK5clang16SetTypestateAttr11printPrettyERN4llvm11raw_ostreamERKNS_14PrintingPolicyE
libclangAST.so.8:_ZNK5clang16SetTypestateAttr5cloneERNS_10ASTContextE
libclangAST.so.8:_ZNK5clang16StmtIteratorBase11GetDeclExprEv
libclangAST.so.8:_ZNK5clang16SwiftContextAttr11getSpellingEv
libclangAST.so.8:_ZNK5clang16SwiftContextAttr11printPrettyERN4llvm11raw_ostreamERKNS_14PrintingPolicyE
libclangAST.so.8:_ZNK5clang16SwiftContextAttr5cloneERNS_10ASTContextE
libclangAST.so.8:_ZNK5clang16TemplateArgument11isDependentEv
libclangAST.so.8:_ZNK5clang16TemplateArgument15isPackExpansionEv
libclangAST.so.8:_ZNK5clang16TemplateArgument18structurallyEqualsERKS0_
libclangAST.so.8:_ZNK5clang16TemplateArgument23getPackExpansionPatternEv
libclangAST.so.8:_ZNK5clang16TemplateArgument24getNumTemplateExpansionsEv
libclangAST.so.8:_ZNK5clang16TemplateArgument24isInstantiationDependentEv
libclangAST.so.8:_ZNK5clang16TemplateArgument30getNonTypeTemplateArgumentTypeEv
libclangAST.so.8:_ZNK5clang16TemplateArgument31containsUnexpandedParameterPackEv
libclangAST.so.8:_ZNK5clang16TemplateArgument4dumpERN4llvm11raw_ostreamE
libclangAST.so.8:_ZNK5clang16TemplateArgument4dumpEv
libclangAST.so.8:_ZNK5clang16TemplateArgument5printERKNS_14PrintingPolicyERN4llvm11raw_ostreamE
libclangAST.so.8:_ZNK5clang16TemplateArgument7ProfileERN4llvm16FoldingSetNodeIDERKNS_10ASTContextE
libclangAST.so.8:_ZNK5clang16TypeNullableAttr11getSpellingEv
libclangAST.so.8:_ZNK5clang16TypeNullableAttr11printPrettyERN4llvm11raw_ostreamERKNS_14PrintingPolicyE
libclangAST.so.8:_ZNK5clang16TypeNullableAttr5cloneERNS_10ASTContextE
libclangAST.so.8:_ZNK5clang17AMDGPUNumSGPRAttr11getSpellingEv
libclangAST.so.8:_ZNK5clang17AMDGPUNumSGPRAttr11printPrettyERN4llvm11raw_ostreamERKNS_14PrintingPolicyE
libclangAST.so.8:_ZNK5clang17AMDGPUNumSGPRAttr5cloneERNS_10ASTContextE
libclangAST.so.8:_ZNK5clang17AMDGPUNumVGPRAttr11getSpellingEv
libclangAST.so.8:_ZNK5clang17AMDGPUNumVGPRAttr11printPrettyERN4llvm11raw_ostreamERKNS_14PrintingPolicyE
libclangAST.so.8:_ZNK5clang17AMDGPUNumVGPRAttr5cloneERNS_10ASTContextE
libclangAST.so.8:_ZNK5clang17AcquiredAfterAttr11getSpellingEv
libclangAST.so.8:_ZNK5clang17AcquiredAfterAttr11printPrettyERN4llvm11raw_ostreamERKNS_14PrintingPolicyE
libclangAST.so.8:_ZNK5clang17AcquiredAfterAttr5cloneERNS_10ASTContextE
libclangAST.so.8:_ZNK5clang17AlwaysDestroyAttr11getSpellingEv
libclangAST.so.8:_ZNK5clang17AlwaysDestroyAttr11printPrettyERN4llvm11raw_ostreamERKNS_14PrintingPolicyE
libclangAST.so.8:_ZNK5clang17AlwaysDestroyAttr5cloneERNS_10ASTContextE
libclangAST.so.8:_ZNK5clang17AssumeAlignedAttr11getSpellingEv
libclangAST.so.8:_ZNK5clang17AssumeAlignedAttr11printPrettyERN4llvm11raw_ostreamERKNS_14PrintingPolicyE
libclangAST.so.8:_ZNK5clang17AssumeAlignedAttr5cloneERNS_10ASTContextE
libclangAST.so.8:_ZNK5clang17CXX11NoReturnAttr11getSpellingEv
libclangAST.so.8:_ZNK5clang17CXX11NoReturnAttr11printPrettyERN4llvm11raw_ostreamERKNS_14PrintingPolicyE
libclangAST.so.8:_ZNK5clang17CXX11NoReturnAttr5cloneERNS_10ASTContextE
libclangAST.so.8:_ZNK5clang17CXXConversionDecl32isLambdaToBlockPointerConversionEv
libclangAST.so.8:_ZNK5clang17CXXMemberCallExpr13getMethodDeclEv
libclangAST.so.8:_ZNK5clang17CXXMemberCallExpr13getRecordDeclEv
libclangAST.so.8:_ZNK5clang17CXXMemberCallExpr25getImplicitObjectArgumentEv
libclangAST.so.8:_ZNK5clang17ClassTemplateDecl18getSpecializationsEv
libclangAST.so.8:_ZNK5clang17ClassTemplateDecl23LoadLazySpecializationsEv
libclangAST.so.8:_ZNK5clang17ClassTemplateDecl9newCommonERNS_10ASTContextE
libclangAST.so.8:_ZNK5clang17DecompositionDecl9printNameERN4llvm11raw_ostreamE
libclangAST.so.8:_ZNK5clang17ExternalASTSource19ASTSourceDescriptor13getModuleNameB5cxx11Ev
libclangAST.so.8:_ZNK5clang17ExternalASTSource20getMemoryBufferSizesERNS0_17MemoryBufferSizesE
libclangAST.so.8:_ZNK5clang17FixedPointLiteral16getValueAsStringB5cxx11Ej
libclangAST.so.8:_ZNK5clang17FunctionProtoType18isTemplateVariadicEv
libclangAST.so.8:_ZNK5clang17FunctionProtoType25hasDependentExceptionSpecEv
libclangAST.so.8:_ZNK5clang17FunctionProtoType27printExceptionSpecificationERN4llvm11raw_ostreamERKNS_14PrintingPolicyE
libclangAST.so.8:_ZNK5clang17FunctionProtoType38hasInstantiationDependentExceptionSpecEv
libclangAST.so.8:_ZNK5clang17FunctionProtoType8canThrowEv
libclangAST.so.8:_ZNK5clang17LayoutVersionAttr11getSpellingEv
libclangAST.so.8:_ZNK5clang17LayoutVersionAttr11printPrettyERN4llvm11raw_ostreamERKNS_14PrintingPolicyE
libclangAST.so.8:_ZNK5clang17LayoutVersionAttr5cloneERNS_10ASTContextE
libclangAST.so.8:_ZNK5clang17LifetimeBoundAttr11getSpellingEv
libclangAST.so.8:_ZNK5clang17LifetimeBoundAttr11printPrettyERN4llvm11raw_ostreamERKNS_14PrintingPolicyE
libclangAST.so.8:_ZNK5clang17LifetimeBoundAttr5cloneERNS_10ASTContextE
libclangAST.so.8:_ZNK5clang17LocksExcludedAttr11getSpellingEv
libclangAST.so.8:_ZNK5clang17LocksExcludedAttr11printPrettyERN4llvm11raw_ostreamERKNS_14PrintingPolicyE
libclangAST.so.8:_ZNK5clang17LocksExcludedAttr5cloneERNS_10ASTContextE
libclangAST.so.8:_ZNK5clang17MSInheritanceAttr11getSpellingEv
libclangAST.so.8:_ZNK5clang17MSInheritanceAttr11printPrettyERN4llvm11raw_ostreamERKNS_14PrintingPolicyE
libclangAST.so.8:_ZNK5clang17MSInheritanceAttr5cloneERNS_10ASTContextE
libclangAST.so.8:_ZNK5clang17MemberPointerType26getMostRecentCXXRecordDeclEv
libclangAST.so.8:_ZNK5clang17MipsInterruptAttr11getSpellingEv
libclangAST.so.8:_ZNK5clang17MipsInterruptAttr11printPrettyERN4llvm11raw_ostreamERKNS_14PrintingPolicyE
libclangAST.so.8:_ZNK5clang17MipsInterruptAttr5cloneERNS_10ASTContextE
libclangAST.so.8:_ZNK5clang17MipsShortCallAttr11getSpellingEv
libclangAST.so.8:_ZNK5clang17MipsShortCallAttr11printPrettyERN4llvm11raw_ostreamERKNS_14PrintingPolicyE
libclangAST.so.8:_ZNK5clang17MipsShortCallAttr5cloneERNS_10ASTContextE
libclangAST.so.8:_ZNK5clang17NotTailCalledAttr11getSpellingEv
libclangAST.so.8:_ZNK5clang17NotTailCalledAttr11printPrettyERN4llvm11raw_ostreamERKNS_14PrintingPolicyE
libclangAST.so.8:_ZNK5clang17NotTailCalledAttr5cloneERNS_10ASTContextE
libclangAST.so.8:_ZNK5clang17ObjCContainerDecl11getIvarDeclEPNS_14IdentifierInfoE
libclangAST.so.8:_ZNK5clang17ObjCContainerDecl23FindPropertyDeclarationEPKNS_14IdentifierInfoENS_21ObjCPropertyQueryKindE
libclangAST.so.8:_ZNK5clang17ObjCContainerDecl27HasUserDeclaredSetterMethodEPKNS_16ObjCPropertyDeclE
libclangAST.so.8:_ZNK5clang17ObjCContainerDecl9getMethodENS_8SelectorEbb
libclangAST.so.8:_ZNK5clang17ObjCExceptionAttr11getSpellingEv
libclangAST.so.8:_ZNK5clang17ObjCExceptionAttr11printPrettyERN4llvm11raw_ostreamERKNS_14PrintingPolicyE
libclangAST.so.8:_ZNK5clang17ObjCExceptionAttr5cloneERNS_10ASTContextE
libclangAST.so.8:_ZNK5clang17ObjCInterfaceDecl12lookupMethodENS_8SelectorEbbbPKNS_16ObjCCategoryDeclE
libclangAST.so.8:_ZNK5clang17ObjCInterfaceDecl13getSuperClassEv
libclangAST.so.8:_ZNK5clang17ObjCInterfaceDecl16getSuperClassLocEv
libclangAST.so.8:_ZNK5clang17ObjCInterfaceDecl16getTypeParamListEv
libclangAST.so.8:_ZNK5clang17ObjCInterfaceDecl17getImplementationEv
libclangAST.so.8:_ZNK5clang17ObjCInterfaceDecl19lookupPrivateMethodERKNS_8SelectorEb
libclangAST.so.8:_ZNK5clang17ObjCInterfaceDecl22LoadExternalDefinitionEv
libclangAST.so.8:_ZNK5clang17ObjCInterfaceDecl22getCategoryClassMethodENS_8SelectorE
libclangAST.so.8:_ZNK5clang17ObjCInterfaceDecl23FindCategoryDeclarationEPNS_14IdentifierInfoE
libclangAST.so.8:_ZNK5clang17ObjCInterfaceDecl23isArcWeakrefUnavailableEv
libclangAST.so.8:_ZNK5clang17ObjCInterfaceDecl23isDesignatedInitializerENS_8SelectorEPPKNS_14ObjCMethodDeclE
libclangAST.so.8:_ZNK5clang17ObjCInterfaceDecl25getCategoryInstanceMethodENS_8SelectorE
libclangAST.so.8:_ZNK5clang17ObjCInterfaceDecl25getDesignatedInitializersERN4llvm15SmallVectorImplIPKNS_14ObjCMethodDeclEEE
libclangAST.so.8:_ZNK5clang17ObjCInterfaceDecl25hasDesignatedInitializersEv
libclangAST.so.8:_ZNK5clang17ObjCInterfaceDecl26getObjCRuntimeNameAsStringEv
libclangAST.so.8:_ZNK5clang17ObjCInterfaceDecl26isObjCRequiresPropertyDefsEv
libclangAST.so.8:_ZNK5clang17ObjCInterfaceDecl28collectPropertiesToImplementERN4llvm8DenseMapISt4pairIPNS_14IdentifierInfoEjEPNS_16ObjCPropertyDeclENS1_12DenseMapInfoIS6_EENS1_6detail12DenseMapPairIS6_S8_EEEERNS1_11SmallVectorIS8_Lj8EEE
libclangAST.so.8:_ZNK5clang17ObjCInterfaceDecl30inheritsDesignatedInitializersEv
libclangAST.so.8:_ZNK5clang17ObjCInterfaceDecl33FindPropertyVisibleInPrimaryClassEPNS_14IdentifierInfoENS_21ObjCPropertyQueryKindE
libclangAST.so.8:_ZNK5clang17ObjCInterfaceDecl39findInterfaceWithDesignatedInitializersEv
libclangAST.so.8:_ZNK5clang17ObjCOwnershipAttr11getSpellingEv
libclangAST.so.8:_ZNK5clang17ObjCOwnershipAttr11printPrettyERN4llvm11raw_ostreamERKNS_14PrintingPolicyE
libclangAST.so.8:_ZNK5clang17ObjCOwnershipAttr5cloneERNS_10ASTContextE
libclangAST.so.8:_ZNK5clang17ObjCRootClassAttr11getSpellingEv
libclangAST.so.8:_ZNK5clang17ObjCRootClassAttr11printPrettyERN4llvm11raw_ostreamERKNS_14PrintingPolicyE
libclangAST.so.8:_ZNK5clang17ObjCRootClassAttr5cloneERNS_10ASTContextE
libclangAST.so.8:_ZNK5clang17ObjCTypeParamDecl14getSourceRangeEv
libclangAST.so.8:_ZNK5clang17ObjCTypeParamList21gatherDefaultTypeArgsERN4llvm15SmallVectorImplINS_8QualTypeEEE
libclangAST.so.8:_ZNK5clang17ReinitializesAttr11getSpellingEv
libclangAST.so.8:_ZNK5clang17ReinitializesAttr11printPrettyERN4llvm11raw_ostreamERKNS_14PrintingPolicyE
libclangAST.so.8:_ZNK5clang17ReinitializesAttr5cloneERNS_10ASTContextE
libclangAST.so.8:_ZNK5clang17TestTypestateAttr11getSpellingEv
libclangAST.so.8:_ZNK5clang17TestTypestateAttr11printPrettyERN4llvm11raw_ostreamERKNS_14PrintingPolicyE
libclangAST.so.8:_ZNK5clang17TestTypestateAttr5cloneERNS_10ASTContextE
libclangAST.so.8:_ZNK5clang17TypeOfExprTypeLoc19getLocalSourceRangeEv
libclangAST.so.8:_ZNK5clang17UninitializedAttr11getSpellingEv
libclangAST.so.8:_ZNK5clang17UninitializedAttr11printPrettyERN4llvm11raw_ostreamERKNS_14PrintingPolicyE
libclangAST.so.8:_ZNK5clang17UninitializedAttr5cloneERNS_10ASTContextE
libclangAST.so.8:_ZNK5clang18AcquiredBeforeAttr11getSpellingEv
libclangAST.so.8:_ZNK5clang18AcquiredBeforeAttr11printPrettyERN4llvm11raw_ostreamERKNS_14PrintingPolicyE
libclangAST.so.8:_ZNK5clang18AcquiredBeforeAttr5cloneERNS_10ASTContextE
libclangAST.so.8:_ZNK5clang18CXXConstructorDecl10init_beginEv
libclangAST.so.8:_ZNK5clang18CXXConstructorDecl17isCopyConstructorERj
libclangAST.so.8:_ZNK5clang18CXXConstructorDecl17isMoveConstructorERj
libclangAST.so.8:_ZNK5clang18CXXConstructorDecl20getTargetConstructorEv
libclangAST.so.8:_ZNK5clang18CXXConstructorDecl20isDefaultConstructorEv
libclangAST.so.8:_ZNK5clang18CXXConstructorDecl23isConvertingConstructorEb
libclangAST.so.8:_ZNK5clang18CXXConstructorDecl23isCopyOrMoveConstructorERj
libclangAST.so.8:_ZNK5clang18CXXConstructorDecl29isSpecializationCopyingObjectEv
libclangAST.so.8:_ZNK5clang18CXXCtorInitializer12getBaseClassEv
libclangAST.so.8:_ZNK5clang18CXXCtorInitializer14getSourceRangeEv
libclangAST.so.8:_ZNK5clang18CXXCtorInitializer15getBaseClassLocEv
libclangAST.so.8:_ZNK5clang18CXXCtorInitializer17getSourceLocationEv
libclangAST.so.8:_ZNK5clang18CXXCtorInitializer5getIDERKNS_10ASTContextE
libclangAST.so.8:_ZNK5clang18CXXDynamicCastExpr12isAlwaysNullEv
libclangAST.so.8:_ZNK5clang18CapturedRecordAttr11getSpellingEv
libclangAST.so.8:_ZNK5clang18CapturedRecordAttr11printPrettyERN4llvm11raw_ostreamERKNS_14PrintingPolicyE
libclangAST.so.8:_ZNK5clang18CapturedRecordAttr5cloneERNS_10ASTContextE
libclangAST.so.8:_ZNK5clang18DesignatedInitExpr10Designator12getFieldNameEv
libclangAST.so.8:_ZNK5clang18DesignatedInitExpr11getBeginLocEv
libclangAST.so.8:_ZNK5clang18DesignatedInitExpr13getArrayIndexERKNS0_10DesignatorE
libclangAST.so.8:_ZNK5clang18DesignatedInitExpr16getArrayRangeEndERKNS0_10DesignatorE
libclangAST.so.8:_ZNK5clang18DesignatedInitExpr18getArrayRangeStartERKNS0_10DesignatorE
libclangAST.so.8:_ZNK5clang18DesignatedInitExpr25getDesignatorsSourceRangeEv
libclangAST.so.8:_ZNK5clang18DesignatedInitExpr9getEndLocEv
libclangAST.so.8:_ZNK5clang18MinVectorWidthAttr11getSpellingEv
libclangAST.so.8:_ZNK5clang18MinVectorWidthAttr11printPrettyERN4llvm11raw_ostreamERKNS_14PrintingPolicyE
libclangAST.so.8:_ZNK5clang18MinVectorWidthAttr5cloneERNS_10ASTContextE
libclangAST.so.8:_ZNK5clang18NSConsumesSelfAttr11getSpellingEv
libclangAST.so.8:_ZNK5clang18NSConsumesSelfAttr11printPrettyERN4llvm11raw_ostreamERKNS_14PrintingPolicyE
libclangAST.so.8:_ZNK5clang18NSConsumesSelfAttr5cloneERNS_10ASTContextE
libclangAST.so.8:_ZNK5clang18OMPCaptureKindAttr11getSpellingEv
libclangAST.so.8:_ZNK5clang18OMPCaptureKindAttr11printPrettyERN4llvm11raw_ostreamERKNS_14PrintingPolicyE
libclangAST.so.8:_ZNK5clang18OMPCaptureKindAttr5cloneERNS_10ASTContextE
libclangAST.so.8:_ZNK5clang18OSConsumesThisAttr11getSpellingEv
libclangAST.so.8:_ZNK5clang18OSConsumesThisAttr11printPrettyERN4llvm11raw_ostreamERKNS_14PrintingPolicyE
libclangAST.so.8:_ZNK5clang18OSConsumesThisAttr5cloneERNS_10ASTContextE
libclangAST.so.8:_ZNK5clang18ParamTypestateAttr11getSpellingEv
libclangAST.so.8:_ZNK5clang18ParamTypestateAttr11printPrettyERN4llvm11raw_ostreamERKNS_14PrintingPolicyE
libclangAST.so.8:_ZNK5clang18ParamTypestateAttr5cloneERNS_10ASTContextE
libclangAST.so.8:_ZNK5clang18PassObjectSizeAttr11getSpellingEv
libclangAST.so.8:_ZNK5clang18PassObjectSizeAttr11printPrettyERN4llvm11raw_ostreamERKNS_14PrintingPolicyE
libclangAST.so.8:_ZNK5clang18PassObjectSizeAttr5cloneERNS_10ASTContextE
libclangAST.so.8:_ZNK5clang18QualifierCollector5applyERKNS_10ASTContextENS_8QualTypeE
libclangAST.so.8:_ZNK5clang18QualifierCollector5applyERKNS_10ASTContextEPKNS_4TypeE
libclangAST.so.8:_ZNK5clang18RISCVInterruptAttr11getSpellingEv
libclangAST.so.8:_ZNK5clang18RISCVInterruptAttr11printPrettyERN4llvm11raw_ostreamERKNS_14PrintingPolicyE
libclangAST.so.8:_ZNK5clang18RISCVInterruptAttr5cloneERNS_10ASTContextE
libclangAST.so.8:_ZNK5clang18ReturnsNonNullAttr11getSpellingEv
libclangAST.so.8:_ZNK5clang18ReturnsNonNullAttr11printPrettyERN4llvm11raw_ostreamERKNS_14PrintingPolicyE
libclangAST.so.8:_ZNK5clang18ReturnsNonNullAttr5cloneERNS_10ASTContextE
libclangAST.so.8:_ZNK5clang18ScopedLockableAttr11getSpellingEv
libclangAST.so.8:_ZNK5clang18ScopedLockableAttr11printPrettyERN4llvm11raw_ostreamERKNS_14PrintingPolicyE
libclangAST.so.8:_ZNK5clang18ScopedLockableAttr5cloneERNS_10ASTContextE
libclangAST.so.8:_ZNK5clang18TypeVisibilityAttr11getSpellingEv
libclangAST.so.8:_ZNK5clang18TypeVisibilityAttr11printPrettyERN4llvm11raw_ostreamERKNS_14PrintingPolicyE
libclangAST.so.8:_ZNK5clang18TypeVisibilityAttr5cloneERNS_10ASTContextE
libclangAST.so.8:_ZNK5clang18UserDefinedLiteral11getUDSuffixEv
libclangAST.so.8:_ZNK5clang18UserDefinedLiteral22getLiteralOperatorKindEv
libclangAST.so.8:_ZNK5clang18XRayInstrumentAttr11getSpellingEv
libclangAST.so.8:_ZNK5clang18XRayInstrumentAttr11printPrettyERN4llvm11raw_ostreamERKNS_14PrintingPolicyE
libclangAST.so.8:_ZNK5clang18XRayInstrumentAttr5cloneERNS_10ASTContextE
libclangAST.so.8:_ZNK5clang19AnyX86InterruptAttr11getSpellingEv
libclangAST.so.8:_ZNK5clang19AnyX86InterruptAttr11printPrettyERN4llvm11raw_ostreamERKNS_14PrintingPolicyE
libclangAST.so.8:_ZNK5clang19AnyX86InterruptAttr5cloneERNS_10ASTContextE
libclangAST.so.8:_ZNK5clang19AnyX86NoCfCheckAttr11getSpellingEv
libclangAST.so.8:_ZNK5clang19AnyX86NoCfCheckAttr11printPrettyERN4llvm11raw_ostreamERKNS_14PrintingPolicyE
libclangAST.so.8:_ZNK5clang19AnyX86NoCfCheckAttr5cloneERNS_10ASTContextE
libclangAST.so.8:_ZNK5clang19CXXOperatorCallExpr15isInfixBinaryOpEv
libclangAST.so.8:_ZNK5clang19CXXOperatorCallExpr18getSourceRangeImplEv
libclangAST.so.8:_ZNK5clang19DeclarationNameInfo11getAsStringB5cxx11Ev
libclangAST.so.8:_ZNK5clang19DeclarationNameInfo16getEndLocPrivateEv
libclangAST.so.8:_ZNK5clang19DeclarationNameInfo24isInstantiationDependentEv
libclangAST.so.8:_ZNK5clang19DeclarationNameInfo31containsUnexpandedParameterPackEv
libclangAST.so.8:_ZNK5clang19DeclarationNameInfo9printNameERN4llvm11raw_ostreamE
libclangAST.so.8:_ZNK5clang19InternalLinkageAttr11getSpellingEv
libclangAST.so.8:_ZNK5clang19InternalLinkageAttr11printPrettyERN4llvm11raw_ostreamERKNS_14PrintingPolicyE
libclangAST.so.8:_ZNK5clang19InternalLinkageAttr5cloneERNS_10ASTContextE
libclangAST.so.8:_ZNK5clang19MSP430InterruptAttr11getSpellingEv
libclangAST.so.8:_ZNK5clang19MSP430InterruptAttr11printPrettyERN4llvm11raw_ostreamERKNS_14PrintingPolicyE
libclangAST.so.8:_ZNK5clang19MSP430InterruptAttr5cloneERNS_10ASTContextE
libclangAST.so.8:_ZNK5clang19NestedNameSpecifier11isDependentEv
libclangAST.so.8:_ZNK5clang19NestedNameSpecifier14getAsNamespaceEv
libclangAST.so.8:_ZNK5clang19NestedNameSpecifier15getAsRecordDeclEv
libclangAST.so.8:_ZNK5clang19NestedNameSpecifier19getAsNamespaceAliasEv
libclangAST.so.8:_ZNK5clang19NestedNameSpecifier24isInstantiationDependentEv
libclangAST.so.8:_ZNK5clang19NestedNameSpecifier31containsUnexpandedParameterPackEv
libclangAST.so.8:_ZNK5clang19NestedNameSpecifier4dumpERKNS_11LangOptionsE
libclangAST.so.8:_ZNK5clang19NestedNameSpecifier4dumpERN4llvm11raw_ostreamE
libclangAST.so.8:_ZNK5clang19NestedNameSpecifier4dumpERN4llvm11raw_ostreamERKNS_11LangOptionsE
libclangAST.so.8:_ZNK5clang19NestedNameSpecifier4dumpEv
libclangAST.so.8:_ZNK5clang19NestedNameSpecifier5printERN4llvm11raw_ostreamERKNS_14PrintingPolicyEb
libclangAST.so.8:_ZNK5clang19NestedNameSpecifier7getKindEv
libclangAST.so.8:_ZNK5clang19OMPCapturedExprDecl14getSourceRangeEv
libclangAST.so.8:_ZNK5clang19ObjCBridgedCastExpr17getBridgeKindNameEv
libclangAST.so.8:_ZNK5clang19ObjCPropertyRefExpr15getReceiverTypeERKNS_10ASTContextE
libclangAST.so.8:_ZNK5clang19ObjCRuntimeNameAttr11getSpellingEv
libclangAST.so.8:_ZNK5clang19ObjCRuntimeNameAttr11printPrettyERN4llvm11raw_ostreamERKNS_14PrintingPolicyE
libclangAST.so.8:_ZNK5clang19ObjCRuntimeNameAttr5cloneERNS_10ASTContextE
libclangAST.so.8:_ZNK5clang19ReturnTypestateAttr11getSpellingEv
libclangAST.so.8:_ZNK5clang19ReturnTypestateAttr11printPrettyERN4llvm11raw_ostreamERKNS_14PrintingPolicyE
libclangAST.so.8:_ZNK5clang19ReturnTypestateAttr5cloneERNS_10ASTContextE
libclangAST.so.8:_ZNK5clang19TemplateArgumentLoc14getSourceRangeEv
libclangAST.so.8:_ZNK5clang20AArch64VectorPcsAttr11getSpellingEv
libclangAST.so.8:_ZNK5clang20AArch64VectorPcsAttr11printPrettyERN4llvm11raw_ostreamERKNS_14PrintingPolicyE
libclangAST.so.8:_ZNK5clang20AArch64VectorPcsAttr5cloneERNS_10ASTContextE
libclangAST.so.8:_ZNK5clang20AMDGPUWavesPerEUAttr11getSpellingEv
libclangAST.so.8:_ZNK5clang20AMDGPUWavesPerEUAttr11printPrettyERN4llvm11raw_ostreamERKNS_14PrintingPolicyE
libclangAST.so.8:_ZNK5clang20AMDGPUWavesPerEUAttr5cloneERNS_10ASTContextE
libclangAST.so.8:_ZNK5clang20AnalyzerNoReturnAttr11getSpellingEv
libclangAST.so.8:_ZNK5clang20AnalyzerNoReturnAttr11printPrettyERN4llvm11raw_ostreamERKNS_14PrintingPolicyE
libclangAST.so.8:_ZNK5clang20AnalyzerNoReturnAttr5cloneERNS_10ASTContextE
libclangAST.so.8:_ZNK5clang20AssertCapabilityAttr11getSpellingEv
libclangAST.so.8:_ZNK5clang20AssertCapabilityAttr11printPrettyERN4llvm11raw_ostreamERKNS_14PrintingPolicyE
libclangAST.so.8:_ZNK5clang20AssertCapabilityAttr5cloneERNS_10ASTContextE
libclangAST.so.8:_ZNK5clang20AssertSharedLockAttr11getSpellingEv
libclangAST.so.8:_ZNK5clang20AssertSharedLockAttr11printPrettyERN4llvm11raw_ostreamERKNS_14PrintingPolicyE
libclangAST.so.8:_ZNK5clang20AssertSharedLockAttr5cloneERNS_10ASTContextE
libclangAST.so.8:_ZNK5clang20CUDALaunchBoundsAttr11getSpellingEv
libclangAST.so.8:_ZNK5clang20CUDALaunchBoundsAttr11printPrettyERN4llvm11raw_ostreamERKNS_14PrintingPolicyE
libclangAST.so.8:_ZNK5clang20CUDALaunchBoundsAttr5cloneERNS_10ASTContextE
libclangAST.so.8:_ZNK5clang20ComparisonCategories10lookupInfoENS_22ComparisonCategoryTypeE
libclangAST.so.8:_ZNK5clang20ComparisonCategories14getInfoForTypeENS_8QualTypeE
libclangAST.so.8:_ZNK5clang20ComparisonCategories17lookupInfoForTypeENS_8QualTypeE
libclangAST.so.8:_ZNK5clang20DisableTailCallsAttr11getSpellingEv
libclangAST.so.8:_ZNK5clang20DisableTailCallsAttr11printPrettyERN4llvm11raw_ostreamERKNS_14PrintingPolicyE
libclangAST.so.8:_ZNK5clang20DisableTailCallsAttr5cloneERNS_10ASTContextE
libclangAST.so.8:_ZNK5clang20ExtVectorElementExpr14getNumElementsEv
libclangAST.so.8:_ZNK5clang20ExtVectorElementExpr23getEncodedElementAccessERN4llvm15SmallVectorImplIjEE
libclangAST.so.8:_ZNK5clang20ExtVectorElementExpr25containsDuplicateElementsEv
libclangAST.so.8:_ZNK5clang20ExtVectorElementExpr7isArrowEv
libclangAST.so.8:_ZNK5clang20FunctionTemplateDecl18getSpecializationsEv
libclangAST.so.8:_ZNK5clang20FunctionTemplateDecl23LoadLazySpecializationsEv
libclangAST.so.8:_ZNK5clang20FunctionTemplateDecl9newCommonERNS_10ASTContextE
libclangAST.so.8:_ZNK5clang20LazyASTUnresolvedSet21getFromExternalSourceERNS_10ASTContextE
libclangAST.so.8:_ZNK5clang20NoStackProtectorAttr11getSpellingEv
libclangAST.so.8:_ZNK5clang20NoStackProtectorAttr11printPrettyERN4llvm11raw_ostreamERKNS_14PrintingPolicyE
libclangAST.so.8:_ZNK5clang20NoStackProtectorAttr5cloneERNS_10ASTContextE
libclangAST.so.8:_ZNK5clang20OMPCaptureNoInitAttr11getSpellingEv
libclangAST.so.8:_ZNK5clang20OMPCaptureNoInitAttr11printPrettyERN4llvm11raw_ostreamERKNS_14PrintingPolicyE
libclangAST.so.8:_ZNK5clang20OMPCaptureNoInitAttr5cloneERNS_10ASTContextE
libclangAST.so.8:_ZNK5clang20OMPReferencedVarAttr11getSpellingEv
libclangAST.so.8:_ZNK5clang20OMPReferencedVarAttr11printPrettyERN4llvm11raw_ostreamERKNS_14PrintingPolicyE
libclangAST.so.8:_ZNK5clang20OMPReferencedVarAttr5cloneERNS_10ASTContextE
libclangAST.so.8:_ZNK5clang20ObjCCategoryImplDecl15getCategoryDeclEv
libclangAST.so.8:_ZNK5clang20ObjCMethodFamilyAttr11getSpellingEv
libclangAST.so.8:_ZNK5clang20ObjCMethodFamilyAttr11printPrettyERN4llvm11raw_ostreamERKNS_14PrintingPolicyE
libclangAST.so.8:_ZNK5clang20ObjCMethodFamilyAttr5cloneERNS_10ASTContextE
libclangAST.so.8:_ZNK5clang20ObjCPropertyImplDecl14getSourceRangeEv
libclangAST.so.8:_ZNK5clang20OpenCLUnrollHintAttr11getSpellingEv
libclangAST.so.8:_ZNK5clang20OpenCLUnrollHintAttr11printPrettyERN4llvm11raw_ostreamERKNS_14PrintingPolicyE
libclangAST.so.8:_ZNK5clang20OpenCLUnrollHintAttr5cloneERNS_10ASTContextE
libclangAST.so.8:_ZNK5clang20PrettyStackTraceDecl5printERN4llvm11raw_ostreamE
libclangAST.so.8:_ZNK5clang20SwiftErrorResultAttr11getSpellingEv
libclangAST.so.8:_ZNK5clang20SwiftErrorResultAttr11printPrettyERN4llvm11raw_ostreamERKNS_14PrintingPolicyE
libclangAST.so.8:_ZNK5clang20SwiftErrorResultAttr5cloneERNS_10ASTContextE
libclangAST.so.8:_ZNK5clang20TemplateTypeParmDecl14getSourceRangeEv
libclangAST.so.8:_ZNK5clang20TemplateTypeParmDecl15isParameterPackEv
libclangAST.so.8:_ZNK5clang20TemplateTypeParmDecl21getDefaultArgumentLocEv
libclangAST.so.8:_ZNK5clang20TemplateTypeParmDecl8getDepthEv
libclangAST.so.8:_ZNK5clang20TemplateTypeParmDecl8getIndexEv
libclangAST.so.8:_ZNK5clang20TemplateTypeParmType13getIdentifierEv
libclangAST.so.8:_ZNK5clang20TransparentUnionAttr11getSpellingEv
libclangAST.so.8:_ZNK5clang20TransparentUnionAttr11printPrettyERN4llvm11raw_ostreamERKNS_14PrintingPolicyE
libclangAST.so.8:_ZNK5clang20TransparentUnionAttr5cloneERNS_10ASTContextE
libclangAST.so.8:_ZNK5clang20UnresolvedMemberExpr16isImplicitAccessEv
libclangAST.so.8:_ZNK5clang20WarnUnusedResultAttr11getSpellingEv
libclangAST.so.8:_ZNK5clang20WarnUnusedResultAttr11printPrettyERN4llvm11raw_ostreamERKNS_14PrintingPolicyE
libclangAST.so.8:_ZNK5clang20WarnUnusedResultAttr5cloneERNS_10ASTContextE
libclangAST.so.8:_ZNK5clang21AcquireCapabilityAttr11getSpellingEv
libclangAST.so.8:_ZNK5clang21AcquireCapabilityAttr11printPrettyERN4llvm11raw_ostreamERKNS_14PrintingPolicyE
libclangAST.so.8:_ZNK5clang21AcquireCapabilityAttr5cloneERNS_10ASTContextE
libclangAST.so.8:_ZNK5clang21CFAuditedTransferAttr11getSpellingEv
libclangAST.so.8:_ZNK5clang21CFAuditedTransferAttr11printPrettyERN4llvm11raw_ostreamERKNS_14PrintingPolicyE
libclangAST.so.8:_ZNK5clang21CFAuditedTransferAttr5cloneERNS_10ASTContextE
libclangAST.so.8:_ZNK5clang21CFReturnsRetainedAttr11getSpellingEv
libclangAST.so.8:_ZNK5clang21CFReturnsRetainedAttr11printPrettyERN4llvm11raw_ostreamERKNS_14PrintingPolicyE
libclangAST.so.8:_ZNK5clang21CFReturnsRetainedAttr5cloneERNS_10ASTContextE
libclangAST.so.8:_ZNK5clang21CFUnknownTransferAttr11getSpellingEv
libclangAST.so.8:_ZNK5clang21CFUnknownTransferAttr11printPrettyERN4llvm11raw_ostreamERKNS_14PrintingPolicyE
libclangAST.so.8:_ZNK5clang21CFUnknownTransferAttr5cloneERNS_10ASTContextE
libclangAST.so.8:_ZNK5clang21CUDAInvalidTargetAttr11getSpellingEv
libclangAST.so.8:_ZNK5clang21CUDAInvalidTargetAttr11printPrettyERN4llvm11raw_ostreamERKNS_14PrintingPolicyE
libclangAST.so.8:_ZNK5clang21CUDAInvalidTargetAttr5cloneERNS_10ASTContextE
libclangAST.so.8:_ZNK5clang21CXXFunctionalCastExpr11getBeginLocEv
libclangAST.so.8:_ZNK5clang21CXXFunctionalCastExpr9getEndLocEv
libclangAST.so.8:_ZNK5clang21CarriesDependencyAttr11getSpellingEv
libclangAST.so.8:_ZNK5clang21CarriesDependencyAttr11printPrettyERN4llvm11raw_ostreamERKNS_14PrintingPolicyE
libclangAST.so.8:_ZNK5clang21CarriesDependencyAttr5cloneERNS_10ASTContextE
libclangAST.so.8:_ZNK5clang21EnumExtensibilityAttr11getSpellingEv
libclangAST.so.8:_ZNK5clang21EnumExtensibilityAttr11printPrettyERN4llvm11raw_ostreamERKNS_14PrintingPolicyE
libclangAST.so.8:_ZNK5clang21EnumExtensibilityAttr5cloneERNS_10ASTContextE
libclangAST.so.8:_ZNK5clang21InjectedClassNameType7getDeclEv
libclangAST.so.8:_ZNK5clang21MaxFieldAlignmentAttr11getSpellingEv
libclangAST.so.8:_ZNK5clang21MaxFieldAlignmentAttr11printPrettyERN4llvm11raw_ostreamERKNS_14PrintingPolicyE
libclangAST.so.8:_ZNK5clang21MaxFieldAlignmentAttr5cloneERNS_10ASTContextE
libclangAST.so.8:_ZNK5clang21NSReturnsRetainedAttr11getSpellingEv
libclangAST.so.8:_ZNK5clang21NSReturnsRetainedAttr11printPrettyERN4llvm11raw_ostreamERKNS_14PrintingPolicyE
libclangAST.so.8:_ZNK5clang21NSReturnsRetainedAttr5cloneERNS_10ASTContextE
libclangAST.so.8:_ZNK5clang21OSReturnsRetainedAttr11getSpellingEv
libclangAST.so.8:_ZNK5clang21OSReturnsRetainedAttr11printPrettyERN4llvm11raw_ostreamERKNS_14PrintingPolicyE
libclangAST.so.8:_ZNK5clang21OSReturnsRetainedAttr5cloneERNS_10ASTContextE
libclangAST.so.8:_ZNK5clang21ObjCBridgeMutableAttr11getSpellingEv
libclangAST.so.8:_ZNK5clang21ObjCBridgeMutableAttr11printPrettyERN4llvm11raw_ostreamERKNS_14PrintingPolicyE
libclangAST.so.8:_ZNK5clang21ObjCBridgeMutableAttr5cloneERNS_10ASTContextE
libclangAST.so.8:_ZNK5clang21ObjCBridgeRelatedAttr11getSpellingEv
libclangAST.so.8:_ZNK5clang21ObjCBridgeRelatedAttr11printPrettyERN4llvm11raw_ostreamERKNS_14PrintingPolicyE
libclangAST.so.8:_ZNK5clang21ObjCBridgeRelatedAttr5cloneERNS_10ASTContextE
libclangAST.so.8:_ZNK5clang21ObjCObjectPointerType16getInterfaceTypeEv
libclangAST.so.8:_ZNK5clang21ObjCObjectPointerType17getSuperClassTypeEv
libclangAST.so.8:_ZNK5clang21ObjCObjectPointerType27stripObjCKindOfTypeAndQualsERKNS_10ASTContextE
libclangAST.so.8:_ZNK5clang21ObjCRequiresSuperAttr11getSpellingEv
libclangAST.so.8:_ZNK5clang21ObjCRequiresSuperAttr11printPrettyERN4llvm11raw_ostreamERKNS_14PrintingPolicyE
libclangAST.so.8:_ZNK5clang21ObjCRequiresSuperAttr5cloneERNS_10ASTContextE
libclangAST.so.8:_ZNK5clang21ReleaseCapabilityAttr11getSpellingEv
libclangAST.so.8:_ZNK5clang21ReleaseCapabilityAttr11printPrettyERN4llvm11raw_ostreamERKNS_14PrintingPolicyE
libclangAST.so.8:_ZNK5clang21ReleaseCapabilityAttr5cloneERNS_10ASTContextE
libclangAST.so.8:_ZNK5clang21ReqdWorkGroupSizeAttr11getSpellingEv
libclangAST.so.8:_ZNK5clang21ReqdWorkGroupSizeAttr11printPrettyERN4llvm11raw_ostreamERKNS_14PrintingPolicyE
libclangAST.so.8:_ZNK5clang21ReqdWorkGroupSizeAttr5cloneERNS_10ASTContextE
libclangAST.so.8:_ZNK5clang21TemplateParameterList23getMinRequiredArgumentsEv
libclangAST.so.8:_ZNK5clang21TemplateParameterList8getDepthEv
libclangAST.so.8:_ZNK5clang21TypeAliasTemplateDecl9newCommonERNS_10ASTContextE
libclangAST.so.8:_ZNK5clang21WorkGroupSizeHintAttr11getSpellingEv
libclangAST.so.8:_ZNK5clang21WorkGroupSizeHintAttr11printPrettyERN4llvm11raw_ostreamERKNS_14PrintingPolicyE
libclangAST.so.8:_ZNK5clang21WorkGroupSizeHintAttr5cloneERNS_10ASTContextE
libclangAST.so.8:_ZNK5clang21analyze_format_string14LengthModifier8toStringEv
libclangAST.so.8:_ZNK5clang21analyze_format_string14OptionalAmount10getArgTypeERNS_10ASTContextE
libclangAST.so.8:_ZNK5clang21analyze_format_string14OptionalAmount8toStringERN4llvm11raw_ostreamE
libclangAST.so.8:_ZNK5clang21analyze_format_string15FormatSpecifier22hasValidLengthModifierERKNS_10TargetInfoE
libclangAST.so.8:_ZNK5clang21analyze_format_string15FormatSpecifier25hasStandardLengthModifierEv
libclangAST.so.8:_ZNK5clang21analyze_format_string15FormatSpecifier26getCorrectedLengthModifierEv
libclangAST.so.8:_ZNK5clang21analyze_format_string15FormatSpecifier30hasStandardConversionSpecifierERKNS_11LangOptionsE
libclangAST.so.8:_ZNK5clang21analyze_format_string15FormatSpecifier38hasStandardLengthConversionCombinationEv
libclangAST.so.8:_ZNK5clang21analyze_format_string19ConversionSpecifier20getStandardSpecifierEv
libclangAST.so.8:_ZNK5clang21analyze_format_string19ConversionSpecifier8toStringEv
libclangAST.so.8:_ZNK5clang21analyze_format_string7ArgType11matchesTypeERNS_10ASTContextENS_8QualTypeE
libclangAST.so.8:_ZNK5clang21analyze_format_string7ArgType14makeVectorTypeERNS_10ASTContextEj
libclangAST.so.8:_ZNK5clang21analyze_format_string7ArgType21getRepresentativeTypeERNS_10ASTContextE
libclangAST.so.8:_ZNK5clang21analyze_format_string7ArgType25getRepresentativeTypeNameB5cxx11ERNS_10ASTContextE
libclangAST.so.8:_ZNK5clang22ASTImporterLookupTable4dumpEPNS_11DeclContextE
libclangAST.so.8:_ZNK5clang22ASTImporterLookupTable4dumpEv
libclangAST.so.8:_ZNK5clang22ASTImporterLookupTable6lookupEPNS_11DeclContextENS_15DeclarationNameE
libclangAST.so.8:_ZNK5clang22CXXScalarValueInitExpr11getBeginLocEv
libclangAST.so.8:_ZNK5clang22CXXTemporaryObjectExpr11getBeginLocEv
libclangAST.so.8:_ZNK5clang22CXXTemporaryObjectExpr9getEndLocEv
libclangAST.so.8:_ZNK5clang22ComparisonCategoryInfo15lookupValueInfoENS_24ComparisonCategoryResultE
libclangAST.so.8:_ZNK5clang22ComparisonCategoryInfo7getTypeEv
libclangAST.so.8:_ZNK5clang22ComparisonCategoryInfo9ValueInfo11getIntValueEv
libclangAST.so.8:_ZNK5clang22ComparisonCategoryInfo9ValueInfo16hasValidIntValueEv
libclangAST.so.8:_ZNK5clang22ConsumableAutoCastAttr11getSpellingEv
libclangAST.so.8:_ZNK5clang22ConsumableAutoCastAttr11printPrettyERN4llvm11raw_ostreamERKNS_14PrintingPolicyE
libclangAST.so.8:_ZNK5clang22ConsumableAutoCastAttr5cloneERNS_10ASTContextE
libclangAST.so.8:_ZNK5clang22IBOutletCollectionAttr11getSpellingEv
libclangAST.so.8:_ZNK5clang22IBOutletCollectionAttr11printPrettyERN4llvm11raw_ostreamERKNS_14PrintingPolicyE
libclangAST.so.8:_ZNK5clang22IBOutletCollectionAttr5cloneERNS_10ASTContextE
libclangAST.so.8:_ZNK5clang22NestedNameSpecifierLoc10getTypeLocEv
libclangAST.so.8:_ZNK5clang22NestedNameSpecifierLoc14getSourceRangeEv
libclangAST.so.8:_ZNK5clang22NestedNameSpecifierLoc19getLocalSourceRangeEv
libclangAST.so.8:_ZNK5clang22OMPDeclareSimdDeclAttr11getSpellingEv
libclangAST.so.8:_ZNK5clang22OMPDeclareSimdDeclAttr11printPrettyERN4llvm11raw_ostreamERKNS_14PrintingPolicyE
libclangAST.so.8:_ZNK5clang22OMPDeclareSimdDeclAttr5cloneERNS_10ASTContextE
libclangAST.so.8:_ZNK5clang22ObjCImplementationDecl10init_beginEv
libclangAST.so.8:_ZNK5clang22ObjCImplementationDecl26getObjCRuntimeNameAsStringEv
libclangAST.so.8:_ZNK5clang22ObjCRuntimeVisibleAttr11getSpellingEv
libclangAST.so.8:_ZNK5clang22ObjCRuntimeVisibleAttr11printPrettyERN4llvm11raw_ostreamERKNS_14PrintingPolicyE
libclangAST.so.8:_ZNK5clang22ObjCRuntimeVisibleAttr5cloneERNS_10ASTContextE
libclangAST.so.8:_ZNK5clang22RenderScriptKernelAttr11getSpellingEv
libclangAST.so.8:_ZNK5clang22RenderScriptKernelAttr11printPrettyERN4llvm11raw_ostreamERKNS_14PrintingPolicyE
libclangAST.so.8:_ZNK5clang22RenderScriptKernelAttr5cloneERNS_10ASTContextE
libclangAST.so.8:_ZNK5clang22RequiresCapabilityAttr11getSpellingEv
libclangAST.so.8:_ZNK5clang22RequiresCapabilityAttr11printPrettyERN4llvm11raw_ostreamERKNS_14PrintingPolicyE
libclangAST.so.8:_ZNK5clang22RequiresCapabilityAttr5cloneERNS_10ASTContextE
libclangAST.so.8:_ZNK5clang22TypeTagForDatatypeAttr11getSpellingEv
libclangAST.so.8:_ZNK5clang22TypeTagForDatatypeAttr11printPrettyERN4llvm11raw_ostreamERKNS_14PrintingPolicyE
libclangAST.so.8:_ZNK5clang22TypeTagForDatatypeAttr5cloneERNS_10ASTContextE
libclangAST.so.8:_ZNK5clang23ArgumentWithTypeTagAttr11getSpellingEv
libclangAST.so.8:_ZNK5clang23ArgumentWithTypeTagAttr11printPrettyERN4llvm11raw_ostreamERKNS_14PrintingPolicyE
libclangAST.so.8:_ZNK5clang23ArgumentWithTypeTagAttr5cloneERNS_10ASTContextE
libclangAST.so.8:_ZNK5clang23AssertExclusiveLockAttr11getSpellingEv
libclangAST.so.8:_ZNK5clang23AssertExclusiveLockAttr11printPrettyERN4llvm11raw_ostreamERKNS_14PrintingPolicyE
libclangAST.so.8:_ZNK5clang23AssertExclusiveLockAttr5cloneERNS_10ASTContextE
libclangAST.so.8:_ZNK5clang23CXXPseudoDestructorExpr16getDestroyedTypeEv
libclangAST.so.8:_ZNK5clang23CXXPseudoDestructorExpr9getEndLocEv
libclangAST.so.8:_ZNK5clang23ConsumableSetOnReadAttr11getSpellingEv
libclangAST.so.8:_ZNK5clang23ConsumableSetOnReadAttr11printPrettyERN4llvm11raw_ostreamERKNS_14PrintingPolicyE
libclangAST.so.8:_ZNK5clang23ConsumableSetOnReadAttr5cloneERNS_10ASTContextE
libclangAST.so.8:_ZNK5clang23LTOVisibilityPublicAttr11getSpellingEv
libclangAST.so.8:_ZNK5clang23LTOVisibilityPublicAttr11printPrettyERN4llvm11raw_ostreamERKNS_14PrintingPolicyE
libclangAST.so.8:_ZNK5clang23LTOVisibilityPublicAttr5cloneERNS_10ASTContextE
libclangAST.so.8:_ZNK5clang23NonTypeTemplateParmDecl14getSourceRangeEv
libclangAST.so.8:_ZNK5clang23NonTypeTemplateParmDecl21getDefaultArgumentLocEv
libclangAST.so.8:_ZNK5clang23OMPDeclareReductionDecl18getPrevDeclInScopeEv
libclangAST.so.8:_ZNK5clang23ObjCPreciseLifetimeAttr11getSpellingEv
libclangAST.so.8:_ZNK5clang23ObjCPreciseLifetimeAttr11printPrettyERN4llvm11raw_ostreamERKNS_14PrintingPolicyE
libclangAST.so.8:_ZNK5clang23ObjCPreciseLifetimeAttr5cloneERNS_10ASTContextE
libclangAST.so.8:_ZNK5clang23RequireConstantInitAttr11getSpellingEv
libclangAST.so.8:_ZNK5clang23RequireConstantInitAttr11printPrettyERN4llvm11raw_ostreamERKNS_14PrintingPolicyE
libclangAST.so.8:_ZNK5clang23RequireConstantInitAttr5cloneERNS_10ASTContextE
libclangAST.so.8:_ZNK5clang23SwiftIndirectResultAttr11getSpellingEv
libclangAST.so.8:_ZNK5clang23SwiftIndirectResultAttr11printPrettyERN4llvm11raw_ostreamERKNS_14PrintingPolicyE
libclangAST.so.8:_ZNK5clang23SwiftIndirectResultAttr5cloneERNS_10ASTContextE
libclangAST.so.8:_ZNK5clang23TypeNullUnspecifiedAttr11getSpellingEv
libclangAST.so.8:_ZNK5clang23TypeNullUnspecifiedAttr11printPrettyERN4llvm11raw_ostreamERKNS_14PrintingPolicyE
libclangAST.so.8:_ZNK5clang23TypeNullUnspecifiedAttr5cloneERNS_10ASTContextE
libclangAST.so.8:_ZNK5clang24ASTTemplateKWAndArgsInfo8copyIntoEPKNS_19TemplateArgumentLocERNS_24TemplateArgumentListInfoE
libclangAST.so.8:_ZNK5clang24CFReturnsNotRetainedAttr11getSpellingEv
libclangAST.so.8:_ZNK5clang24CFReturnsNotRetainedAttr11printPrettyERN4llvm11raw_ostreamERKNS_14PrintingPolicyE
libclangAST.so.8:_ZNK5clang24CFReturnsNotRetainedAttr5cloneERNS_10ASTContextE
libclangAST.so.8:_ZNK5clang24DLLExportStaticLocalAttr11getSpellingEv
libclangAST.so.8:_ZNK5clang24DLLExportStaticLocalAttr11printPrettyERN4llvm11raw_ostreamERKNS_14PrintingPolicyE
libclangAST.so.8:_ZNK5clang24DLLExportStaticLocalAttr5cloneERNS_10ASTContextE
libclangAST.so.8:_ZNK5clang24DLLImportStaticLocalAttr11getSpellingEv
libclangAST.so.8:_ZNK5clang24DLLImportStaticLocalAttr11printPrettyERN4llvm11raw_ostreamERKNS_14PrintingPolicyE
libclangAST.so.8:_ZNK5clang24DLLImportStaticLocalAttr5cloneERNS_10ASTContextE
libclangAST.so.8:_ZNK5clang24DesignatedInitUpdateExpr11getBeginLocEv
libclangAST.so.8:_ZNK5clang24DesignatedInitUpdateExpr9getEndLocEv
libclangAST.so.8:_ZNK5clang24ExternalSourceSymbolAttr11getSpellingEv
libclangAST.so.8:_ZNK5clang24ExternalSourceSymbolAttr11printPrettyERN4llvm11raw_ostreamERKNS_14PrintingPolicyE
libclangAST.so.8:_ZNK5clang24ExternalSourceSymbolAttr5cloneERNS_10ASTContextE
libclangAST.so.8:_ZNK5clang24NSReturnsNotRetainedAttr11getSpellingEv
libclangAST.so.8:_ZNK5clang24NSReturnsNotRetainedAttr11printPrettyERN4llvm11raw_ostreamERKNS_14PrintingPolicyE
libclangAST.so.8:_ZNK5clang24NSReturnsNotRetainedAttr5cloneERNS_10ASTContextE
libclangAST.so.8:_ZNK5clang24NoInstrumentFunctionAttr11getSpellingEv
libclangAST.so.8:_ZNK5clang24NoInstrumentFunctionAttr11printPrettyERN4llvm11raw_ostreamERKNS_14PrintingPolicyE
libclangAST.so.8:_ZNK5clang24NoInstrumentFunctionAttr5cloneERNS_10ASTContextE
libclangAST.so.8:_ZNK5clang24OMPDeclareTargetDeclAttr11getSpellingEv
libclangAST.so.8:_ZNK5clang24OMPDeclareTargetDeclAttr11printPrettyERN4llvm11raw_ostreamERKNS_14PrintingPolicyE
libclangAST.so.8:_ZNK5clang24OMPDeclareTargetDeclAttr5cloneERNS_10ASTContextE
libclangAST.so.8:_ZNK5clang24OMPThreadPrivateDeclAttr11getSpellingEv
libclangAST.so.8:_ZNK5clang24OMPThreadPrivateDeclAttr11printPrettyERN4llvm11raw_ostreamERKNS_14PrintingPolicyE
libclangAST.so.8:_ZNK5clang24OMPThreadPrivateDeclAttr5cloneERNS_10ASTContextE
libclangAST.so.8:_ZNK5clang24OSReturnsNotRetainedAttr11getSpellingEv
libclangAST.so.8:_ZNK5clang24OSReturnsNotRetainedAttr11printPrettyERN4llvm11raw_ostreamERKNS_14PrintingPolicyE
libclangAST.so.8:_ZNK5clang24OSReturnsNotRetainedAttr5cloneERNS_10ASTContextE
libclangAST.so.8:_ZNK5clang24ObjCIndependentClassAttr11getSpellingEv
libclangAST.so.8:_ZNK5clang24ObjCIndependentClassAttr11printPrettyERN4llvm11raw_ostreamERKNS_14PrintingPolicyE
libclangAST.so.8:_ZNK5clang24ObjCIndependentClassAttr5cloneERNS_10ASTContextE
libclangAST.so.8:_ZNK5clang24RedeclarableTemplateDecl12getCommonPtrEv
libclangAST.so.8:_ZNK5clang24RedeclarableTemplateDecl27loadLazySpecializationsImplEv
libclangAST.so.8:_ZNK5clang24TemplateTemplateParmDecl21getDefaultArgumentLocEv
libclangAST.so.8:_ZNK5clang24TryAcquireCapabilityAttr11getSpellingEv
libclangAST.so.8:_ZNK5clang24TryAcquireCapabilityAttr11printPrettyERN4llvm11raw_ostreamERKNS_14PrintingPolicyE
libclangAST.so.8:_ZNK5clang24TryAcquireCapabilityAttr5cloneERNS_10ASTContextE
libclangAST.so.8:_ZNK5clang24UnaryExprOrTypeTraitExpr8childrenEv
libclangAST.so.8:_ZNK5clang24UnresolvedUsingValueDecl14getSourceRangeEv
libclangAST.so.8:_ZNK5clang25ArcWeakrefUnavailableAttr11getSpellingEv
libclangAST.so.8:_ZNK5clang25ArcWeakrefUnavailableAttr11printPrettyERN4llvm11raw_ostreamERKNS_14PrintingPolicyE
libclangAST.so.8:_ZNK5clang25ArcWeakrefUnavailableAttr5cloneERNS_10ASTContextE
libclangAST.so.8:_ZNK5clang25NSReturnsAutoreleasedAttr11getSpellingEv
libclangAST.so.8:_ZNK5clang25NSReturnsAutoreleasedAttr11printPrettyERN4llvm11raw_ostreamERKNS_14PrintingPolicyE
libclangAST.so.8:_ZNK5clang25NSReturnsAutoreleasedAttr5cloneERNS_10ASTContextE
libclangAST.so.8:_ZNK5clang25PragmaClangBSSSectionAttr11getSpellingEv
libclangAST.so.8:_ZNK5clang25PragmaClangBSSSectionAttr11printPrettyERN4llvm11raw_ostreamERKNS_14PrintingPolicyE
libclangAST.so.8:_ZNK5clang25PragmaClangBSSSectionAttr5cloneERNS_10ASTContextE
libclangAST.so.8:_ZNK5clang25PrettyDeclStackTraceEntry5printERN4llvm11raw_ostreamE
libclangAST.so.8:_ZNK5clang25SharedTrylockFunctionAttr11getSpellingEv
libclangAST.so.8:_ZNK5clang25SharedTrylockFunctionAttr11printPrettyERN4llvm11raw_ostreamERKNS_14PrintingPolicyE
libclangAST.so.8:_ZNK5clang25SharedTrylockFunctionAttr5cloneERNS_10ASTContextE
libclangAST.so.8:_ZNK5clang25WebAssemblyImportNameAttr11getSpellingEv
libclangAST.so.8:_ZNK5clang25WebAssemblyImportNameAttr11printPrettyERN4llvm11raw_ostreamERKNS_14PrintingPolicyE
libclangAST.so.8:_ZNK5clang25WebAssemblyImportNameAttr5cloneERNS_10ASTContextE
libclangAST.so.8:_ZNK5clang26CXXUnresolvedConstructExpr11getBeginLocEv
libclangAST.so.8:_ZNK5clang26ConstructorUsingShadowDecl21getNominatedBaseClassEv
libclangAST.so.8:_ZNK5clang26NoThreadSafetyAnalysisAttr11getSpellingEv
libclangAST.so.8:_ZNK5clang26NoThreadSafetyAnalysisAttr11printPrettyERN4llvm11raw_ostreamERKNS_14PrintingPolicyE
libclangAST.so.8:_ZNK5clang26NoThreadSafetyAnalysisAttr5cloneERNS_10ASTContextE
libclangAST.so.8:_ZNK5clang26ObjCExternallyRetainedAttr11getSpellingEv
libclangAST.so.8:_ZNK5clang26ObjCExternallyRetainedAttr11printPrettyERN4llvm11raw_ostreamERKNS_14PrintingPolicyE
libclangAST.so.8:_ZNK5clang26ObjCExternallyRetainedAttr5cloneERNS_10ASTContextE
libclangAST.so.8:_ZNK5clang26PragmaClangDataSectionAttr11getSpellingEv
libclangAST.so.8:_ZNK5clang26PragmaClangDataSectionAttr11printPrettyERN4llvm11raw_ostreamERKNS_14PrintingPolicyE
libclangAST.so.8:_ZNK5clang26PragmaClangDataSectionAttr5cloneERNS_10ASTContextE
libclangAST.so.8:_ZNK5clang26PragmaClangTextSectionAttr11getSpellingEv
libclangAST.so.8:_ZNK5clang26PragmaClangTextSectionAttr11printPrettyERN4llvm11raw_ostreamERKNS_14PrintingPolicyE
libclangAST.so.8:_ZNK5clang26PragmaClangTextSectionAttr5cloneERNS_10ASTContextE
libclangAST.so.8:_ZNK5clang27AMDGPUFlatWorkGroupSizeAttr11getSpellingEv
libclangAST.so.8:_ZNK5clang27AMDGPUFlatWorkGroupSizeAttr11printPrettyERN4llvm11raw_ostreamERKNS_14PrintingPolicyE
libclangAST.so.8:_ZNK5clang27AMDGPUFlatWorkGroupSizeAttr5cloneERNS_10ASTContextE
libclangAST.so.8:_ZNK5clang27OSReturnsRetainedOnZeroAttr11getSpellingEv
libclangAST.so.8:_ZNK5clang27OSReturnsRetainedOnZeroAttr11printPrettyERN4llvm11raw_ostreamERKNS_14PrintingPolicyE
libclangAST.so.8:_ZNK5clang27OSReturnsRetainedOnZeroAttr5cloneERNS_10ASTContextE
libclangAST.so.8:_ZNK5clang27ObjCReturnsInnerPointerAttr11getSpellingEv
libclangAST.so.8:_ZNK5clang27ObjCReturnsInnerPointerAttr11printPrettyERN4llvm11raw_ostreamERKNS_14PrintingPolicyE
libclangAST.so.8:_ZNK5clang27ObjCReturnsInnerPointerAttr5cloneERNS_10ASTContextE
libclangAST.so.8:_ZNK5clang27OpenCLLocalAddressSpaceAttr11getSpellingEv
libclangAST.so.8:_ZNK5clang27OpenCLLocalAddressSpaceAttr11printPrettyERN4llvm11raw_ostreamERKNS_14PrintingPolicyE
libclangAST.so.8:_ZNK5clang27OpenCLLocalAddressSpaceAttr5cloneERNS_10ASTContextE
libclangAST.so.8:_ZNK5clang27WebAssemblyImportModuleAttr11getSpellingEv
libclangAST.so.8:_ZNK5clang27WebAssemblyImportModuleAttr11printPrettyERN4llvm11raw_ostreamERKNS_14PrintingPolicyE
libclangAST.so.8:_ZNK5clang27WebAssemblyImportModuleAttr5cloneERNS_10ASTContextE
libclangAST.so.8:_ZNK5clang27X86ForceAlignArgPointerAttr11getSpellingEv
libclangAST.so.8:_ZNK5clang27X86ForceAlignArgPointerAttr11printPrettyERN4llvm11raw_ostreamERKNS_14PrintingPolicyE
libclangAST.so.8:_ZNK5clang27X86ForceAlignArgPointerAttr5cloneERNS_10ASTContextE
libclangAST.so.8:_ZNK5clang28ExclusiveTrylockFunctionAttr11getSpellingEv
libclangAST.so.8:_ZNK5clang28ExclusiveTrylockFunctionAttr11printPrettyERN4llvm11raw_ostreamERKNS_14PrintingPolicyE
libclangAST.so.8:_ZNK5clang28ExclusiveTrylockFunctionAttr5cloneERNS_10ASTContextE
libclangAST.so.8:_ZNK5clang28ObjCExplicitProtocolImplAttr11getSpellingEv
libclangAST.so.8:_ZNK5clang28ObjCExplicitProtocolImplAttr11printPrettyERN4llvm11raw_ostreamERKNS_14PrintingPolicyE
libclangAST.so.8:_ZNK5clang28ObjCExplicitProtocolImplAttr5cloneERNS_10ASTContextE
libclangAST.so.8:_ZNK5clang28ObjCRequiresPropertyDefsAttr11getSpellingEv
libclangAST.so.8:_ZNK5clang28ObjCRequiresPropertyDefsAttr11printPrettyERN4llvm11raw_ostreamERKNS_14PrintingPolicyE
libclangAST.so.8:_ZNK5clang28ObjCRequiresPropertyDefsAttr5cloneERNS_10ASTContextE
libclangAST.so.8:_ZNK5clang28OpenCLGlobalAddressSpaceAttr11getSpellingEv
libclangAST.so.8:_ZNK5clang28OpenCLGlobalAddressSpaceAttr11printPrettyERN4llvm11raw_ostreamERKNS_14PrintingPolicyE
libclangAST.so.8:_ZNK5clang28OpenCLGlobalAddressSpaceAttr5cloneERNS_10ASTContextE
libclangAST.so.8:_ZNK5clang28PragmaClangRodataSectionAttr11getSpellingEv
libclangAST.so.8:_ZNK5clang28PragmaClangRodataSectionAttr11printPrettyERN4llvm11raw_ostreamERKNS_14PrintingPolicyE
libclangAST.so.8:_ZNK5clang28PragmaClangRodataSectionAttr5cloneERNS_10ASTContextE
libclangAST.so.8:_ZNK5clang28SpeculativeLoadHardeningAttr11getSpellingEv
libclangAST.so.8:_ZNK5clang28SpeculativeLoadHardeningAttr11printPrettyERN4llvm11raw_ostreamERKNS_14PrintingPolicyE
libclangAST.so.8:_ZNK5clang28SpeculativeLoadHardeningAttr5cloneERNS_10ASTContextE
libclangAST.so.8:_ZNK5clang29NestedNameSpecifierLocBuilder19getWithLocInContextERNS_10ASTContextE
libclangAST.so.8:_ZNK5clang29ObjCDesignatedInitializerAttr11getSpellingEv
libclangAST.so.8:_ZNK5clang29ObjCDesignatedInitializerAttr11printPrettyERN4llvm11raw_ostreamERKNS_14PrintingPolicyE
libclangAST.so.8:_ZNK5clang29ObjCDesignatedInitializerAttr5cloneERNS_10ASTContextE
libclangAST.so.8:_ZNK5clang29ObjCInertUnsafeUnretainedAttr11getSpellingEv
libclangAST.so.8:_ZNK5clang29ObjCInertUnsafeUnretainedAttr11printPrettyERN4llvm11raw_ostreamERKNS_14PrintingPolicyE
libclangAST.so.8:_ZNK5clang29ObjCInertUnsafeUnretainedAttr5cloneERNS_10ASTContextE
libclangAST.so.8:_ZNK5clang29ObjCSubclassingRestrictedAttr11getSpellingEv
libclangAST.so.8:_ZNK5clang29ObjCSubclassingRestrictedAttr11printPrettyERN4llvm11raw_ostreamERKNS_14PrintingPolicyE
libclangAST.so.8:_ZNK5clang29ObjCSubclassingRestrictedAttr5cloneERNS_10ASTContextE
libclangAST.so.8:_ZNK5clang29OpenCLGenericAddressSpaceAttr11getSpellingEv
libclangAST.so.8:_ZNK5clang29OpenCLGenericAddressSpaceAttr11printPrettyERN4llvm11raw_ostreamERKNS_14PrintingPolicyE
libclangAST.so.8:_ZNK5clang29OpenCLGenericAddressSpaceAttr5cloneERNS_10ASTContextE
libclangAST.so.8:_ZNK5clang29OpenCLPrivateAddressSpaceAttr11getSpellingEv
libclangAST.so.8:_ZNK5clang29OpenCLPrivateAddressSpaceAttr11printPrettyERN4llvm11raw_ostreamERKNS_14PrintingPolicyE
libclangAST.so.8:_ZNK5clang29OpenCLPrivateAddressSpaceAttr5cloneERNS_10ASTContextE
libclangAST.so.8:_ZNK5clang29SubstTemplateTypeParmPackType15getArgumentPackEv
libclangAST.so.8:_ZNK5clang29VarTemplateSpecializationDecl20getNameForDiagnosticERN4llvm11raw_ostreamERKNS_14PrintingPolicyEb
libclangAST.so.8:_ZNK5clang29VarTemplateSpecializationDecl22getSpecializedTemplateEv
libclangAST.so.8:_ZNK5clang30OSReturnsRetainedOnNonZeroAttr11getSpellingEv
libclangAST.so.8:_ZNK5clang30OSReturnsRetainedOnNonZeroAttr11printPrettyERN4llvm11raw_ostreamERKNS_14PrintingPolicyE
libclangAST.so.8:_ZNK5clang30OSReturnsRetainedOnNonZeroAttr5cloneERNS_10ASTContextE
libclangAST.so.8:_ZNK5clang30OpenCLConstantAddressSpaceAttr11getSpellingEv
libclangAST.so.8:_ZNK5clang30OpenCLConstantAddressSpaceAttr11printPrettyERN4llvm11raw_ostreamERKNS_14PrintingPolicyE
libclangAST.so.8:_ZNK5clang30OpenCLConstantAddressSpaceAttr5cloneERNS_10ASTContextE
libclangAST.so.8:_ZNK5clang31ClassTemplateSpecializationDecl14getSourceRangeEv
libclangAST.so.8:_ZNK5clang31ClassTemplateSpecializationDecl20getNameForDiagnosticERN4llvm11raw_ostreamERKNS_14PrintingPolicyEb
libclangAST.so.8:_ZNK5clang31ClassTemplateSpecializationDecl22getSpecializedTemplateEv
libclangAST.so.8:_ZNK5clang31OpenCLIntelReqdSubGroupSizeAttr11getSpellingEv
libclangAST.so.8:_ZNK5clang31OpenCLIntelReqdSubGroupSizeAttr11printPrettyERN4llvm11raw_ostreamERKNS_14PrintingPolicyE
libclangAST.so.8:_ZNK5clang31OpenCLIntelReqdSubGroupSizeAttr5cloneERNS_10ASTContextE
libclangAST.so.8:_ZNK5clang32AnyX86NoCallerSavedRegistersAttr11getSpellingEv
libclangAST.so.8:_ZNK5clang32AnyX86NoCallerSavedRegistersAttr11printPrettyERN4llvm11raw_ostreamERKNS_14PrintingPolicyE
libclangAST.so.8:_ZNK5clang32AnyX86NoCallerSavedRegistersAttr5cloneERNS_10ASTContextE
libclangAST.so.8:_ZNK5clang32SubstNonTypeTemplateParmPackExpr15getArgumentPackEv
libclangAST.so.8:_ZNK5clang36ExcludeFromExplicitInstantiationAttr11getSpellingEv
libclangAST.so.8:_ZNK5clang36ExcludeFromExplicitInstantiationAttr11printPrettyERN4llvm11raw_ostreamERKNS_14PrintingPolicyE
libclangAST.so.8:_ZNK5clang36ExcludeFromExplicitInstantiationAttr5cloneERNS_10ASTContextE
libclangAST.so.8:_ZNK5clang36SubstTemplateTemplateParmPackStorage15getArgumentPackEv
libclangAST.so.8:_ZNK5clang4Attr11getSpellingEv
libclangAST.so.8:_ZNK5clang4Attr11printPrettyERN4llvm11raw_ostreamERKNS_14PrintingPolicyE
libclangAST.so.8:_ZNK5clang4Attr5cloneERNS_10ASTContextE
libclangAST.so.8:_ZNK5clang4Decl10isExportedEv
libclangAST.so.8:_ZNK5clang4Decl11isOutOfLineEv
libclangAST.so.8:_ZNK5clang4Decl11isTemplatedEv
libclangAST.so.8:_ZNK5clang4Decl12isReferencedEv
libclangAST.so.8:_ZNK5clang4Decl13getASTContextEv
libclangAST.so.8:_ZNK5clang4Decl13getBodyRBraceEv
libclangAST.so.8:_ZNK5clang4Decl14isTemplateDeclEv
libclangAST.so.8:_ZNK5clang4Decl14isWeakImportedEv
libclangAST.so.8:_ZNK5clang4Decl15getAvailabilityEPNSt7__cxx1112basic_stringIcSt11char_traitsIcESaIcEEEN4llvm12VersionTupleEPNS8_9StringRefE
libclangAST.so.8:_ZNK5clang4Decl15getDeclKindNameEv
libclangAST.so.8:_ZNK5clang4Decl15getDefiningAttrEv
libclangAST.so.8:_ZNK5clang4Decl15getFunctionTypeEb
libclangAST.so.8:_ZNK5clang4Decl15getMaxAlignmentEv
libclangAST.so.8:_ZNK5clang4Decl15hasDefiningAttrEv
libclangAST.so.8:_ZNK5clang4Decl15isParameterPackEv
libclangAST.so.8:_ZNK5clang4Decl15updateOutOfDateERNS_14IdentifierInfoE
libclangAST.so.8:_ZNK5clang4Decl16isInStdNamespaceEv
libclangAST.so.8:_ZNK5clang4Decl17canBeWeakImportedERb
libclangAST.so.8:_ZNK5clang4Decl19getOwningModuleSlowEv
libclangAST.so.8:_ZNK5clang4Decl20getDescribedTemplateEv
libclangAST.so.8:_ZNK5clang4Decl20getVersionIntroducedEv
libclangAST.so.8:_ZNK5clang4Decl22getASTMutationListenerEv
libclangAST.so.8:_ZNK5clang4Decl22isInAnonymousNamespaceEv
libclangAST.so.8:_ZNK5clang4Decl23AccessDeclContextSanityEv
libclangAST.so.8:_ZNK5clang4Decl23isTemplateParameterPackEv
libclangAST.so.8:_ZNK5clang4Decl25getOwningModuleForLinkageEb
libclangAST.so.8:_ZNK5clang4Decl25getParentFunctionOrMethodEv
libclangAST.so.8:_ZNK5clang4Decl27getExternalSourceSymbolAttrEv
libclangAST.so.8:_ZNK5clang4Decl27hasLocalOwningModuleStorageEv
libclangAST.so.8:_ZNK5clang4Decl33isLexicallyWithinFunctionOrMethodEv
libclangAST.so.8:_ZNK5clang4Decl4dumpERN4llvm11raw_ostreamEb
libclangAST.so.8:_ZNK5clang4Decl4dumpEv
libclangAST.so.8:_ZNK5clang4Decl5getIDEv
libclangAST.so.8:_ZNK5clang4Decl5printERN4llvm11raw_ostreamERKNS_14PrintingPolicyEjb
libclangAST.so.8:_ZNK5clang4Decl5printERN4llvm11raw_ostreamEjb
libclangAST.so.8:_ZNK5clang4Decl6isUsedEb
libclangAST.so.8:_ZNK5clang4Decl8getAttrsEv
libclangAST.so.8:_ZNK5clang4Decl9dumpColorEv
libclangAST.so.8:_ZNK5clang4Expr10EvalResult14isGlobalLValueEv
libclangAST.so.8:_ZNK5clang4Expr10getExprLocEv
libclangAST.so.8:_ZNK5clang4Expr12ClassifyImplERNS_10ASTContextEPNS_14SourceLocationE
libclangAST.so.8:_ZNK5clang4Expr13EvaluateAsIntERNS0_10EvalResultERKNS_10ASTContextENS0_15SideEffectsKindE
libclangAST.so.8:_ZNK5clang4Expr13isEvaluatableERKNS_10ASTContextENS0_15SideEffectsKindE
libclangAST.so.8:_ZNK5clang4Expr14ClassifyLValueERNS_10ASTContextE
libclangAST.so.8:_ZNK5clang4Expr14HasSideEffectsERKNS_10ASTContextEb
libclangAST.so.8:_ZNK5clang4Expr14isObjCSelfExprEv
libclangAST.so.8:_ZNK5clang4Expr15EvaluateAsFloatERN4llvm7APFloatERKNS_10ASTContextENS0_15SideEffectsKindE
libclangAST.so.8:_ZNK5clang4Expr15getObjCPropertyEv
libclangAST.so.8:_ZNK5clang4Expr16EvaluateAsLValueERNS0_10EvalResultERKNS_10ASTContextE
libclangAST.so.8:_ZNK5clang4Expr16EvaluateAsRValueERNS0_10EvalResultERKNS_10ASTContextEb
libclangAST.so.8:_ZNK5clang4Expr17hasNonTrivialCallERKNS_10ASTContextE
libclangAST.so.8:_ZNK5clang4Expr17isDefaultArgumentEv
libclangAST.so.8:_ZNK5clang4Expr17isImplicitCXXThisEv
libclangAST.so.8:_ZNK5clang4Expr17isOBJCGCCandidateERNS_10ASTContextE
libclangAST.so.8:_ZNK5clang4Expr17isTemporaryObjectERNS_10ASTContextEPKNS_13CXXRecordDeclE
libclangAST.so.8:_ZNK5clang4Expr18isModifiableLvalueERNS_10ASTContextEPNS_14SourceLocationE
libclangAST.so.8:_ZNK5clang4Expr19EvaluateForOverflowERKNS_10ASTContextE
libclangAST.so.8:_ZNK5clang4Expr19isCXX11ConstantExprERKNS_10ASTContextEPNS_7APValueEPNS_14SourceLocationE
libclangAST.so.8:_ZNK5clang4Expr21EvaluateAsInitializerERNS_7APValueERKNS_10ASTContextEPKNS_7VarDeclERN4llvm15SmallVectorImplISt4pairINS_14SourceLocationENS_17PartialDiagnosticEEEE
libclangAST.so.8:_ZNK5clang4Expr21EvaluateKnownConstIntERKNS_10ASTContextEPN4llvm15SmallVectorImplISt4pairINS_14SourceLocationENS_17PartialDiagnosticEEEE
libclangAST.so.8:_ZNK5clang4Expr21isBoundMemberFunctionERNS_10ASTContextE
libclangAST.so.8:_ZNK5clang4Expr21isConstantInitializerERNS_10ASTContextEbPPKS0_
libclangAST.so.8:_ZNK5clang4Expr21isIntegerConstantExprERKNS_10ASTContextEPNS_14SourceLocationE
libclangAST.so.8:_ZNK5clang4Expr21isIntegerConstantExprERN4llvm6APSIntERKNS_10ASTContextEPNS_14SourceLocationEb
libclangAST.so.8:_ZNK5clang4Expr21isNullPointerConstantERNS_10ASTContextENS0_34NullPointerConstantValueDependenceE
libclangAST.so.8:_ZNK5clang4Expr21refersToVectorElementEv
libclangAST.so.8:_ZNK5clang4Expr21tryEvaluateObjectSizeERmRNS_10ASTContextEj
libclangAST.so.8:_ZNK5clang4Expr22EvaluateAsConstantExprERNS0_10EvalResultENS0_14ConstExprUsageERKNS_10ASTContextE
libclangAST.so.8:_ZNK5clang4Expr22isUnusedResultAWarningERPKS0_RNS_14SourceLocationERNS_11SourceRangeES7_RNS_10ASTContextE
libclangAST.so.8:_ZNK5clang4Expr23getBestDynamicClassTypeEv
libclangAST.so.8:_ZNK5clang4Expr24EvaluateWithSubstitutionERNS_7APValueERNS_10ASTContextEPKNS_12FunctionDeclEN4llvm8ArrayRefIPKS0_EESB_
libclangAST.so.8:_ZNK5clang4Expr25isKnownToHaveBooleanValueEv
libclangAST.so.8:_ZNK5clang4Expr25refersToGlobalRegisterVarEv
libclangAST.so.8:_ZNK5clang4Expr26EvaluateAsBooleanConditionERbRKNS_10ASTContextE
libclangAST.so.8:_ZNK5clang4Expr27getBestDynamicClassTypeExprEv
libclangAST.so.8:_ZNK5clang4Expr27isCXX98IntegralConstantExprERKNS_10ASTContextE
libclangAST.so.8:_ZNK5clang4Expr30skipRValueSubobjectAdjustmentsERN4llvm15SmallVectorImplIPKS0_EERNS2_INS_19SubobjectAdjustmentEEE
libclangAST.so.8:_ZNK5clang4Expr34EvaluateKnownConstIntCheckOverflowERKNS_10ASTContextEPN4llvm15SmallVectorImplISt4pairINS_14SourceLocationENS_17PartialDiagnosticEEEE
libclangAST.so.8:_ZNK5clang4Stmt10dumpPrettyERKNS_10ASTContextE
libclangAST.so.8:_ZNK5clang4Stmt11getBeginLocEv
libclangAST.so.8:_ZNK5clang4Stmt11printPrettyERN4llvm11raw_ostreamEPNS_13PrinterHelperERKNS_14PrintingPolicyEjNS1_9StringRefEPKNS_10ASTContextE
libclangAST.so.8:_ZNK5clang4Stmt14ProcessODRHashERN4llvm16FoldingSetNodeIDERNS_7ODRHashE
libclangAST.so.8:_ZNK5clang4Stmt14getSourceRangeEv
libclangAST.so.8:_ZNK5clang4Stmt16getStmtClassNameEv
libclangAST.so.8:_ZNK5clang4Stmt24stripLabelLikeStatementsEv
libclangAST.so.8:_ZNK5clang4Stmt4dumpERN4llvm11raw_ostreamE
libclangAST.so.8:_ZNK5clang4Stmt4dumpERN4llvm11raw_ostreamERNS_13SourceManagerE
libclangAST.so.8:_ZNK5clang4Stmt4dumpERNS_13SourceManagerE
libclangAST.so.8:_ZNK5clang4Stmt4dumpEv
libclangAST.so.8:_ZNK5clang4Stmt5getIDERKNS_10ASTContextE
libclangAST.so.8:_ZNK5clang4Stmt7ProfileERN4llvm16FoldingSetNodeIDERKNS_10ASTContextEb
libclangAST.so.8:_ZNK5clang4Stmt7viewASTEv
libclangAST.so.8:_ZNK5clang4Stmt9dumpColorEv
libclangAST.so.8:_ZNK5clang4Stmt9getEndLocEv
libclangAST.so.8:_ZNK5clang4Type10getLinkageEv
libclangAST.so.8:_ZNK5clang4Type10isCharTypeEv
libclangAST.so.8:_ZNK5clang4Type10isRealTypeEv
libclangAST.so.8:_ZNK5clang4Type11isAlignValTEv
libclangAST.so.8:_ZNK5clang4Type11isChar8TypeEv
libclangAST.so.8:_ZNK5clang4Type11isClassTypeEv
libclangAST.so.8:_ZNK5clang4Type11isUnionTypeEv
libclangAST.so.8:_ZNK5clang4Type12getAsTagDeclEv
libclangAST.so.8:_ZNK5clang4Type12isChar16TypeEv
libclangAST.so.8:_ZNK5clang4Type12isChar32TypeEv
libclangAST.so.8:_ZNK5clang4Type13isComplexTypeEv
libclangAST.so.8:_ZNK5clang4Type13isLiteralTypeERKNS_10ASTContextE
libclangAST.so.8:_ZNK5clang4Type13isStdByteTypeEv
libclangAST.so.8:_ZNK5clang4Type14getAsUnionTypeEv
libclangAST.so.8:_ZNK5clang4Type14getNullabilityERKNS_10ASTContextE
libclangAST.so.8:_ZNK5clang4Type14getPointeeTypeEv
libclangAST.so.8:_ZNK5clang4Type14isFloatingTypeEv
libclangAST.so.8:_ZNK5clang4Type14isIntegralTypeERKNS_10ASTContextE
libclangAST.so.8:_ZNK5clang4Type14isLinkageValidEv
libclangAST.so.8:_ZNK5clang4Type14isWideCharTypeEv
libclangAST.so.8:_ZNK5clang4Type15getAsRecordDeclEv
libclangAST.so.8:_ZNK5clang4Type15hasSizedVLATypeEv
libclangAST.so.8:_ZNK5clang4Type15isAggregateTypeEv
libclangAST.so.8:_ZNK5clang4Type15isInterfaceTypeEv
libclangAST.so.8:_ZNK5clang4Type15isSpecifierTypeEv
libclangAST.so.8:_ZNK5clang4Type15isStructureTypeEv
libclangAST.so.8:_ZNK5clang4Type16getTypeClassNameEv
libclangAST.so.8:_ZNK5clang4Type16isArithmeticTypeEv
libclangAST.so.8:_ZNK5clang4Type16isIncompleteTypeEPPNS_9NamedDeclE
libclangAST.so.8:_ZNK5clang4Type17getScalarTypeKindEv
libclangAST.so.8:_ZNK5clang4Type17isVoidPointerTypeEv
libclangAST.so.8:_ZNK5clang4Type18canHaveNullabilityEb
libclangAST.so.8:_ZNK5clang4Type18getAsCXXRecordDeclEv
libclangAST.so.8:_ZNK5clang4Type18getAsStructureTypeEv
libclangAST.so.8:_ZNK5clang4Type18isAnyCharacterTypeEv
libclangAST.so.8:_ZNK5clang4Type18isConstantSizeTypeEv
libclangAST.so.8:_ZNK5clang4Type18isObjCLifetimeTypeEv
libclangAST.so.8:_ZNK5clang4Type18isObjCNSObjectTypeEv
libclangAST.so.8:_ZNK5clang4Type18isRealFloatingTypeEv
libclangAST.so.8:_ZNK5clang4Type19isCARCBridgableTypeEv
libclangAST.so.8:_ZNK5clang4Type19isSignedIntegerTypeEv
libclangAST.so.8:_ZNK5clang4Type20getObjCSubstitutionsEPKNS_11DeclContextE
libclangAST.so.8:_ZNK5clang4Type20isComplexIntegerTypeEv
libclangAST.so.8:_ZNK5clang4Type20isObjCRetainableTypeEv
libclangAST.so.8:_ZNK5clang4Type20isScopedEnumeralTypeEv
libclangAST.so.8:_ZNK5clang4Type20isStandardLayoutTypeEv
libclangAST.so.8:_ZNK5clang4Type21acceptsObjCTypeParamsEv
libclangAST.so.8:_ZNK5clang4Type21hasUnnamedOrLocalTypeEv
libclangAST.so.8:_ZNK5clang4Type21isUnsignedIntegerTypeEv
libclangAST.so.8:_ZNK5clang4Type22getAsObjCInterfaceTypeEv
libclangAST.so.8:_ZNK5clang4Type22isObjCARCBridgableTypeEv
libclangAST.so.8:_ZNK5clang4Type22isStructureOrClassTypeEv
libclangAST.so.8:_ZNK5clang4Type23getAsComplexIntegerTypeEv
libclangAST.so.8:_ZNK5clang4Type23getContainedDeducedTypeEv
libclangAST.so.8:_ZNK5clang4Type23getLinkageAndVisibilityEv
libclangAST.so.8:_ZNK5clang4Type23getPointeeCXXRecordDeclEv
libclangAST.so.8:_ZNK5clang4Type23isObjCBoxableRecordTypeEv
libclangAST.so.8:_ZNK5clang4Type23isPromotableIntegerTypeEv
libclangAST.so.8:_ZNK5clang4Type24getAsObjCQualifiedIdTypeEv
libclangAST.so.8:_ZNK5clang4Type24hasIntegerRepresentationEv
libclangAST.so.8:_ZNK5clang4Type25hasFloatingRepresentationEv
libclangAST.so.8:_ZNK5clang4Type25isElaboratedTypeSpecifierEv
libclangAST.so.8:_ZNK5clang4Type26getObjCARCImplicitLifetimeEv
libclangAST.so.8:_ZNK5clang4Type26isObjCIdOrObjectKindOfTypeERKNS_10ASTContextERPKNS_14ObjCObjectTypeE
libclangAST.so.8:_ZNK5clang4Type26isObjCIndependentClassTypeEv
libclangAST.so.8:_ZNK5clang4Type26isObjCIndirectLifetimeTypeEv
libclangAST.so.8:_ZNK5clang4Type27getAsObjCQualifiedClassTypeEv
libclangAST.so.8:_ZNK5clang4Type27getUnqualifiedDesugaredTypeEv
libclangAST.so.8:_ZNK5clang4Type28hasAutoForTrailingReturnTypeEv
libclangAST.so.8:_ZNK5clang4Type28isObjCClassOrClassKindOfTypeEv
libclangAST.so.8:_ZNK5clang4Type28isObjCQualifiedInterfaceTypeEv
libclangAST.so.8:_ZNK5clang4Type29getArrayElementTypeNoTypeQualEv
libclangAST.so.8:_ZNK5clang4Type29getAsObjCInterfacePointerTypeEv
libclangAST.so.8:_ZNK5clang4Type30hasSignedIntegerRepresentationEv
libclangAST.so.8:_ZNK5clang4Type31getAsObjCQualifiedInterfaceTypeEv
libclangAST.so.8:_ZNK5clang4Type32hasUnsignedIntegerRepresentationEv
libclangAST.so.8:_ZNK5clang4Type32isBlockCompatibleObjCPointerTypeERNS_10ASTContextE
libclangAST.so.8:_ZNK5clang4Type32isSignedIntegerOrEnumerationTypeEv
libclangAST.so.8:_ZNK5clang4Type33isObjCARCImplicitlyUnretainedTypeEv
libclangAST.so.8:_ZNK5clang4Type34isUnsignedIntegerOrEnumerationTypeEv
libclangAST.so.8:_ZNK5clang4Type35isIntegralOrUnscopedEnumerationTypeEv
libclangAST.so.8:_ZNK5clang4Type44getLocallyUnqualifiedSingleStepDesugaredTypeEv
libclangAST.so.8:_ZNK5clang4Type4dumpERN4llvm11raw_ostreamE
libclangAST.so.8:_ZNK5clang4Type4dumpEv
libclangAST.so.8:_ZNK5clang4Type5getAsINS_11TypedefTypeEEEPKT_v
libclangAST.so.8:_ZNK5clang4Type5getAsINS_14AttributedTypeEEEPKT_v
libclangAST.so.8:_ZNK5clang4Type5getAsINS_26TemplateSpecializationTypeEEEPKT_v
libclangAST.so.8:_ZNK5clang4Type7hasAttrENS_4attr4KindE
libclangAST.so.8:_ZNK5clang5NSAPI12getNSClassIdENS0_17NSClassIdKindKindE
libclangAST.so.8:_ZNK5clang5NSAPI13isObjCTypedefENS_8QualTypeEN4llvm9StringRefERPNS_14IdentifierInfoE
libclangAST.so.8:_ZNK5clang5NSAPI14isMacroDefinedEN4llvm9StringRefE
libclangAST.so.8:_ZNK5clang5NSAPI14isObjCBOOLTypeENS_8QualTypeE
libclangAST.so.8:_ZNK5clang5NSAPI16getNSSetSelectorENS0_15NSSetMethodKindE
libclangAST.so.8:_ZNK5clang5NSAPI16isObjCEnumeratorEPKNS_4ExprEN4llvm9StringRefERPNS_14IdentifierInfoE
libclangAST.so.8:_ZNK5clang5NSAPI17GetNSIntegralKindENS_8QualTypeE
libclangAST.so.8:_ZNK5clang5NSAPI17getOrInitSelectorEN4llvm8ArrayRefINS1_9StringRefEEERNS_8SelectorE
libclangAST.so.8:_ZNK5clang5NSAPI18getNSArraySelectorENS0_17NSArrayMethodKindE
libclangAST.so.8:_ZNK5clang5NSAPI19getNSStringSelectorENS0_18NSStringMethodKindE
libclangAST.so.8:_ZNK5clang5NSAPI19isObjCNSIntegerTypeENS_8QualTypeE
libclangAST.so.8:_ZNK5clang5NSAPI19isSubclassOfNSClassEPNS_17ObjCInterfaceDeclENS0_17NSClassIdKindKindE
libclangAST.so.8:_ZNK5clang5NSAPI20isObjCNSUIntegerTypeENS_8QualTypeE
libclangAST.so.8:_ZNK5clang5NSAPI21getNSStringMethodKindENS_8SelectorE
libclangAST.so.8:_ZNK5clang5NSAPI23getNSDictionarySelectorENS0_22NSDictionaryMethodKindE
libclangAST.so.8:_ZNK5clang5NSAPI24getOrInitNullarySelectorEN4llvm9StringRefERNS_8SelectorE
libclangAST.so.8:_ZNK5clang5NSAPI26getNSNumberLiteralSelectorENS0_25NSNumberLiteralMethodKindEb
libclangAST.so.8:_ZNK5clang5NSAPI28getNSNumberFactoryMethodKindENS_8QualTypeE
libclangAST.so.8:_ZNK5clang5NSAPI28getNSNumberLiteralMethodKindENS_8SelectorE
libclangAST.so.8:_ZNK5clang6IfStmt23isObjCAvailabilityCheckEv
libclangAST.so.8:_ZNK5clang7APValue10LValueBase14getOpaqueValueEv
libclangAST.so.8:_ZNK5clang7APValue10LValueBase6isNullEv
libclangAST.so.8:_ZNK5clang7APValue10LValueBasecvbEv
libclangAST.so.8:_ZNK5clang7APValue11getAsStringB5cxx11ERNS_10ASTContextENS_8QualTypeE
libclangAST.so.8:_ZNK5clang7APValue11printPrettyERN4llvm11raw_ostreamERNS_10ASTContextENS_8QualTypeE
libclangAST.so.8:_ZNK5clang7APValue12needsCleanupEv
libclangAST.so.8:_ZNK5clang7APValue13getLValueBaseEv
libclangAST.so.8:_ZNK5clang7APValue13getLValuePathEv
libclangAST.so.8:_ZNK5clang7APValue13hasLValuePathEv
libclangAST.so.8:_ZNK5clang7APValue13isNullPointerEv
libclangAST.so.8:_ZNK5clang7APValue16getLValueVersionEv
libclangAST.so.8:_ZNK5clang7APValue18getLValueCallIndexEv
libclangAST.so.8:_ZNK5clang7APValue18toIntegralConstantERN4llvm6APSIntENS_8QualTypeERKNS_10ASTContextE
libclangAST.so.8:_ZNK5clang7APValue20getMemberPointerDeclEv
libclangAST.so.8:_ZNK5clang7APValue20getMemberPointerPathEv
libclangAST.so.8:_ZNK5clang7APValue21isLValueOnePastTheEndEv
libclangAST.so.8:_ZNK5clang7APValue30isMemberPointerToDerivedMemberEv
libclangAST.so.8:_ZNK5clang7APValue4dumpERN4llvm11raw_ostreamE
libclangAST.so.8:_ZNK5clang7APValue4dumpEv
libclangAST.so.8:_ZNK5clang7AsmStmt10getClobberEj
libclangAST.so.8:_ZNK5clang7AsmStmt12getInputExprEj
libclangAST.so.8:_ZNK5clang7AsmStmt13getOutputExprEj
libclangAST.so.8:_ZNK5clang7AsmStmt17generateAsmStringB5cxx11ERKNS_10ASTContextE
libclangAST.so.8:_ZNK5clang7AsmStmt18getInputConstraintEj
libclangAST.so.8:_ZNK5clang7AsmStmt18getNumPlusOperandsEv
libclangAST.so.8:_ZNK5clang7AsmStmt19getOutputConstraintEj
libclangAST.so.8:_ZNK5clang7ForStmt20getConditionVariableEv
libclangAST.so.8:_ZNK5clang7HotAttr11getSpellingEv
libclangAST.so.8:_ZNK5clang7HotAttr11printPrettyERN4llvm11raw_ostreamERKNS_14PrintingPolicyE
libclangAST.so.8:_ZNK5clang7HotAttr5cloneERNS_10ASTContextE
libclangAST.so.8:_ZNK5clang7PcsAttr11getSpellingEv
libclangAST.so.8:_ZNK5clang7PcsAttr11printPrettyERN4llvm11raw_ostreamERKNS_14PrintingPolicyE
libclangAST.so.8:_ZNK5clang7PcsAttr5cloneERNS_10ASTContextE
libclangAST.so.8:_ZNK5clang7TagDecl13getDefinitionEv
libclangAST.so.8:_ZNK5clang7TagDecl14getSourceRangeEv
libclangAST.so.8:_ZNK5clang7TagDecl16getOuterLocStartEv
libclangAST.so.8:_ZNK5clang7TagType14isBeingDefinedEv
libclangAST.so.8:_ZNK5clang7TagType7getDeclEv
libclangAST.so.8:_ZNK5clang7TypeLoc11getBeginLocEv
libclangAST.so.8:_ZNK5clang7TypeLoc18findNullabilityLocEv
libclangAST.so.8:_ZNK5clang7TypeLoc24findExplicitQualifierLocEv
libclangAST.so.8:_ZNK5clang7TypeLoc9getEndLocEv
libclangAST.so.8:_ZNK5clang7VarDecl10getTLSKindEv
libclangAST.so.8:_ZNK5clang7VarDecl11isNoDestroyERKNS_10ASTContextE
libclangAST.so.8:_ZNK5clang7VarDecl11isOutOfLineEv
libclangAST.so.8:_ZNK5clang7VarDecl13evaluateValueERN4llvm15SmallVectorImplISt4pairINS_14SourceLocationENS_17PartialDiagnosticEEEE
libclangAST.so.8:_ZNK5clang7VarDecl13evaluateValueEv
libclangAST.so.8:_ZNK5clang7VarDecl13hasDefinitionERNS_10ASTContextE
libclangAST.so.8:_ZNK5clang7VarDecl14checkInitIsICEEv
libclangAST.so.8:_ZNK5clang7VarDecl14getSourceRangeEv
libclangAST.so.8:_ZNK5clang7VarDecl14isInitKnownICEEv
libclangAST.so.8:_ZNK5clang7VarDecl15isEscapingByrefEv
libclangAST.so.8:_ZNK5clang7VarDecl17getAnyInitializerERPKS0_
libclangAST.so.8:_ZNK5clang7VarDecl17getEvaluatedValueEv
libclangAST.so.8:_ZNK5clang7VarDecl18getLanguageLinkageEv
libclangAST.so.8:_ZNK5clang7VarDecl18isInExternCContextEv
libclangAST.so.8:_ZNK5clang7VarDecl18isKnownToBeDefinedEv
libclangAST.so.8:_ZNK5clang7VarDecl18isNonEscapingByrefEv
libclangAST.so.8:_ZNK5clang7VarDecl19ensureEvaluatedStmtEv
libclangAST.so.8:_ZNK5clang7VarDecl20isInExternCXXContextEv
libclangAST.so.8:_ZNK5clang7VarDecl23getDescribedVarTemplateEv
libclangAST.so.8:_ZNK5clang7VarDecl23getPointOfInstantiationEv
libclangAST.so.8:_ZNK5clang7VarDecl27getMemberSpecializationInfoEv
libclangAST.so.8:_ZNK5clang7VarDecl28isThisDeclarationADefinitionERNS_10ASTContextE
libclangAST.so.8:_ZNK5clang7VarDecl29getTemplateSpecializationKindEv
libclangAST.so.8:_ZNK5clang7VarDecl29isUsableInConstantExpressionsERNS_10ASTContextE
libclangAST.so.8:_ZNK5clang7VarDecl31getTemplateInstantiationPatternEv
libclangAST.so.8:_ZNK5clang7VarDecl35getInstantiatedFromStaticDataMemberEv
libclangAST.so.8:_ZNK5clang7VarDecl7hasInitEv
libclangAST.so.8:_ZNK5clang7VarDecl9isExternCEv
libclangAST.so.8:_ZNK5clang7VarDecl9isInitICEEv
libclangAST.so.8:_ZNK5clang8CallExpr11getBeginLocEv
libclangAST.so.8:_ZNK5clang8CallExpr16getBuiltinCalleeEv
libclangAST.so.8:_ZNK5clang8CallExpr17getCallReturnTypeERKNS_10ASTContextE
libclangAST.so.8:_ZNK5clang8CallExpr19getUnusedResultAttrERKNS_10ASTContextE
libclangAST.so.8:_ZNK5clang8CallExpr20isBuiltinAssumeFalseERKNS_10ASTContextE
libclangAST.so.8:_ZNK5clang8CallExpr24isUnevaluatedBuiltinCallERKNS_10ASTContextE
libclangAST.so.8:_ZNK5clang8CallExpr9getEndLocEv
libclangAST.so.8:_ZNK5clang8CastExpr15CastConsistencyEv
libclangAST.so.8:_ZNK5clang8CastExpr21getConversionFunctionEv
libclangAST.so.8:_ZNK5clang8ColdAttr11getSpellingEv
libclangAST.so.8:_ZNK5clang8ColdAttr11printPrettyERN4llvm11raw_ostreamERKNS_14PrintingPolicyE
libclangAST.so.8:_ZNK5clang8ColdAttr5cloneERNS_10ASTContextE
libclangAST.so.8:_ZNK5clang8EnumDecl12isClosedFlagEv
libclangAST.so.8:_ZNK5clang8EnumDecl15isClosedNonFlagEv
libclangAST.so.8:_ZNK5clang8EnumDecl19getIntegerTypeRangeEv
libclangAST.so.8:_ZNK5clang8EnumDecl29getInstantiatedFromMemberEnumEv
libclangAST.so.8:_ZNK5clang8EnumDecl29getTemplateSpecializationKindEv
libclangAST.so.8:_ZNK5clang8EnumDecl31getTemplateInstantiationPatternEv
libclangAST.so.8:_ZNK5clang8EnumDecl8isClosedEv
libclangAST.so.8:_ZNK5clang8ModeAttr11getSpellingEv
libclangAST.so.8:_ZNK5clang8ModeAttr11printPrettyERN4llvm11raw_ostreamERKNS_14PrintingPolicyE
libclangAST.so.8:_ZNK5clang8ModeAttr5cloneERNS_10ASTContextE
libclangAST.so.8:_ZNK5clang8PureAttr11getSpellingEv
libclangAST.so.8:_ZNK5clang8PureAttr11printPrettyERN4llvm11raw_ostreamERKNS_14PrintingPolicyE
libclangAST.so.8:_ZNK5clang8PureAttr5cloneERNS_10ASTContextE
libclangAST.so.8:_ZNK5clang8QualType11getAsStringB5cxx11ERKNS_14PrintingPolicyE
libclangAST.so.8:_ZNK5clang8QualType11getAsStringB5cxx11Ev
libclangAST.so.8:_ZNK5clang8QualType13isTrivialTypeERKNS_10ASTContextE
libclangAST.so.8:_ZNK5clang8QualType14isCXX11PODTypeERKNS_10ASTContextE
libclangAST.so.8:_ZNK5clang8QualType14isCXX98PODTypeERKNS_10ASTContextE
libclangAST.so.8:_ZNK5clang8QualType17mayBeDynamicClassEv
libclangAST.so.8:_ZNK5clang8QualType17substObjCTypeArgsERNS_10ASTContextEN4llvm8ArrayRefIS0_EENS_23ObjCSubstitutionContextE
libclangAST.so.8:_ZNK5clang8QualType19getAsStringInternalERNSt7__cxx1112basic_stringIcSt11char_traitsIcESaIcEEERKNS_14PrintingPolicyE
libclangAST.so.8:_ZNK5clang8QualType19stripObjCKindOfTypeERKNS_10ASTContextE
libclangAST.so.8:_ZNK5clang8QualType19substObjCMemberTypeES0_PKNS_11DeclContextENS_23ObjCSubstitutionContextE
libclangAST.so.8:_ZNK5clang8QualType20getNonLValueExprTypeERKNS_10ASTContextE
libclangAST.so.8:_ZNK5clang8QualType20mayBeNotDynamicClassEv
libclangAST.so.8:_ZNK5clang8QualType21getBaseTypeIdentifierEv
libclangAST.so.8:_ZNK5clang8QualType23isTriviallyCopyableTypeERKNS_10ASTContextE
libclangAST.so.8:_ZNK5clang8QualType24getAtomicUnqualifiedTypeEv
libclangAST.so.8:_ZNK5clang8QualType26isNonWeakInMRRWithObjCWeakERKNS_10ASTContextE
libclangAST.so.8:_ZNK5clang8QualType27isNonTrivialToPrimitiveCopyEv
libclangAST.so.8:_ZNK5clang8QualType38isNonTrivialToPrimitiveDestructiveMoveEv
libclangAST.so.8:_ZNK5clang8QualType40isNonTrivialToPrimitiveDefaultInitializeEv
libclangAST.so.8:_ZNK5clang8QualType4dumpEPKc
libclangAST.so.8:_ZNK5clang8QualType4dumpERN4llvm11raw_ostreamE
libclangAST.so.8:_ZNK5clang8QualType4dumpEv
libclangAST.so.8:_ZNK5clang8QualType5printERN4llvm11raw_ostreamERKNS_14PrintingPolicyERKNS1_5TwineEj
libclangAST.so.8:_ZNK5clang8QualType9isPODTypeERKNS_10ASTContextE
libclangAST.so.8:_ZNK5clang8SPtrAttr11getSpellingEv
libclangAST.so.8:_ZNK5clang8SPtrAttr11printPrettyERN4llvm11raw_ostreamERKNS_14PrintingPolicyE
libclangAST.so.8:_ZNK5clang8SPtrAttr5cloneERNS_10ASTContextE
libclangAST.so.8:_ZNK5clang8UPtrAttr11getSpellingEv
libclangAST.so.8:_ZNK5clang8UPtrAttr11printPrettyERN4llvm11raw_ostreamERKNS_14PrintingPolicyE
libclangAST.so.8:_ZNK5clang8UPtrAttr5cloneERNS_10ASTContextE
libclangAST.so.8:_ZNK5clang8UsedAttr11getSpellingEv
libclangAST.so.8:_ZNK5clang8UsedAttr11printPrettyERN4llvm11raw_ostreamERKNS_14PrintingPolicyE
libclangAST.so.8:_ZNK5clang8UsedAttr5cloneERNS_10ASTContextE
libclangAST.so.8:_ZNK5clang8UuidAttr11getSpellingEv
libclangAST.so.8:_ZNK5clang8UuidAttr11printPrettyERN4llvm11raw_ostreamERKNS_14PrintingPolicyE
libclangAST.so.8:_ZNK5clang8UuidAttr5cloneERNS_10ASTContextE
libclangAST.so.8:_ZNK5clang8WeakAttr11getSpellingEv
libclangAST.so.8:_ZNK5clang8WeakAttr11printPrettyERN4llvm11raw_ostreamERKNS_14PrintingPolicyE
libclangAST.so.8:_ZNK5clang8WeakAttr5cloneERNS_10ASTContextE
libclangAST.so.8:_ZNK5clang8comments11TextComment19isWhitespaceNoCacheEv
libclangAST.so.8:_ZNK5clang8comments13CommandTraits14getCommandInfoEj
libclangAST.so.8:_ZNK5clang8comments13CommandTraits20getCommandInfoOrNULLEN4llvm9StringRefE
libclangAST.so.8:_ZNK5clang8comments13CommandTraits24getRegisteredCommandInfoEN4llvm9StringRefE
libclangAST.so.8:_ZNK5clang8comments13CommandTraits24getRegisteredCommandInfoEj
libclangAST.so.8:_ZNK5clang8comments13CommandTraits25getTypoCorrectCommandInfoEN4llvm9StringRefE
libclangAST.so.8:_ZNK5clang8comments16ParagraphComment19isWhitespaceNoCacheEv
libclangAST.so.8:_ZNK5clang8comments19ParamCommandComment12getParamNameEPKNS0_11FullCommentE
libclangAST.so.8:_ZNK5clang8comments20TParamCommandComment12getParamNameEPKNS0_11FullCommentE
libclangAST.so.8:_ZNK5clang8comments4Sema26getInlineCommandRenderKindEN4llvm9StringRefE
libclangAST.so.8:_ZNK5clang8comments5Lexer11getSpellingERKNS0_5TokenERKNS_13SourceManagerEPb
libclangAST.so.8:_ZNK5clang8comments5Lexer32resolveHTMLHexCharacterReferenceEN4llvm9StringRefE
libclangAST.so.8:_ZNK5clang8comments5Lexer34resolveHTMLNamedCharacterReferenceEN4llvm9StringRefE
libclangAST.so.8:_ZNK5clang8comments5Lexer36resolveHTMLDecimalCharacterReferenceEN4llvm9StringRefE
libclangAST.so.8:_ZNK5clang8comments5Token4dumpERKNS0_5LexerERKNS_13SourceManagerE
libclangAST.so.8:_ZNK5clang8comments7Comment11child_beginEv
libclangAST.so.8:_ZNK5clang8comments7Comment18getCommentKindNameEv
libclangAST.so.8:_ZNK5clang8comments7Comment4dumpERKNS_10ASTContextE
libclangAST.so.8:_ZNK5clang8comments7Comment4dumpERN4llvm11raw_ostreamEPKNS0_13CommandTraitsEPKNS_13SourceManagerE
libclangAST.so.8:_ZNK5clang8comments7Comment4dumpEv
libclangAST.so.8:_ZNK5clang8comments7Comment9child_endEv
libclangAST.so.8:_ZNK5clang8comments7Comment9dumpColorEv
libclangAST.so.8:_ZNK5clang9AliasAttr11getSpellingEv
libclangAST.so.8:_ZNK5clang9AliasAttr11printPrettyERN4llvm11raw_ostreamERKNS_14PrintingPolicyE
libclangAST.so.8:_ZNK5clang9AliasAttr5cloneERNS_10ASTContextE
libclangAST.so.8:_ZNK5clang9BlockDecl14getSourceRangeEv
libclangAST.so.8:_ZNK5clang9BlockDecl16capturesVariableEPKNS_7VarDeclE
libclangAST.so.8:_ZNK5clang9BlockExpr15getFunctionTypeEv
libclangAST.so.8:_ZNK5clang9BlockExpr16getCaretLocationEv
libclangAST.so.8:_ZNK5clang9BlockExpr7getBodyEv
libclangAST.so.8:_ZNK5clang9CDeclAttr11getSpellingEv
libclangAST.so.8:_ZNK5clang9CDeclAttr11printPrettyERN4llvm11raw_ostreamERKNS_14PrintingPolicyE
libclangAST.so.8:_ZNK5clang9CDeclAttr5cloneERNS_10ASTContextE
libclangAST.so.8:_ZNK5clang9ConstAttr11getSpellingEv
libclangAST.so.8:_ZNK5clang9ConstAttr11printPrettyERN4llvm11raw_ostreamERKNS_14PrintingPolicyE
libclangAST.so.8:_ZNK5clang9ConstAttr5cloneERNS_10ASTContextE
libclangAST.so.8:_ZNK5clang9FieldDecl13getFieldIndexEv
libclangAST.so.8:_ZNK5clang9FieldDecl14getSourceRangeEv
libclangAST.so.8:_ZNK5clang9FieldDecl16getBitWidthValueERKNS_10ASTContextE
libclangAST.so.8:_ZNK5clang9FieldDecl20isZeroLengthBitFieldERKNS_10ASTContextE
libclangAST.so.8:_ZNK5clang9FieldDecl24isAnonymousStructOrUnionEv
libclangAST.so.8:_ZNK5clang9FinalAttr11getSpellingEv
libclangAST.so.8:_ZNK5clang9FinalAttr11printPrettyERN4llvm11raw_ostreamERKNS_14PrintingPolicyE
libclangAST.so.8:_ZNK5clang9FinalAttr5cloneERNS_10ASTContextE
libclangAST.so.8:_ZNK5clang9IFuncAttr11getSpellingEv
libclangAST.so.8:_ZNK5clang9IFuncAttr11printPrettyERN4llvm11raw_ostreamERKNS_14PrintingPolicyE
libclangAST.so.8:_ZNK5clang9IFuncAttr5cloneERNS_10ASTContextE
libclangAST.so.8:_ZNK5clang9LabelStmt7getNameEv
libclangAST.so.8:_ZNK5clang9MSABIAttr11getSpellingEv
libclangAST.so.8:_ZNK5clang9MSABIAttr11printPrettyERN4llvm11raw_ostreamERKNS_14PrintingPolicyE
libclangAST.so.8:_ZNK5clang9MSABIAttr5cloneERNS_10ASTContextE
libclangAST.so.8:_ZNK5clang9MSAsmStmt17generateAsmStringB5cxx11ERKNS_10ASTContextE
libclangAST.so.8:_ZNK5clang9NakedAttr11getSpellingEv
libclangAST.so.8:_ZNK5clang9NakedAttr11printPrettyERN4llvm11raw_ostreamERKNS_14PrintingPolicyE
libclangAST.so.8:_ZNK5clang9NakedAttr5cloneERNS_10ASTContextE
libclangAST.so.8:_ZNK5clang9NamedDecl10hasLinkageEv
libclangAST.so.8:_ZNK5clang9NamedDecl14isLinkageValidEv
libclangAST.so.8:_ZNK5clang9NamedDecl18getLinkageInternalEv
libclangAST.so.8:_ZNK5clang9NamedDecl18printQualifiedNameERN4llvm11raw_ostreamE
libclangAST.so.8:_ZNK5clang9NamedDecl18printQualifiedNameERN4llvm11raw_ostreamERKNS_14PrintingPolicyE
libclangAST.so.8:_ZNK5clang9NamedDecl19declarationReplacesEPS0_b
libclangAST.so.8:_ZNK5clang9NamedDecl19isCXXInstanceMemberEv
libclangAST.so.8:_ZNK5clang9NamedDecl20getNameForDiagnosticERN4llvm11raw_ostreamERKNS_14PrintingPolicyEb
libclangAST.so.8:_ZNK5clang9NamedDecl21getExplicitVisibilityENS0_22ExplicitVisibilityKindE
libclangAST.so.8:_ZNK5clang9NamedDecl23getLinkageAndVisibilityEv
libclangAST.so.8:_ZNK5clang9NamedDecl24getQualifiedNameAsStringB5cxx11Ev
libclangAST.so.8:_ZNK5clang9NamedDecl30getObjCFStringFormattingFamilyEv
libclangAST.so.8:_ZNK5clang9NamedDecl9printNameERN4llvm11raw_ostreamE
libclangAST.so.8:_ZNK5clang9ParentMap14isConsumedExprEPNS_4ExprE
libclangAST.so.8:_ZNK5clang9ParentMap19getOuterParenParentEPNS_4StmtE
libclangAST.so.8:_ZNK5clang9ParentMap21getParentIgnoreParensEPNS_4StmtE
libclangAST.so.8:_ZNK5clang9ParentMap25getParentIgnoreParenCastsEPNS_4StmtE
libclangAST.so.8:_ZNK5clang9ParentMap28getParentIgnoreParenImpCastsEPNS_4StmtE
libclangAST.so.8:_ZNK5clang9ParentMap9getParentEPNS_4StmtE
libclangAST.so.8:_ZNK5clang9Ptr32Attr11getSpellingEv
libclangAST.so.8:_ZNK5clang9Ptr32Attr11printPrettyERN4llvm11raw_ostreamERKNS_14PrintingPolicyE
libclangAST.so.8:_ZNK5clang9Ptr32Attr5cloneERNS_10ASTContextE
libclangAST.so.8:_ZNK5clang9Ptr64Attr11getSpellingEv
libclangAST.so.8:_ZNK5clang9Ptr64Attr11printPrettyERN4llvm11raw_ostreamERKNS_14PrintingPolicyE
libclangAST.so.8:_ZNK5clang9Ptr64Attr5cloneERNS_10ASTContextE
libclangAST.so.8:_ZNK5clang9UsingDecl14getSourceRangeEv
libclangAST.so.8:_ZNK5clang9ValueDecl6isWeakEv
libclangASTMatchers.so.8:_ZN5clang12ast_matchers11MatchFinder10addMatcherERKNS0_8internal7MatcherINS_18CXXCtorInitializerEEEPNS1_13MatchCallbackE
libclangASTMatchers.so.8:_ZN5clang12ast_matchers11MatchFinder10addMatcherERKNS0_8internal7MatcherINS_19NestedNameSpecifierEEEPNS1_13MatchCallbackE
libclangASTMatchers.so.8:_ZN5clang12ast_matchers11MatchFinder10addMatcherERKNS0_8internal7MatcherINS_22NestedNameSpecifierLocEEEPNS1_13MatchCallbackE
libclangASTMatchers.so.8:_ZN5clang12ast_matchers11MatchFinder10addMatcherERKNS0_8internal7MatcherINS_4DeclEEEPNS1_13MatchCallbackE
libclangASTMatchers.so.8:_ZN5clang12ast_matchers11MatchFinder10addMatcherERKNS0_8internal7MatcherINS_4StmtEEEPNS1_13MatchCallbackE
libclangASTMatchers.so.8:_ZN5clang12ast_matchers11MatchFinder10addMatcherERKNS0_8internal7MatcherINS_7TypeLocEEEPNS1_13MatchCallbackE
libclangASTMatchers.so.8:_ZN5clang12ast_matchers11MatchFinder10addMatcherERKNS0_8internal7MatcherINS_8QualTypeEEEPNS1_13MatchCallbackE
libclangASTMatchers.so.8:_ZN5clang12ast_matchers11MatchFinder11MatchResultC1ERKNS0_10BoundNodesEPNS_10ASTContextE
libclangASTMatchers.so.8:_ZN5clang12ast_matchers11MatchFinder11MatchResultC2ERKNS0_10BoundNodesEPNS_10ASTContextE
libclangASTMatchers.so.8:_ZN5clang12ast_matchers11MatchFinder13MatchCallbackD0Ev
libclangASTMatchers.so.8:_ZN5clang12ast_matchers11MatchFinder13MatchCallbackD1Ev
libclangASTMatchers.so.8:_ZN5clang12ast_matchers11MatchFinder13MatchCallbackD2Ev
libclangASTMatchers.so.8:_ZN5clang12ast_matchers11MatchFinder14newASTConsumerEv
libclangASTMatchers.so.8:_ZN5clang12ast_matchers11MatchFinder17addDynamicMatcherERKNS0_8internal15DynTypedMatcherEPNS1_13MatchCallbackE
libclangASTMatchers.so.8:_ZN5clang12ast_matchers11MatchFinder23ParsingDoneTestCallbackD0Ev
libclangASTMatchers.so.8:_ZN5clang12ast_matchers11MatchFinder23ParsingDoneTestCallbackD1Ev
libclangASTMatchers.so.8:_ZN5clang12ast_matchers11MatchFinder23ParsingDoneTestCallbackD2Ev
libclangASTMatchers.so.8:_ZN5clang12ast_matchers11MatchFinder32registerTestCallbackAfterParsingEPNS1_23ParsingDoneTestCallbackE
libclangASTMatchers.so.8:_ZN5clang12ast_matchers11MatchFinder5matchERKNS_15ast_type_traits12DynTypedNodeERNS_10ASTContextE
libclangASTMatchers.so.8:_ZN5clang12ast_matchers11MatchFinder8matchASTERNS_10ASTContextE
libclangASTMatchers.so.8:_ZN5clang12ast_matchers11MatchFinderC1ENS1_18MatchFinderOptionsE
libclangASTMatchers.so.8:_ZN5clang12ast_matchers11MatchFinderC2ENS1_18MatchFinderOptionsE
libclangASTMatchers.so.8:_ZN5clang12ast_matchers11MatchFinderD1Ev
libclangASTMatchers.so.8:_ZN5clang12ast_matchers11MatchFinderD2Ev
libclangASTMatchers.so.8:_ZN5clang12ast_matchers8internal14HasNameMatcherC1ESt6vectorINSt7__cxx1112basic_stringIcSt11char_traitsIcESaIcEEESaIS9_EE
libclangASTMatchers.so.8:_ZN5clang12ast_matchers8internal14HasNameMatcherC2ESt6vectorINSt7__cxx1112basic_stringIcSt11char_traitsIcESaIcEEESaIS9_EE
libclangASTMatchers.so.8:_ZN5clang12ast_matchers8internal14hasAnyNameFuncEN4llvm8ArrayRefIPKNS2_9StringRefEEE
libclangASTMatchers.so.8:_ZN5clang12ast_matchers8internal15DynTypedMatcher11trueMatcherENS_15ast_type_traits11ASTNodeKindE
libclangASTMatchers.so.8:_ZN5clang12ast_matchers8internal15DynTypedMatcher17constructVariadicENS2_16VariadicOperatorENS_15ast_type_traits11ASTNodeKindESt6vectorIS2_SaIS2_EE
libclangASTMatchers.so.8:_ZN5clang12ast_matchers8internal16NotUnaryOperatorERKNS_15ast_type_traits12DynTypedNodeEPNS1_14ASTMatchFinderEPNS1_21BoundNodesTreeBuilderEN4llvm8ArrayRefINS1_15DynTypedMatcherEEE
libclangASTMatchers.so.8:_ZN5clang12ast_matchers8internal18hasAnySelectorFuncEN4llvm8ArrayRefIPKNS2_9StringRefEEE
libclangASTMatchers.so.8:_ZN5clang12ast_matchers8internal21AllOfVariadicOperatorERKNS_15ast_type_traits12DynTypedNodeEPNS1_14ASTMatchFinderEPNS1_21BoundNodesTreeBuilderEN4llvm8ArrayRefINS1_15DynTypedMatcherEEE
libclangASTMatchers.so.8:_ZN5clang12ast_matchers8internal21AnyOfVariadicOperatorERKNS_15ast_type_traits12DynTypedNodeEPNS1_14ASTMatchFinderEPNS1_21BoundNodesTreeBuilderEN4llvm8ArrayRefINS1_15DynTypedMatcherEEE
libclangASTMatchers.so.8:_ZN5clang12ast_matchers8internal21BoundNodesTreeBuilder12visitMatchesEPNS2_7VisitorE
libclangASTMatchers.so.8:_ZN5clang12ast_matchers8internal21BoundNodesTreeBuilder8addMatchERKS2_
libclangASTMatchers.so.8:_ZN5clang12ast_matchers8internal22EachOfVariadicOperatorERKNS_15ast_type_traits12DynTypedNodeEPNS1_14ASTMatchFinderEPNS1_21BoundNodesTreeBuilderEN4llvm8ArrayRefINS1_15DynTypedMatcherEEE
libclangASTMatchers.so.8:_ZNK5clang12ast_matchers11MatchFinder13MatchCallback5getIDEv
libclangASTMatchers.so.8:_ZNK5clang12ast_matchers8internal14HasNameMatcher11matchesNodeERKNS_9NamedDeclE
libclangASTMatchers.so.8:_ZNK5clang12ast_matchers8internal14HasNameMatcher19matchesNodeFullFastERKNS_9NamedDeclE
libclangASTMatchers.so.8:_ZNK5clang12ast_matchers8internal14HasNameMatcher19matchesNodeFullSlowERKNS_9NamedDeclE
libclangASTMatchers.so.8:_ZNK5clang12ast_matchers8internal14HasNameMatcher22matchesNodeUnqualifiedERKNS_9NamedDeclE
libclangASTMatchers.so.8:_ZNK5clang12ast_matchers8internal15DynTypedMatcher12canConvertToENS_15ast_type_traits11ASTNodeKindE
libclangASTMatchers.so.8:_ZNK5clang12ast_matchers8internal15DynTypedMatcher18matchesNoKindCheckERKNS_15ast_type_traits12DynTypedNodeEPNS1_14ASTMatchFinderEPNS1_21BoundNodesTreeBuilderE
libclangASTMatchers.so.8:_ZNK5clang12ast_matchers8internal15DynTypedMatcher19canMatchNodesOfKindENS_15ast_type_traits11ASTNodeKindE
libclangASTMatchers.so.8:_ZNK5clang12ast_matchers8internal15DynTypedMatcher7matchesERKNS_15ast_type_traits12DynTypedNodeEPNS1_14ASTMatchFinderEPNS1_21BoundNodesTreeBuilderE
libclangASTMatchers.so.8:_ZNK5clang12ast_matchers8internal15DynTypedMatcher7tryBindEN4llvm9StringRefE
libclangASTMatchers.so.8:_ZNK5clang12ast_matchers8internal15DynTypedMatcher9dynCastToENS_15ast_type_traits11ASTNodeKindE
libclangAnalysis.so.8:_ZN5clang10CFGStmtMap5BuildEPNS_3CFGEPNS_9ParentMapE
libclangAnalysis.so.8:_ZN5clang10CFGStmtMap8getBlockEPNS_4StmtE
libclangAnalysis.so.8:_ZN5clang10CFGStmtMapD1Ev
libclangAnalysis.so.8:_ZN5clang10CFGStmtMapD2Ev
libclangAnalysis.so.8:_ZN5clang12CodeInjectorC2Ev
libclangAnalysis.so.8:_ZN5clang12CodeInjectorD0Ev
libclangAnalysis.so.8:_ZN5clang12CodeInjectorD1Ev
libclangAnalysis.so.8:_ZN5clang12CodeInjectorD2Ev
libclangAnalysis.so.8:_ZN5clang12ObjCNoReturn18isImplicitNoReturnEPKNS_15ObjCMessageExprE
libclangAnalysis.so.8:_ZN5clang12ObjCNoReturnC1ERNS_10ASTContextE
libclangAnalysis.so.8:_ZN5clang12ObjCNoReturnC2ERNS_10ASTContextE
libclangAnalysis.so.8:_ZN5clang12ProgramPoint15getProgramPointEPKNS_4StmtENS0_4KindEPKNS_15LocationContextEPKNS_15ProgramPointTagE
libclangAnalysis.so.8:_ZN5clang12ScopeContext7ProfileERN4llvm16FoldingSetNodeIDE
libclangAnalysis.so.8:_ZN5clang12StmtSequenceC1EPKNS_12CompoundStmtEPKNS_4DeclEjj
libclangAnalysis.so.8:_ZN5clang12StmtSequenceC1EPKNS_4StmtEPKNS_4DeclE
libclangAnalysis.so.8:_ZN5clang12StmtSequenceC1Ev
libclangAnalysis.so.8:_ZN5clang12StmtSequenceC2EPKNS_12CompoundStmtEPKNS_4DeclEjj
libclangAnalysis.so.8:_ZN5clang12StmtSequenceC2EPKNS_4StmtEPKNS_4DeclE
libclangAnalysis.so.8:_ZN5clang12StmtSequenceC2Ev
libclangAnalysis.so.8:_ZN5clang12threadSafety12SExprBuilder10addVarDeclEPKNS_9ValueDeclEPNS0_3til5SExprE
libclangAnalysis.so.8:_ZN5clang12threadSafety12SExprBuilder10lookupStmtEPKNS_4StmtE
libclangAnalysis.so.8:_ZN5clang12threadSafety12SExprBuilder12addStatementEPNS0_3til5SExprEPKNS_4StmtEPKNS_9ValueDeclE
libclangAnalysis.so.8:_ZN5clang12threadSafety12SExprBuilder12exitCFGBlockEPKNS_8CFGBlockE
libclangAnalysis.so.8:_ZN5clang12threadSafety12SExprBuilder13enterCFGBlockEPKNS_8CFGBlockE
libclangAnalysis.so.8:_ZN5clang12threadSafety12SExprBuilder13lookupVarDeclEPKNS_9ValueDeclE
libclangAnalysis.so.8:_ZN5clang12threadSafety12SExprBuilder13mergeEntryMapENS0_17CopyOnWriteVectorISt4pairIPKNS_9ValueDeclEPNS0_3til5SExprEEEE
libclangAnalysis.so.8:_ZN5clang12threadSafety12SExprBuilder13updateVarDeclEPKNS_9ValueDeclEPNS0_3til5SExprE
libclangAnalysis.so.8:_ZN5clang12threadSafety12SExprBuilder14makePhiNodeVarEjjPNS0_3til5SExprE
libclangAnalysis.so.8:_ZN5clang12threadSafety12SExprBuilder14translateBinOpENS0_3til16TIL_BinaryOpcodeEPKNS_14BinaryOperatorEPNS1_14CallingContextEb
libclangAnalysis.so.8:_ZN5clang12threadSafety12SExprBuilder15handleStatementEPKNS_4StmtE
libclangAnalysis.so.8:_ZN5clang12threadSafety12SExprBuilder15handleSuccessorEPKNS_8CFGBlockE
libclangAnalysis.so.8:_ZN5clang12threadSafety12SExprBuilder16exitCFGBlockBodyEPKNS_8CFGBlockE
libclangAnalysis.so.8:_ZN5clang12threadSafety12SExprBuilder17enterCFGBlockBodyEPKNS_8CFGBlockE
libclangAnalysis.so.8:_ZN5clang12threadSafety12SExprBuilder17handlePredecessorEPKNS_8CFGBlockE
libclangAnalysis.so.8:_ZN5clang12threadSafety12SExprBuilder17translateAttrExprEPKNS_4ExprEPKNS_9NamedDeclES4_PNS_7VarDeclE
libclangAnalysis.so.8:_ZN5clang12threadSafety12SExprBuilder17translateAttrExprEPKNS_4ExprEPNS1_14CallingContextE
libclangAnalysis.so.8:_ZN5clang12threadSafety12SExprBuilder17translateCallExprEPKNS_8CallExprEPNS1_14CallingContextEPKNS_4ExprE
libclangAnalysis.so.8:_ZN5clang12threadSafety12SExprBuilder17translateCastExprEPKNS_8CastExprEPNS1_14CallingContextE
libclangAnalysis.so.8:_ZN5clang12threadSafety12SExprBuilder17translateDeclStmtEPKNS_8DeclStmtEPNS1_14CallingContextE
libclangAnalysis.so.8:_ZN5clang12threadSafety12SExprBuilder18translateBinAssignENS0_3til16TIL_BinaryOpcodeEPKNS_14BinaryOperatorEPNS1_14CallingContextEb
libclangAnalysis.so.8:_ZN5clang12threadSafety12SExprBuilder19translateMemberExprEPKNS_10MemberExprEPNS1_14CallingContextE
libclangAnalysis.so.8:_ZN5clang12threadSafety12SExprBuilder20handleDestructorCallEPKNS_7VarDeclEPKNS_17CXXDestructorDeclE
libclangAnalysis.so.8:_ZN5clang12threadSafety12SExprBuilder20translateCXXThisExprEPKNS_11CXXThisExprEPNS1_14CallingContextE
libclangAnalysis.so.8:_ZN5clang12threadSafety12SExprBuilder20translateDeclRefExprEPKNS_11DeclRefExprEPNS1_14CallingContextE
libclangAnalysis.so.8:_ZN5clang12threadSafety12SExprBuilder21mergeEntryMapBackEdgeEv
libclangAnalysis.so.8:_ZN5clang12threadSafety12SExprBuilder21mergePhiNodesBackEdgeEPKNS_8CFGBlockE
libclangAnalysis.so.8:_ZN5clang12threadSafety12SExprBuilder22translateUnaryOperatorEPKNS_13UnaryOperatorEPNS1_14CallingContextE
libclangAnalysis.so.8:_ZN5clang12threadSafety12SExprBuilder23handleSuccessorBackEdgeEPKNS_8CFGBlockE
libclangAnalysis.so.8:_ZN5clang12threadSafety12SExprBuilder23translateBinaryOperatorEPKNS_14BinaryOperatorEPNS1_14CallingContextE
libclangAnalysis.so.8:_ZN5clang12threadSafety12SExprBuilder24translateObjCIVarRefExprEPKNS_15ObjCIvarRefExprEPNS1_14CallingContextE
libclangAnalysis.so.8:_ZN5clang12threadSafety12SExprBuilder25handlePredecessorBackEdgeEPKNS_8CFGBlockE
libclangAnalysis.so.8:_ZN5clang12threadSafety12SExprBuilder26translateCXXMemberCallExprEPKNS_17CXXMemberCallExprEPNS1_14CallingContextE
libclangAnalysis.so.8:_ZN5clang12threadSafety12SExprBuilder27translateArraySubscriptExprEPKNS_18ArraySubscriptExprEPNS1_14CallingContextE
libclangAnalysis.so.8:_ZN5clang12threadSafety12SExprBuilder28translateCXXOperatorCallExprEPKNS_19CXXOperatorCallExprEPNS1_14CallingContextE
libclangAnalysis.so.8:_ZN5clang12threadSafety12SExprBuilder36translateAbstractConditionalOperatorEPKNS_27AbstractConditionalOperatorEPNS1_14CallingContextE
libclangAnalysis.so.8:_ZN5clang12threadSafety12SExprBuilder7exitCFGEPKNS_8CFGBlockE
libclangAnalysis.so.8:_ZN5clang12threadSafety12SExprBuilder8buildCFGERNS0_9CFGWalkerE
libclangAnalysis.so.8:_ZN5clang12threadSafety12SExprBuilder8enterCFGEPNS_3CFGEPKNS_9NamedDeclEPKNS_8CFGBlockE
libclangAnalysis.so.8:_ZN5clang12threadSafety12SExprBuilder9translateEPKNS_4StmtEPNS1_14CallingContextE
libclangAnalysis.so.8:_ZN5clang12threadSafety19ThreadSafetyHandlerD0Ev
libclangAnalysis.so.8:_ZN5clang12threadSafety19ThreadSafetyHandlerD1Ev
libclangAnalysis.so.8:_ZN5clang12threadSafety19ThreadSafetyHandlerD2Ev
libclangAnalysis.so.8:_ZN5clang12threadSafety19threadSafetyCleanupEPNS0_9BeforeSetE
libclangAnalysis.so.8:_ZN5clang12threadSafety22getSourceLiteralStringB5cxx11EPKNS_4ExprE
libclangAnalysis.so.8:_ZN5clang12threadSafety23runThreadSafetyAnalysisERNS_19AnalysisDeclContextERNS0_19ThreadSafetyHandlerEPPNS0_9BeforeSetE
libclangAnalysis.so.8:_ZN5clang12threadSafety25getLockKindFromAccessKindENS0_10AccessKindE
libclangAnalysis.so.8:_ZN5clang12threadSafety3til10BasicBlock14addPredecessorEPS2_
libclangAnalysis.so.8:_ZN5clang12threadSafety3til10BasicBlock14renumberInstrsEj
libclangAnalysis.so.8:_ZN5clang12threadSafety3til10BasicBlock15topologicalSortERNS1_11SimpleArrayIPS2_EEj
libclangAnalysis.so.8:_ZN5clang12threadSafety3til10BasicBlock16computeDominatorEv
libclangAnalysis.so.8:_ZN5clang12threadSafety3til10BasicBlock19reservePredecessorsEj
libclangAnalysis.so.8:_ZN5clang12threadSafety3til10BasicBlock20computePostDominatorEv
libclangAnalysis.so.8:_ZN5clang12threadSafety3til10BasicBlock20topologicalFinalSortERNS1_11SimpleArrayIPS2_EEj
libclangAnalysis.so.8:_ZN5clang12threadSafety3til15getCanonicalValEPKNS1_5SExprE
libclangAnalysis.so.8:_ZN5clang12threadSafety3til20getUnaryOpcodeStringENS1_15TIL_UnaryOpcodeE
libclangAnalysis.so.8:_ZN5clang12threadSafety3til21getBinaryOpcodeStringENS1_16TIL_BinaryOpcodeE
libclangAnalysis.so.8:_ZN5clang12threadSafety3til21simplifyIncompleteArgEPNS1_3PhiE
libclangAnalysis.so.8:_ZN5clang12threadSafety3til22simplifyToCanonicalValEPNS1_5SExprE
libclangAnalysis.so.8:_ZN5clang12threadSafety3til4SCFG14renumberInstrsEv
libclangAnalysis.so.8:_ZN5clang12threadSafety3til4SCFG17computeNormalFormEv
libclangAnalysis.so.8:_ZN5clang12threadSafety3til6Future5forceEv
libclangAnalysis.so.8:_ZN5clang12threadSafety5lexpr7impliesEPKNS1_5LExprES4_
libclangAnalysis.so.8:_ZN5clang13CloneDetector15analyzeCodeBodyEPKNS_4DeclE
libclangAnalysis.so.8:_ZN5clang13DominatorTree6anchorEv
libclangAnalysis.so.8:_ZN5clang13LiveVariables14runOnAllBlocksERNS0_8ObserverE
libclangAnalysis.so.8:_ZN5clang13LiveVariables15computeLivenessERNS_19AnalysisDeclContextEb
libclangAnalysis.so.8:_ZN5clang13LiveVariables16dumpStmtLivenessERKNS_13SourceManagerE
libclangAnalysis.so.8:_ZN5clang13LiveVariables17dumpBlockLivenessERKNS_13SourceManagerE
libclangAnalysis.so.8:_ZN5clang13LiveVariables6getTagEv
libclangAnalysis.so.8:_ZN5clang13LiveVariables6isLiveEPKNS_4StmtEPKNS_7VarDeclE
libclangAnalysis.so.8:_ZN5clang13LiveVariables6isLiveEPKNS_4StmtES3_
libclangAnalysis.so.8:_ZN5clang13LiveVariables6isLiveEPKNS_8CFGBlockEPKNS_7VarDeclE
libclangAnalysis.so.8:_ZN5clang13LiveVariables8Observer6anchorEv
libclangAnalysis.so.8:_ZN5clang13LiveVariablesC1EPv
libclangAnalysis.so.8:_ZN5clang13LiveVariablesC2EPv
libclangAnalysis.so.8:_ZN5clang13LiveVariablesD0Ev
libclangAnalysis.so.8:_ZN5clang13LiveVariablesD1Ev
libclangAnalysis.so.8:_ZN5clang13LiveVariablesD2Ev
libclangAnalysis.so.8:_ZN5clang14reachable_code19FindUnreachableCodeERNS_19AnalysisDeclContextERNS_12PreprocessorERNS0_8CallbackE
libclangAnalysis.so.8:_ZN5clang14reachable_code22ScanReachableFromBlockEPKNS_8CFGBlockERN4llvm9BitVectorE
libclangAnalysis.so.8:_ZN5clang14reachable_code8Callback6anchorEv
libclangAnalysis.so.8:_ZN5clang15CloneConstraint16splitCloneGroupsERSt6vectorIN4llvm11SmallVectorINS_12StmtSequenceELj8EEESaIS5_EENS2_12function_refIFbRKS4_SB_EEE
libclangAnalysis.so.8:_ZN5clang15LocationContext13ProfileCommonERN4llvm16FoldingSetNodeIDENS0_11ContextKindEPNS_19AnalysisDeclContextEPKS0_PKv
libclangAnalysis.so.8:_ZN5clang15LocationContextD0Ev
libclangAnalysis.so.8:_ZN5clang15LocationContextD1Ev
libclangAnalysis.so.8:_ZN5clang15LocationContextD2Ev
libclangAnalysis.so.8:_ZN5clang15ManagedAnalysisD0Ev
libclangAnalysis.so.8:_ZN5clang15ManagedAnalysisD1Ev
libclangAnalysis.so.8:_ZN5clang15ManagedAnalysisD2Ev
libclangAnalysis.so.8:_ZN5clang15ProgramPointTagD0Ev
libclangAnalysis.so.8:_ZN5clang15ProgramPointTagD1Ev
libclangAnalysis.so.8:_ZN5clang15ProgramPointTagD2Ev
libclangAnalysis.so.8:_ZN5clang15VariablePattern12addVariablesEPKNS_4StmtE
libclangAnalysis.so.8:_ZN5clang15VariablePattern20addVariableOccurenceEPKNS_7VarDeclEPKNS_4StmtE
libclangAnalysis.so.8:_ZN5clang15VariablePattern23countPatternDifferencesERKS0_PNS0_19SuspiciousClonePairE
libclangAnalysis.so.8:_ZN5clang16PostOrderCFGView6anchorEv
libclangAnalysis.so.8:_ZN5clang16PostOrderCFGView6createERNS_19AnalysisDeclContextE
libclangAnalysis.so.8:_ZN5clang16PostOrderCFGView6getTagEv
libclangAnalysis.so.8:_ZN5clang16PostOrderCFGViewC1EPKNS_3CFGE
libclangAnalysis.so.8:_ZN5clang16PostOrderCFGViewC2EPKNS_3CFGE
libclangAnalysis.so.8:_ZN5clang17StackFrameContext7ProfileERN4llvm16FoldingSetNodeIDE
libclangAnalysis.so.8:_ZN5clang19AnalysisDeclContext12getParentMapEv
libclangAnalysis.so.8:_ZN5clang19AnalysisDeclContext13getCFGStmtMapEv
libclangAnalysis.so.8:_ZN5clang19AnalysisDeclContext13getStackFrameEPKNS_15LocationContextEPKNS_4StmtEPKNS_8CFGBlockEj
libclangAnalysis.so.8:_ZN5clang19AnalysisDeclContext15getAnalysisImplEPKv
libclangAnalysis.so.8:_ZN5clang19AnalysisDeclContext16isInStdNamespaceEPKNS_4DeclE
libclangAnalysis.so.8:_ZN5clang19AnalysisDeclContext17getUnoptimizedCFGEv
libclangAnalysis.so.8:_ZN5clang19AnalysisDeclContext22getReferencedBlockVarsEPKNS_9BlockDeclE
libclangAnalysis.so.8:_ZN5clang19AnalysisDeclContext25getBlockInvocationContextEPKNS_15LocationContextEPKNS_9BlockDeclEPKv
libclangAnalysis.so.8:_ZN5clang19AnalysisDeclContext25getCFGReachablityAnalysisEv
libclangAnalysis.so.8:_ZN5clang19AnalysisDeclContext25getLocationContextManagerEv
libclangAnalysis.so.8:_ZN5clang19AnalysisDeclContext29registerForcedBlockExpressionEPKNS_4StmtE
libclangAnalysis.so.8:_ZN5clang19AnalysisDeclContext31getBlockForRegisteredExpressionEPKNS_4StmtE
libclangAnalysis.so.8:_ZN5clang19AnalysisDeclContext6getCFGEv
libclangAnalysis.so.8:_ZN5clang19AnalysisDeclContext7dumpCFGEb
libclangAnalysis.so.8:_ZN5clang19AnalysisDeclContextC1EPNS_26AnalysisDeclContextManagerEPKNS_4DeclE
libclangAnalysis.so.8:_ZN5clang19AnalysisDeclContextC1EPNS_26AnalysisDeclContextManagerEPKNS_4DeclERKNS_3CFG12BuildOptionsE
libclangAnalysis.so.8:_ZN5clang19AnalysisDeclContextC2EPNS_26AnalysisDeclContextManagerEPKNS_4DeclE
libclangAnalysis.so.8:_ZN5clang19AnalysisDeclContextC2EPNS_26AnalysisDeclContextManagerEPKNS_4DeclERKNS_3CFG12BuildOptionsE
libclangAnalysis.so.8:_ZN5clang19AnalysisDeclContextD1Ev
libclangAnalysis.so.8:_ZN5clang19AnalysisDeclContextD2Ev
libclangAnalysis.so.8:_ZN5clang19ConstructionContext16createFromLayersERNS_17BumpVectorContextEPKNS_24ConstructionContextLayerE
libclangAnalysis.so.8:_ZN5clang19ConstructionContext30createBoundTemporaryFromLayersERNS_17BumpVectorContextEPKNS_20CXXBindTemporaryExprEPKNS_24ConstructionContextLayerE
libclangAnalysis.so.8:_ZN5clang19ConstructionContext37createMaterializedTemporaryFromLayersERNS_17BumpVectorContextEPKNS_24MaterializeTemporaryExprEPKNS_20CXXBindTemporaryExprEPKNS_24ConstructionContextLayerE
libclangAnalysis.so.8:_ZN5clang20ExprMutationAnalyzer12findMutationEPKNS_4DeclE
libclangAnalysis.so.8:_ZN5clang20ExprMutationAnalyzer12findMutationEPKNS_4ExprE
libclangAnalysis.so.8:_ZN5clang20ExprMutationAnalyzer13isUnevaluatedEPKNS_4ExprE
libclangAnalysis.so.8:_ZN5clang20ExprMutationAnalyzer14tryEachDeclRefEPKNS_4DeclEMS0_FPKNS_4StmtEPKNS_4ExprEE
libclangAnalysis.so.8:_ZN5clang20ExprMutationAnalyzer16findCastMutationEPKNS_4ExprE
libclangAnalysis.so.8:_ZN5clang20ExprMutationAnalyzer16findDeclMutationEN4llvm8ArrayRefINS_12ast_matchers10BoundNodesEEE
libclangAnalysis.so.8:_ZN5clang20ExprMutationAnalyzer16findExprMutationEN4llvm8ArrayRefINS_12ast_matchers10BoundNodesEEE
libclangAnalysis.so.8:_ZN5clang20ExprMutationAnalyzer18findDirectMutationEPKNS_4ExprE
libclangAnalysis.so.8:_ZN5clang20ExprMutationAnalyzer18findMemberMutationEPKNS_4ExprE
libclangAnalysis.so.8:_ZN5clang20ExprMutationAnalyzer19findPointeeMutationEPKNS_4DeclE
libclangAnalysis.so.8:_ZN5clang20ExprMutationAnalyzer19findPointeeMutationEPKNS_4ExprE
libclangAnalysis.so.8:_ZN5clang20ExprMutationAnalyzer20findMutationMemoizedEPKNS_4ExprEN4llvm8ArrayRefIMS0_FPKNS_4StmtES3_EEERNS4_8DenseMapIS3_S8_NS4_12DenseMapInfoIS3_EENS4_6detail12DenseMapPairIS3_S8_EEEE
libclangAnalysis.so.8:_ZN5clang20ExprMutationAnalyzer21findRangeLoopMutationEPKNS_4ExprE
libclangAnalysis.so.8:_ZN5clang20ExprMutationAnalyzer21findReferenceMutationEPKNS_4ExprE
libclangAnalysis.so.8:_ZN5clang20ExprMutationAnalyzer23findDeclPointeeMutationEN4llvm8ArrayRefINS_12ast_matchers10BoundNodesEEE
libclangAnalysis.so.8:_ZN5clang20ExprMutationAnalyzer23findExprPointeeMutationEN4llvm8ArrayRefINS_12ast_matchers10BoundNodesEEE
libclangAnalysis.so.8:_ZN5clang20ExprMutationAnalyzer23findFunctionArgMutationEPKNS_4ExprE
libclangAnalysis.so.8:_ZN5clang20ExprMutationAnalyzer24findArrayElementMutationEPKNS_4ExprE
libclangAnalysis.so.8:_ZN5clang20RelaxedLiveVariables6getTagEv
libclangAnalysis.so.8:_ZN5clang21SimpleProgramPointTagC1EN4llvm9StringRefES2_
libclangAnalysis.so.8:_ZN5clang21SimpleProgramPointTagC2EN4llvm9StringRefES2_
libclangAnalysis.so.8:_ZN5clang22BlockInvocationContext7ProfileERN4llvm16FoldingSetNodeIDE
libclangAnalysis.so.8:_ZN5clang22LocationContextManager13getStackFrameEPNS_19AnalysisDeclContextEPKNS_15LocationContextEPKNS_4StmtEPKNS_8CFGBlockEj
libclangAnalysis.so.8:_ZN5clang22LocationContextManager25getBlockInvocationContextEPNS_19AnalysisDeclContextEPKNS_15LocationContextEPKNS_9BlockDeclEPKv
libclangAnalysis.so.8:_ZN5clang22LocationContextManager5clearEv
libclangAnalysis.so.8:_ZN5clang22LocationContextManager8getScopeEPNS_19AnalysisDeclContextEPKNS_15LocationContextEPKNS_4StmtE
libclangAnalysis.so.8:_ZN5clang22LocationContextManagerD1Ev
libclangAnalysis.so.8:_ZN5clang22LocationContextManagerD2Ev
libclangAnalysis.so.8:_ZN5clang22UninitVariablesHandlerD0Ev
libclangAnalysis.so.8:_ZN5clang22UninitVariablesHandlerD1Ev
libclangAnalysis.so.8:_ZN5clang22UninitVariablesHandlerD2Ev
libclangAnalysis.so.8:_ZN5clang23MinComplexityConstraint23calculateStmtComplexityERKNS_12StmtSequenceEmRKNSt7__cxx1112basic_stringIcSt11char_traitsIcESaIcEEE
libclangAnalysis.so.8:_ZN5clang24ConstructionContextLayer6createERNS_17BumpVectorContextERKNS_23ConstructionContextItemEPKS0_
libclangAnalysis.so.8:_ZN5clang25FilenamePatternConstraint15isAutoGeneratedERKN4llvm11SmallVectorINS_12StmtSequenceELj8EEE
libclangAnalysis.so.8:_ZN5clang26AnalysisDeclContextManager10getContextEPKNS_4DeclE
libclangAnalysis.so.8:_ZN5clang26AnalysisDeclContextManager11getBodyFarmEv
libclangAnalysis.so.8:_ZN5clang26AnalysisDeclContextManager5clearEv
libclangAnalysis.so.8:_ZN5clang26AnalysisDeclContextManagerC1ERNS_10ASTContextEbbbbbbbbbbbbPNS_12CodeInjectorE
libclangAnalysis.so.8:_ZN5clang26AnalysisDeclContextManagerC2ERNS_10ASTContextEbbbbbbbbbbbbPNS_12CodeInjectorE
libclangAnalysis.so.8:_ZN5clang26OnlyLargestCloneConstraint9constrainERSt6vectorIN4llvm11SmallVectorINS_12StmtSequenceELj8EEESaIS5_EE
libclangAnalysis.so.8:_ZN5clang28FunctionParmMutationAnalyzer12findMutationEPKNS_11ParmVarDeclE
libclangAnalysis.so.8:_ZN5clang28FunctionParmMutationAnalyzerC1ERKNS_12FunctionDeclERNS_10ASTContextE
libclangAnalysis.so.8:_ZN5clang28FunctionParmMutationAnalyzerC2ERKNS_12FunctionDeclERNS_10ASTContextE
libclangAnalysis.so.8:_ZN5clang33MatchingVariablePatternConstraint9constrainERSt6vectorIN4llvm11SmallVectorINS_12StmtSequenceELj8EEESaIS5_EE
libclangAnalysis.so.8:_ZN5clang33runUninitializedVariablesAnalysisERKNS_11DeclContextERKNS_3CFGERNS_19AnalysisDeclContextERNS_22UninitVariablesHandlerERNS_28UninitVariablesAnalysisStatsE
libclangAnalysis.so.8:_ZN5clang34RecursiveCloneTypeIIHashConstraint9constrainERSt6vectorIN4llvm11SmallVectorINS_12StmtSequenceELj8EEESaIS5_EE
libclangAnalysis.so.8:_ZN5clang35CFGReverseBlockReachabilityAnalysis11isReachableEPKNS_8CFGBlockES3_
libclangAnalysis.so.8:_ZN5clang35CFGReverseBlockReachabilityAnalysis15mapReachabilityEPKNS_8CFGBlockE
libclangAnalysis.so.8:_ZN5clang35CFGReverseBlockReachabilityAnalysisC1ERKNS_3CFGE
libclangAnalysis.so.8:_ZN5clang35CFGReverseBlockReachabilityAnalysisC2ERKNS_3CFGE
libclangAnalysis.so.8:_ZN5clang36RecursiveCloneTypeIIVerifyConstraint9constrainERSt6vectorIN4llvm11SmallVectorINS_12StmtSequenceELj8EEESaIS5_EE
libclangAnalysis.so.8:_ZN5clang3CFG11createBlockEv
libclangAnalysis.so.8:_ZN5clang3CFG8buildCFGEPKNS_4DeclEPNS_4StmtEPNS_10ASTContextERKNS0_12BuildOptionsE
libclangAnalysis.so.8:_ZN5clang4ento14coreFoundation13isCFObjectRefENS_8QualTypeE
libclangAnalysis.so.8:_ZN5clang4ento14coreFoundation17followsCreateRuleEPKNS_12FunctionDeclE
libclangAnalysis.so.8:_ZN5clang4ento5cocoa16isCocoaObjectRefENS_8QualTypeE
libclangAnalysis.so.8:_ZN5clang4ento5cocoa9isRefTypeENS_8QualTypeEN4llvm9StringRefES4_
libclangAnalysis.so.8:_ZN5clang8BodyFarm7getBodyEPKNS_12FunctionDeclE
libclangAnalysis.so.8:_ZN5clang8BodyFarm7getBodyEPKNS_14ObjCMethodDeclE
libclangAnalysis.so.8:_ZN5clang8CFGBlock10FilterEdgeERKNS0_13FilterOptionsEPKS0_S5_
libclangAnalysis.so.8:_ZN5clang8CFGBlock12addSuccessorENS0_13AdjacentBlockERNS_17BumpVectorContextE
libclangAnalysis.so.8:_ZN5clang8CFGBlock13AdjacentBlockC1EPS0_S2_
libclangAnalysis.so.8:_ZN5clang8CFGBlock13AdjacentBlockC1EPS0_b
libclangAnalysis.so.8:_ZN5clang8CFGBlock13AdjacentBlockC2EPS0_S2_
libclangAnalysis.so.8:_ZN5clang8CFGBlock13AdjacentBlockC2EPS0_b
libclangAnalysis.so.8:_ZN5clang8CFGBlock22getTerminatorConditionEb
libclangAnalysis.so.8:_ZN5clang8consumed16ConsumedAnalyzer10splitStateEPKNS_8CFGBlockERKNS0_19ConsumedStmtVisitorE
libclangAnalysis.so.8:_ZN5clang8consumed16ConsumedAnalyzer28determineExpectedReturnStateERNS_19AnalysisDeclContextEPKNS_12FunctionDeclE
libclangAnalysis.so.8:_ZN5clang8consumed16ConsumedAnalyzer3runERNS_19AnalysisDeclContextE
libclangAnalysis.so.8:_ZN5clang8consumed16ConsumedStateMap15markUnreachableEv
libclangAnalysis.so.8:_ZN5clang8consumed16ConsumedStateMap16clearTemporariesEv
libclangAnalysis.so.8:_ZN5clang8consumed16ConsumedStateMap19intersectAtLoopHeadEPKNS_8CFGBlockES4_PKS1_RNS0_27ConsumedWarningsHandlerBaseE
libclangAnalysis.so.8:_ZN5clang8consumed16ConsumedStateMap6removeEPKNS_20CXXBindTemporaryExprE
libclangAnalysis.so.8:_ZN5clang8consumed16ConsumedStateMap8setStateEPKNS_20CXXBindTemporaryExprENS0_13ConsumedStateE
libclangAnalysis.so.8:_ZN5clang8consumed16ConsumedStateMap8setStateEPKNS_7VarDeclENS0_13ConsumedStateE
libclangAnalysis.so.8:_ZN5clang8consumed16ConsumedStateMap9intersectERKS1_
libclangAnalysis.so.8:_ZN5clang8consumed17ConsumedBlockInfo10borrowInfoEPKNS_8CFGBlockE
libclangAnalysis.so.8:_ZN5clang8consumed17ConsumedBlockInfo10isBackEdgeEPKNS_8CFGBlockES4_
libclangAnalysis.so.8:_ZN5clang8consumed17ConsumedBlockInfo11discardInfoEPKNS_8CFGBlockE
libclangAnalysis.so.8:_ZN5clang8consumed17ConsumedBlockInfo16isBackEdgeTargetEPKNS_8CFGBlockE
libclangAnalysis.so.8:_ZN5clang8consumed17ConsumedBlockInfo19allBackEdgesVisitedEPKNS_8CFGBlockES4_
libclangAnalysis.so.8:_ZN5clang8consumed17ConsumedBlockInfo7addInfoEPKNS_8CFGBlockEPNS0_16ConsumedStateMapERSt10unique_ptrIS5_St14default_deleteIS5_EE
libclangAnalysis.so.8:_ZN5clang8consumed17ConsumedBlockInfo7addInfoEPKNS_8CFGBlockESt10unique_ptrINS0_16ConsumedStateMapESt14default_deleteIS6_EE
libclangAnalysis.so.8:_ZN5clang8consumed17ConsumedBlockInfo7getInfoEPKNS_8CFGBlockE
libclangAnalysis.so.8:_ZN5clang8consumed19ConsumedStmtVisitor10handleCallEPKNS_8CallExprEPKNS_4ExprEPKNS_12FunctionDeclE
libclangAnalysis.so.8:_ZN5clang8consumed19ConsumedStmtVisitor11forwardInfoEPKNS_4ExprES4_
libclangAnalysis.so.8:_ZN5clang8consumed19ConsumedStmtVisitor12VisitVarDeclEPKNS_7VarDeclE
libclangAnalysis.so.8:_ZN5clang8consumed19ConsumedStmtVisitor13VisitCallExprEPKNS_8CallExprE
libclangAnalysis.so.8:_ZN5clang8consumed19ConsumedStmtVisitor13VisitCastExprEPKNS_8CastExprE
libclangAnalysis.so.8:_ZN5clang8consumed19ConsumedStmtVisitor13VisitDeclStmtEPKNS_8DeclStmtE
libclangAnalysis.so.8:_ZN5clang8consumed19ConsumedStmtVisitor15VisitMemberExprEPKNS_10MemberExprE
libclangAnalysis.so.8:_ZN5clang8consumed19ConsumedStmtVisitor15VisitReturnStmtEPKNS_10ReturnStmtE
libclangAnalysis.so.8:_ZN5clang8consumed19ConsumedStmtVisitor16VisitDeclRefExprEPKNS_11DeclRefExprE
libclangAnalysis.so.8:_ZN5clang8consumed19ConsumedStmtVisitor16VisitParmVarDeclEPKNS_11ParmVarDeclE
libclangAnalysis.so.8:_ZN5clang8consumed19ConsumedStmtVisitor16checkCallabilityERKNS0_15PropagationInfoEPKNS_12FunctionDeclENS_14SourceLocationE
libclangAnalysis.so.8:_ZN5clang8consumed19ConsumedStmtVisitor18VisitUnaryOperatorEPKNS_13UnaryOperatorE
libclangAnalysis.so.8:_ZN5clang8consumed19ConsumedStmtVisitor19VisitBinaryOperatorEPKNS_14BinaryOperatorE
libclangAnalysis.so.8:_ZN5clang8consumed19ConsumedStmtVisitor19propagateReturnTypeEPKNS_4ExprEPKNS_12FunctionDeclE
libclangAnalysis.so.8:_ZN5clang8consumed19ConsumedStmtVisitor21VisitCXXConstructExprEPKNS_16CXXConstructExprE
libclangAnalysis.so.8:_ZN5clang8consumed19ConsumedStmtVisitor22VisitCXXMemberCallExprEPKNS_17CXXMemberCallExprE
libclangAnalysis.so.8:_ZN5clang8consumed19ConsumedStmtVisitor24VisitCXXOperatorCallExprEPKNS_19CXXOperatorCallExprE
libclangAnalysis.so.8:_ZN5clang8consumed19ConsumedStmtVisitor25VisitCXXBindTemporaryExprEPKNS_20CXXBindTemporaryExprE
libclangAnalysis.so.8:_ZN5clang8consumed19ConsumedStmtVisitor29VisitMaterializeTemporaryExprEPKNS_24MaterializeTemporaryExprE
libclangAnalysis.so.8:_ZN5clang8consumed19ConsumedStmtVisitor7getInfoEPKNS_4ExprE
libclangAnalysis.so.8:_ZN5clang8consumed19ConsumedStmtVisitor7setInfoEPKNS_4ExprENS0_13ConsumedStateE
libclangAnalysis.so.8:_ZN5clang8consumed19ConsumedStmtVisitor8copyInfoEPKNS_4ExprES4_NS0_13ConsumedStateE
libclangAnalysis.so.8:_ZN5clang8consumed27ConsumedWarningsHandlerBaseD0Ev
libclangAnalysis.so.8:_ZN5clang8consumed27ConsumedWarningsHandlerBaseD1Ev
libclangAnalysis.so.8:_ZN5clang8consumed27ConsumedWarningsHandlerBaseD2Ev
libclangAnalysis.so.8:_ZN5clang9CallGraph14addNodeForDeclEPNS_4DeclEb
libclangAnalysis.so.8:_ZN5clang9CallGraph14includeInGraphEPKNS_4DeclE
libclangAnalysis.so.8:_ZN5clang9CallGraph15getOrInsertNodeEPNS_4DeclE
libclangAnalysis.so.8:_ZN5clang9CallGraph17addNodesForBlocksEPNS_11DeclContextE
libclangAnalysis.so.8:_ZN5clang9CallGraphC1Ev
libclangAnalysis.so.8:_ZN5clang9CallGraphC2Ev
libclangAnalysis.so.8:_ZN5clang9CallGraphD1Ev
libclangAnalysis.so.8:_ZN5clang9CallGraphD2Ev
libclangAnalysis.so.8:_ZNK5clang12ProgramPoint4dumpEv
libclangAnalysis.so.8:_ZNK5clang12ProgramPoint5printEN4llvm9StringRefERNS1_11raw_ostreamE
libclangAnalysis.so.8:_ZNK5clang12StmtSequence11getBeginLocEv
libclangAnalysis.so.8:_ZNK5clang12StmtSequence13getASTContextEv
libclangAnalysis.so.8:_ZNK5clang12StmtSequence14getSourceRangeEv
libclangAnalysis.so.8:_ZNK5clang12StmtSequence3endEv
libclangAnalysis.so.8:_ZNK5clang12StmtSequence5beginEv
libclangAnalysis.so.8:_ZNK5clang12StmtSequence8containsERKS0_
libclangAnalysis.so.8:_ZNK5clang12StmtSequence9getEndLocEv
libclangAnalysis.so.8:_ZNK5clang13CallGraphNode4dumpEv
libclangAnalysis.so.8:_ZNK5clang13CallGraphNode5printERN4llvm11raw_ostreamE
libclangAnalysis.so.8:_ZNK5clang13LiveVariables14LivenessValues6equalsERKS1_
libclangAnalysis.so.8:_ZNK5clang13LiveVariables14LivenessValues6isLiveEPKNS_4StmtE
libclangAnalysis.so.8:_ZNK5clang13LiveVariables14LivenessValues6isLiveEPKNS_7VarDeclE
libclangAnalysis.so.8:_ZNK5clang15CFGImplicitDtor10isNoReturnERNS_10ASTContextE
libclangAnalysis.so.8:_ZNK5clang15CFGImplicitDtor17getDestructorDeclERNS_10ASTContextE
libclangAnalysis.so.8:_ZNK5clang15LocationContext10inTopFrameEv
libclangAnalysis.so.8:_ZNK5clang15LocationContext10isParentOfEPKS0_
libclangAnalysis.so.8:_ZNK5clang15LocationContext13getStackFrameEv
libclangAnalysis.so.8:_ZNK5clang15LocationContext9dumpStackERN4llvm11raw_ostreamENS1_9StringRefEPKcS6_St8functionIFvPKS0_EE
libclangAnalysis.so.8:_ZNK5clang15LocationContext9dumpStackEv
libclangAnalysis.so.8:_ZNK5clang16PostOrderCFGView17BlockOrderCompareclEPKNS_8CFGBlockES4_
libclangAnalysis.so.8:_ZNK5clang19AnalysisDeclContext11getSelfDeclEv
libclangAnalysis.so.8:_ZNK5clang19AnalysisDeclContext21isBodyAutosynthesizedEv
libclangAnalysis.so.8:_ZNK5clang19AnalysisDeclContext34isBodyAutosynthesizedFromModelFileEv
libclangAnalysis.so.8:_ZNK5clang19AnalysisDeclContext7getBodyERb
libclangAnalysis.so.8:_ZNK5clang19AnalysisDeclContext7getBodyEv
libclangAnalysis.so.8:_ZNK5clang21SimpleProgramPointTag17getTagDescriptionEv
libclangAnalysis.so.8:_ZNK5clang24ConstructionContextLayer26isStrictlyMoreSpecificThanEPKS0_
libclangAnalysis.so.8:_ZNK5clang3CFG4dumpERKNS_11LangOptionsEb
libclangAnalysis.so.8:_ZNK5clang3CFG5printERN4llvm11raw_ostreamERKNS_11LangOptionsEb
libclangAnalysis.so.8:_ZNK5clang3CFG7viewCFGERKNS_11LangOptionsE
libclangAnalysis.so.8:_ZNK5clang8CFGBlock15printTerminatorERN4llvm11raw_ostreamERKNS_11LangOptionsE
libclangAnalysis.so.8:_ZNK5clang8CFGBlock4dumpEPKNS_3CFGERKNS_11LangOptionsEb
libclangAnalysis.so.8:_ZNK5clang8CFGBlock4dumpEv
libclangAnalysis.so.8:_ZNK5clang8CFGBlock5printERN4llvm11raw_ostreamEPKNS_3CFGERKNS_11LangOptionsEb
libclangAnalysis.so.8:_ZNK5clang8consumed16ConsumedStateMap29checkParamsForReturnTypestateENS_14SourceLocationERNS0_27ConsumedWarningsHandlerBaseE
libclangAnalysis.so.8:_ZNK5clang8consumed16ConsumedStateMap8getStateEPKNS_20CXXBindTemporaryExprE
libclangAnalysis.so.8:_ZNK5clang8consumed16ConsumedStateMap8getStateEPKNS_7VarDeclE
libclangAnalysis.so.8:_ZNK5clang8consumed16ConsumedStateMapneEPKS1_
libclangAnalysis.so.8:_ZNK5clang9CallGraph4dumpEv
libclangAnalysis.so.8:_ZNK5clang9CallGraph5printERN4llvm11raw_ostreamE
libclangAnalysis.so.8:_ZNK5clang9CallGraph7getNodeEPKNS_4DeclE
libclangAnalysis.so.8:_ZNK5clang9CallGraph9viewGraphEv
libclangBasic.so.8:_ZN4llvm12DenseMapInfoIN5clang8SelectorEE12getHashValueES2_
libclangBasic.so.8:_ZN5clang10TargetInfo11getTypeNameENS0_7IntTypeE
libclangBasic.so.8:_ZN5clang10TargetInfo12isTypeSignedENS0_7IntTypeE
libclangBasic.so.8:_ZN5clang10TargetInfo16CreateTargetInfoERNS_17DiagnosticsEngineERKSt10shared_ptrINS_13TargetOptionsEE
libclangBasic.so.8:_ZN5clang10TargetInfo21getTypeFormatModifierENS0_7IntTypeE
libclangBasic.so.8:_ZN5clang10TargetInfo6adjustERNS_11LangOptionsE
libclangBasic.so.8:_ZN5clang10TargetInfoC2ERKN4llvm6TripleE
libclangBasic.so.8:_ZN5clang10TargetInfoD0Ev
libclangBasic.so.8:_ZN5clang10TargetInfoD1Ev
libclangBasic.so.8:_ZN5clang10TargetInfoD2Ev
libclangBasic.so.8:_ZN5clang11FileManager12getDirectoryEN4llvm9StringRefEb
libclangBasic.so.8:_ZN5clang11FileManager12getStatValueEN4llvm9StringRefERNS_8FileDataEbPSt10unique_ptrINS1_3vfs4FileESt14default_deleteIS7_EE
libclangBasic.so.8:_ZN5clang11FileManager12setStatCacheESt10unique_ptrINS_19FileSystemStatCacheESt14default_deleteIS2_EE
libclangBasic.so.8:_ZN5clang11FileManager14clearStatCacheEv
libclangBasic.so.8:_ZN5clang11FileManager14getVirtualFileEN4llvm9StringRefEll
libclangBasic.so.8:_ZN5clang11FileManager15invalidateCacheEPKNS_9FileEntryE
libclangBasic.so.8:_ZN5clang11FileManager15modifyFileEntryEPNS_9FileEntryEll
libclangBasic.so.8:_ZN5clang11FileManager16fillRealPathNameEPNS_9FileEntryEN4llvm9StringRefE
libclangBasic.so.8:_ZN5clang11FileManager16getBufferForFileEN4llvm9StringRefEb
libclangBasic.so.8:_ZN5clang11FileManager16getBufferForFileEPKNS_9FileEntryEbb
libclangBasic.so.8:_ZN5clang11FileManager16getCanonicalNameEPKNS_14DirectoryEntryE
libclangBasic.so.8:_ZN5clang11FileManager21getNoncachedStatValueEN4llvm9StringRefERNS1_3vfs6StatusE
libclangBasic.so.8:_ZN5clang11FileManager25addAncestorsAsVirtualDirsEN4llvm9StringRefE
libclangBasic.so.8:_ZN5clang11FileManager7getFileEN4llvm9StringRefEbb
libclangBasic.so.8:_ZN5clang11FileManagerC1ERKNS_17FileSystemOptionsEN4llvm18IntrusiveRefCntPtrINS4_3vfs10FileSystemEEE
libclangBasic.so.8:_ZN5clang11FileManagerC2ERKNS_17FileSystemOptionsEN4llvm18IntrusiveRefCntPtrINS4_3vfs10FileSystemEEE
libclangBasic.so.8:_ZN5clang11FileManagerD1Ev
libclangBasic.so.8:_ZN5clang11FileManagerD2Ev
libclangBasic.so.8:_ZN5clang11LangOptions22resetNonModularOptionsEv
libclangBasic.so.8:_ZN5clang11LangOptionsC1Ev
libclangBasic.so.8:_ZN5clang11LangOptionsC2Ev
libclangBasic.so.8:_ZN5clang11ObjCRuntime8tryParseEN4llvm9StringRefE
libclangBasic.so.8:_ZN5clang12APFixedPoint6getMaxERKNS_19FixedPointSemanticsE
libclangBasic.so.8:_ZN5clang12APFixedPoint6getMinERKNS_19FixedPointSemanticsE
libclangBasic.so.8:_ZN5clang12hasAttributeENS_10AttrSyntaxEPKNS_14IdentifierInfoES3_RKNS_10TargetInfoERKNS_11LangOptionsE
libclangBasic.so.8:_ZN5clang13DiagnosticIDs13isBuiltinNoteEj
libclangBasic.so.8:_ZN5clang13DiagnosticIDs15getCustomDiagIDENS0_5LevelEN4llvm9StringRefE
libclangBasic.so.8:_ZN5clang13DiagnosticIDs15isARCDiagnosticEj
libclangBasic.so.8:_ZN5clang13DiagnosticIDs16getNearestOptionENS_4diag6FlavorEN4llvm9StringRefE
libclangBasic.so.8:_ZN5clang13DiagnosticIDs17getAllDiagnosticsENS_4diag6FlavorERSt6vectorIjSaIjEE
libclangBasic.so.8:_ZN5clang13DiagnosticIDs18getDiagnosticFlagsB5cxx11Ev
libclangBasic.so.8:_ZN5clang13DiagnosticIDs21getCategoryNameFromIDEj
libclangBasic.so.8:_ZN5clang13DiagnosticIDs21getNumberOfCategoriesEv
libclangBasic.so.8:_ZN5clang13DiagnosticIDs22isBuiltinExtensionDiagEjRb
libclangBasic.so.8:_ZN5clang13DiagnosticIDs23getWarningOptionForDiagEj
libclangBasic.so.8:_ZN5clang13DiagnosticIDs23isDefaultMappingAsErrorEj
libclangBasic.so.8:_ZN5clang13DiagnosticIDs24getCategoryNumberForDiagEj
libclangBasic.so.8:_ZN5clang13DiagnosticIDs27getDiagnosticSFINAEResponseEj
libclangBasic.so.8:_ZN5clang13DiagnosticIDs27isBuiltinWarningOrExtensionEj
libclangBasic.so.8:_ZN5clang13DiagnosticIDsC1Ev
libclangBasic.so.8:_ZN5clang13DiagnosticIDsC2Ev
libclangBasic.so.8:_ZN5clang13DiagnosticIDsD1Ev
libclangBasic.so.8:_ZN5clang13DiagnosticIDsD2Ev
libclangBasic.so.8:_ZN5clang13LineTableInfo11AddLineNoteENS_6FileIDEjjijNS_6SrcMgr18CharacteristicKindE
libclangBasic.so.8:_ZN5clang13LineTableInfo20FindNearestLineEntryENS_6FileIDEj
libclangBasic.so.8:_ZN5clang13LineTableInfo22getLineTableFilenameIDEN4llvm9StringRefE
libclangBasic.so.8:_ZN5clang13LineTableInfo8AddEntryENS_6FileIDERKSt6vectorINS_9LineEntryESaIS3_EE
libclangBasic.so.8:_ZN5clang13SelectorTable11getSelectorEjPPNS_14IdentifierInfoE
libclangBasic.so.8:_ZN5clang13SelectorTable19constructSetterNameEN4llvm9StringRefE
libclangBasic.so.8:_ZN5clang13SelectorTable23constructSetterSelectorERNS_15IdentifierTableERS0_PKNS_14IdentifierInfoE
libclangBasic.so.8:_ZN5clang13SelectorTable33getPropertyNameFromSetterSelectorB5cxx11ENS_8SelectorE
libclangBasic.so.8:_ZN5clang13SelectorTableC1Ev
libclangBasic.so.8:_ZN5clang13SelectorTableC2Ev
libclangBasic.so.8:_ZN5clang13SelectorTableD1Ev
libclangBasic.so.8:_ZN5clang13SelectorTableD2Ev
libclangBasic.so.8:_ZN5clang13SourceManager11AddLineNoteENS_14SourceLocationEjibbNS_6SrcMgr18CharacteristicKindE
libclangBasic.so.8:_ZN5clang13SourceManager12createFileIDEPKNS_6SrcMgr12ContentCacheENS_14SourceLocationENS1_18CharacteristicKindEij
libclangBasic.so.8:_ZN5clang13SourceManager12getLineTableEv
libclangBasic.so.8:_ZN5clang13SourceManager13clearIDTablesEv
libclangBasic.so.8:_ZN5clang13SourceManager18createExpansionLocENS_14SourceLocationES1_S1_jbij
libclangBasic.so.8:_ZN5clang13SourceManager18setFileIsTransientEPKNS_9FileEntryE
libclangBasic.so.8:_ZN5clang13SourceManager19createTokenSplitLocENS_14SourceLocationES1_S1_
libclangBasic.so.8:_ZN5clang13SourceManager19initializeForReplayERKS0_
libclangBasic.so.8:_ZN5clang13SourceManager20overrideFileContentsEPKNS_9FileEntryEPN4llvm12MemoryBufferEb
libclangBasic.so.8:_ZN5clang13SourceManager20overrideFileContentsEPKNS_9FileEntryES3_
libclangBasic.so.8:_ZN5clang13SourceManager22createExpansionLocImplERKNS_6SrcMgr13ExpansionInfoEjij
libclangBasic.so.8:_ZN5clang13SourceManager22getLineTableFilenameIDEN4llvm9StringRefE
libclangBasic.so.8:_ZN5clang13SourceManager22getMemoryBufferForFileEPKNS_9FileEntryEPb
libclangBasic.so.8:_ZN5clang13SourceManager23getOrCreateContentCacheEPKNS_9FileEntryEb
libclangBasic.so.8:_ZN5clang13SourceManager25AllocateLoadedSLocEntriesEjj
libclangBasic.so.8:_ZN5clang13SourceManager26createMacroArgExpansionLocENS_14SourceLocationES1_j
libclangBasic.so.8:_ZN5clang13SourceManager27createMemBufferContentCacheEPN4llvm12MemoryBufferEb
libclangBasic.so.8:_ZN5clang13SourceManager27disableFileContentsOverrideEPKNS_9FileEntryE
libclangBasic.so.8:_ZN5clang13SourceManagerC1ERNS_17DiagnosticsEngineERNS_11FileManagerEb
libclangBasic.so.8:_ZN5clang13SourceManagerC2ERNS_17DiagnosticsEngineERNS_11FileManagerEb
libclangBasic.so.8:_ZN5clang13SourceManagerD1Ev
libclangBasic.so.8:_ZN5clang13SourceManagerD2Ev
libclangBasic.so.8:_ZN5clang14CodeGenOptionsC1Ev
libclangBasic.so.8:_ZN5clang14CodeGenOptionsC2Ev
libclangBasic.so.8:_ZN5clang15IdentifierTable11AddKeywordsERKNS_11LangOptionsE
libclangBasic.so.8:_ZN5clang15IdentifierTableC1EPNS_20IdentifierInfoLookupE
libclangBasic.so.8:_ZN5clang15IdentifierTableC1ERKNS_11LangOptionsEPNS_20IdentifierInfoLookupE
libclangBasic.so.8:_ZN5clang15IdentifierTableC2EPNS_20IdentifierInfoLookupE
libclangBasic.so.8:_ZN5clang15IdentifierTableC2ERKNS_11LangOptionsEPNS_20IdentifierInfoLookupE
libclangBasic.so.8:_ZN5clang15getLLVMRevisionB5cxx11Ev
libclangBasic.so.8:_ZN5clang15isOpenMPPrivateENS_16OpenMPClauseKindE
libclangBasic.so.8:_ZN5clang16CudaArchToStringENS_8CudaArchE
libclangBasic.so.8:_ZN5clang16StoredDiagnosticC1ENS_17DiagnosticsEngine5LevelERKNS_10DiagnosticE
libclangBasic.so.8:_ZN5clang16StoredDiagnosticC1ENS_17DiagnosticsEngine5LevelEjN4llvm9StringRefE
libclangBasic.so.8:_ZN5clang16StoredDiagnosticC1ENS_17DiagnosticsEngine5LevelEjN4llvm9StringRefENS_13FullSourceLocENS3_8ArrayRefINS_15CharSourceRangeEEENS6_INS_9FixItHintEEE
libclangBasic.so.8:_ZN5clang16StoredDiagnosticC2ENS_17DiagnosticsEngine5LevelERKNS_10DiagnosticE
libclangBasic.so.8:_ZN5clang16StoredDiagnosticC2ENS_17DiagnosticsEngine5LevelEjN4llvm9StringRefE
libclangBasic.so.8:_ZN5clang16StoredDiagnosticC2ENS_17DiagnosticsEngine5LevelEjN4llvm9StringRefENS_13FullSourceLocENS3_8ArrayRefINS_15CharSourceRangeEEENS6_INS_9FixItHintEEE
libclangBasic.so.8:_ZN5clang16StringToCudaArchEN4llvm9StringRefE
libclangBasic.so.8:_ZN5clang16VisibleModuleSet10setVisibleEPNS_6ModuleENS_14SourceLocationEN4llvm12function_refIFvS2_EEENS5_IFvNS4_8ArrayRefIS2_EES2_NS4_9StringRefEEEE
libclangBasic.so.8:_ZN5clang16getClangRevisionB5cxx11Ev
libclangBasic.so.8:_ZN5clang17DiagnosticsEngine11popMappingsENS_14SourceLocationE
libclangBasic.so.8:_ZN5clang17DiagnosticsEngine11setSeverityEjNS_4diag8SeverityENS_14SourceLocationE
libclangBasic.so.8:_ZN5clang17DiagnosticsEngine12DiagStateMap11appendFirstEPNS0_9DiagStateE
libclangBasic.so.8:_ZN5clang17DiagnosticsEngine12DiagStateMap6appendERNS_13SourceManagerENS_14SourceLocationEPNS0_9DiagStateE
libclangBasic.so.8:_ZN5clang17DiagnosticsEngine12pushMappingsENS_14SourceLocationE
libclangBasic.so.8:_ZN5clang17DiagnosticsEngine13ReportDelayedEv
libclangBasic.so.8:_ZN5clang17DiagnosticsEngine17setSeverityForAllENS_4diag6FlavorENS1_8SeverityENS_14SourceLocationE
libclangBasic.so.8:_ZN5clang17DiagnosticsEngine18PushDiagStatePointEPNS0_9DiagStateENS_14SourceLocationE
libclangBasic.so.8:_ZN5clang17DiagnosticsEngine19setSeverityForGroupENS_4diag6FlavorEN4llvm9StringRefENS1_8SeverityENS_14SourceLocationE
libclangBasic.so.8:_ZN5clang17DiagnosticsEngine20SetDelayedDiagnosticEjN4llvm9StringRefES2_
libclangBasic.so.8:_ZN5clang17DiagnosticsEngine21EmitCurrentDiagnosticEb
libclangBasic.so.8:_ZN5clang17DiagnosticsEngine30setDiagnosticGroupErrorAsFatalEN4llvm9StringRefEb
libclangBasic.so.8:_ZN5clang17DiagnosticsEngine32setDiagnosticGroupWarningAsErrorEN4llvm9StringRefEb
libclangBasic.so.8:_ZN5clang17DiagnosticsEngine5ResetEv
libclangBasic.so.8:_ZN5clang17DiagnosticsEngine6ReportERKNS_16StoredDiagnosticE
libclangBasic.so.8:_ZN5clang17DiagnosticsEngine9DiagState15getOrAddMappingEj
libclangBasic.so.8:_ZN5clang17DiagnosticsEngine9setClientEPNS_18DiagnosticConsumerEb
libclangBasic.so.8:_ZN5clang17DiagnosticsEngineC1EN4llvm18IntrusiveRefCntPtrINS_13DiagnosticIDsEEENS2_INS_17DiagnosticOptionsEEEPNS_18DiagnosticConsumerEb
libclangBasic.so.8:_ZN5clang17DiagnosticsEngineC2EN4llvm18IntrusiveRefCntPtrINS_13DiagnosticIDsEEENS2_INS_17DiagnosticOptionsEEEPNS_18DiagnosticConsumerEb
libclangBasic.so.8:_ZN5clang17DiagnosticsEngineD1Ev
libclangBasic.so.8:_ZN5clang17DiagnosticsEngineD2Ev
libclangBasic.so.8:_ZN5clang17MemorizeStatCalls7getStatEN4llvm9StringRefERNS_8FileDataEbPSt10unique_ptrINS1_3vfs4FileESt14default_deleteIS7_EERNS6_10FileSystemE
libclangBasic.so.8:_ZN5clang17MemoryBufferCache12lookupBufferEN4llvm9StringRefE
libclangBasic.so.8:_ZN5clang17MemoryBufferCache13isBufferFinalEN4llvm9StringRefE
libclangBasic.so.8:_ZN5clang17MemoryBufferCache17tryToRemoveBufferEN4llvm9StringRefE
libclangBasic.so.8:_ZN5clang17MemoryBufferCache22finalizeCurrentBuffersEv
libclangBasic.so.8:_ZN5clang17MemoryBufferCache9addBufferEN4llvm9StringRefESt10unique_ptrINS1_12MemoryBufferESt14default_deleteIS4_EE
libclangBasic.so.8:_ZN5clang17PartialDiagnostic16StorageAllocatorC1Ev
libclangBasic.so.8:_ZN5clang17PartialDiagnostic16StorageAllocatorC2Ev
libclangBasic.so.8:_ZN5clang17PartialDiagnostic16StorageAllocatorD1Ev
libclangBasic.so.8:_ZN5clang17PartialDiagnostic16StorageAllocatorD2Ev
libclangBasic.so.8:_ZN5clang18DiagnosticConsumer16HandleDiagnosticENS_17DiagnosticsEngine5LevelERKNS_10DiagnosticE
libclangBasic.so.8:_ZN5clang18DiagnosticConsumerD0Ev
libclangBasic.so.8:_ZN5clang18DiagnosticConsumerD1Ev
libclangBasic.so.8:_ZN5clang18DiagnosticConsumerD2Ev
libclangBasic.so.8:_ZN5clang18IdentifierIteratorD0Ev
libclangBasic.so.8:_ZN5clang18IdentifierIteratorD1Ev
libclangBasic.so.8:_ZN5clang18IdentifierIteratorD2Ev
libclangBasic.so.8:_ZN5clang18SanitizerBlacklistC1ERKSt6vectorINSt7__cxx1112basic_stringIcSt11char_traitsIcESaIcEEESaIS7_EERNS_13SourceManagerE
libclangBasic.so.8:_ZN5clang18SanitizerBlacklistC2ERKSt6vectorINSt7__cxx1112basic_stringIcSt11char_traitsIcESaIcEEESaIS7_EERNS_13SourceManagerE
libclangBasic.so.8:_ZN5clang18XRayFunctionFilterC1EN4llvm8ArrayRefINSt7__cxx1112basic_stringIcSt11char_traitsIcESaIcEEEEES9_S9_RNS_13SourceManagerE
libclangBasic.so.8:_ZN5clang18XRayFunctionFilterC2EN4llvm8ArrayRefINSt7__cxx1112basic_stringIcSt11char_traitsIcESaIcEEEEES9_S9_RNS_13SourceManagerE
libclangBasic.so.8:_ZN5clang18getBinOpPrecedenceENS_3tok9TokenKindEbb
libclangBasic.so.8:_ZN5clang19CudaVersionToStringENS_11CudaVersionE
libclangBasic.so.8:_ZN5clang19FileSystemStatCache3getEN4llvm9StringRefERNS_8FileDataEbPSt10unique_ptrINS1_3vfs4FileESt14default_deleteIS7_EEPS0_RNS6_10FileSystemE
libclangBasic.so.8:_ZN5clang19FileSystemStatCache6anchorEv
libclangBasic.so.8:_ZN5clang19getClangFullVersionB5cxx11Ev
libclangBasic.so.8:_ZN5clang19getOpenMPClauseKindEN4llvm9StringRefE
libclangBasic.so.8:_ZN5clang19getOpenMPClauseNameENS_16OpenMPClauseKindE
libclangBasic.so.8:_ZN5clang19getOperatorSpellingENS_22OverloadedOperatorKindE
libclangBasic.so.8:_ZN5clang19parseSanitizerValueEN4llvm9StringRefEb
libclangBasic.so.8:_ZN5clang19parseXRayInstrValueEN4llvm9StringRefE
libclangBasic.so.8:_ZN5clang20IdentifierInfoLookup14getIdentifiersEv
libclangBasic.so.8:_ZN5clang20IdentifierInfoLookupD0Ev
libclangBasic.so.8:_ZN5clang20IdentifierInfoLookupD1Ev
libclangBasic.so.8:_ZN5clang20IdentifierInfoLookupD2Ev
libclangBasic.so.8:_ZN5clang20IgnoringDiagConsumer6anchorEv
libclangBasic.so.8:_ZN5clang20SourceManagerForFileC1EN4llvm9StringRefES2_
libclangBasic.so.8:_ZN5clang20SourceManagerForFileC2EN4llvm9StringRefES2_
libclangBasic.so.8:_ZN5clang21MaxVersionForCudaArchENS_8CudaArchE
libclangBasic.so.8:_ZN5clang21MinVersionForCudaArchENS_8CudaArchE
libclangBasic.so.8:_ZN5clang21ProcessWarningOptionsERNS_17DiagnosticsEngineERKNS_17DiagnosticOptionsEb
libclangBasic.so.8:_ZN5clang21expandSanitizerGroupsEm
libclangBasic.so.8:_ZN5clang21getLLVMRepositoryPathB5cxx11Ev
libclangBasic.so.8:_ZN5clang21isOpenMPLoopDirectiveENS_19OpenMPDirectiveKindE
libclangBasic.so.8:_ZN5clang21isOpenMPSimdDirectiveENS_19OpenMPDirectiveKindE
libclangBasic.so.8:_ZN5clang21isOpenMPThreadPrivateENS_16OpenMPClauseKindE
libclangBasic.so.8:_ZN5clang22VirtualArchForCudaArchENS_8CudaArchE
libclangBasic.so.8:_ZN5clang22getClangFullCPPVersionB5cxx11Ev
libclangBasic.so.8:_ZN5clang22getClangRepositoryPathB5cxx11Ev
libclangBasic.so.8:_ZN5clang22getNullabilitySpellingENS_15NullabilityKindEb
libclangBasic.so.8:_ZN5clang22getOpenMPDirectiveKindEN4llvm9StringRefE
libclangBasic.so.8:_ZN5clang22getOpenMPDirectiveNameENS_19OpenMPDirectiveKindE
libclangBasic.so.8:_ZN5clang22isOpenMPTeamsDirectiveENS_19OpenMPDirectiveKindE
libclangBasic.so.8:_ZN5clang23CudaVirtualArchToStringENS_15CudaVirtualArchE
libclangBasic.so.8:_ZN5clang23ExternalSLocEntrySourceD0Ev
libclangBasic.so.8:_ZN5clang23ExternalSLocEntrySourceD1Ev
libclangBasic.so.8:_ZN5clang23ExternalSLocEntrySourceD2Ev
libclangBasic.so.8:_ZN5clang23StringToCudaVirtualArchEN4llvm9StringRefE
libclangBasic.so.8:_ZN5clang23getClangToolFullVersionB5cxx11EN4llvm9StringRefE
libclangBasic.so.8:_ZN5clang23getOpenMPCaptureRegionsERN4llvm15SmallVectorImplINS_19OpenMPDirectiveKindEEES2_
libclangBasic.so.8:_ZN5clang24SanitizerSpecialCaseList11createOrDieERKSt6vectorINSt7__cxx1112basic_stringIcSt11char_traitsIcESaIcEEESaIS7_EE
libclangBasic.so.8:_ZN5clang24SanitizerSpecialCaseList23createSanitizerSectionsEv
libclangBasic.so.8:_ZN5clang24SanitizerSpecialCaseList6createERKSt6vectorINSt7__cxx1112basic_stringIcSt11char_traitsIcESaIcEEESaIS7_EERS7_
libclangBasic.so.8:_ZN5clang24isOpenMPTaskingDirectiveENS_19OpenMPDirectiveKindE
libclangBasic.so.8:_ZN5clang25getOpenMPSimpleClauseTypeENS_16OpenMPClauseKindEN4llvm9StringRefE
libclangBasic.so.8:_ZN5clang25isOpenMPParallelDirectiveENS_19OpenMPDirectiveKindE
libclangBasic.so.8:_ZN5clang25isOpenMPTaskLoopDirectiveENS_19OpenMPDirectiveKindE
libclangBasic.so.8:_ZN5clang27isAllowedClauseForDirectiveENS_19OpenMPDirectiveKindENS_16OpenMPClauseKindE
libclangBasic.so.8:_ZN5clang27isOpenMPDistributeDirectiveENS_19OpenMPDirectiveKindE
libclangBasic.so.8:_ZN5clang28ForwardingDiagnosticConsumer16HandleDiagnosticENS_17DiagnosticsEngine5LevelERKNS_10DiagnosticE
libclangBasic.so.8:_ZN5clang28ForwardingDiagnosticConsumer5clearEv
libclangBasic.so.8:_ZN5clang28ForwardingDiagnosticConsumerD0Ev
libclangBasic.so.8:_ZN5clang28ForwardingDiagnosticConsumerD1Ev
libclangBasic.so.8:_ZN5clang28ForwardingDiagnosticConsumerD2Ev
libclangBasic.so.8:_ZN5clang28isOpenMPWorksharingDirectiveENS_19OpenMPDirectiveKindE
libclangBasic.so.8:_ZN5clang29getClangFullRepositoryVersionB5cxx11Ev
libclangBasic.so.8:_ZN5clang29getOpenMPSimpleClauseTypeNameENS_16OpenMPClauseKindEj
libclangBasic.so.8:_ZN5clang29isOpenMPNestingTeamsDirectiveENS_19OpenMPDirectiveKindE
libclangBasic.so.8:_ZN5clang32isOpenMPTargetExecutionDirectiveENS_19OpenMPDirectiveKindE
libclangBasic.so.8:_ZN5clang33isOpenMPLoopBoundSharingDirectiveENS_19OpenMPDirectiveKindE
libclangBasic.so.8:_ZN5clang34isOpenMPNestingDistributeDirectiveENS_19OpenMPDirectiveKindE
libclangBasic.so.8:_ZN5clang37isOpenMPTargetDataManagementDirectiveENS_19OpenMPDirectiveKindE
libclangBasic.so.8:_ZN5clang3tok12getTokenNameENS0_9TokenKindE
libclangBasic.so.8:_ZN5clang3tok18getKeywordSpellingENS0_9TokenKindE
libclangBasic.so.8:_ZN5clang3tok21getPunctuatorSpellingENS0_9TokenKindE
libclangBasic.so.8:_ZN5clang4attr27getSubjectMatchRuleSpellingENS0_16SubjectMatchRuleE
libclangBasic.so.8:_ZN5clang6Module13getTopHeadersERNS_11FileManagerE
libclangBasic.so.8:_ZN5clang6Module14addRequirementEN4llvm9StringRefEbRKNS_11LangOptionsERKNS_10TargetInfoE
libclangBasic.so.8:_ZN5clang6Module15markUnavailableEb
libclangBasic.so.8:_ZN5clang6ModuleC1EN4llvm9StringRefENS_14SourceLocationEPS0_bbj
libclangBasic.so.8:_ZN5clang6ModuleC2EN4llvm9StringRefENS_14SourceLocationEPS0_bbj
libclangBasic.so.8:_ZN5clang6ModuleD1Ev
libclangBasic.so.8:_ZN5clang6ModuleD2Ev
libclangBasic.so.8:_ZN5clang6SrcMgr12ContentCache13replaceBufferEPN4llvm12MemoryBufferEb
libclangBasic.so.8:_ZN5clang6SrcMgr12ContentCacheD1Ev
libclangBasic.so.8:_ZN5clang6SrcMgr12ContentCacheD2Ev
libclangBasic.so.8:_ZN5clang7Builtin7Context11isScanfLikeEjRjRb
libclangBasic.so.8:_ZN5clang7Builtin7Context12isPrintfLikeEjRjRb
libclangBasic.so.8:_ZN5clang7Builtin7Context13forgetBuiltinEjRNS_15IdentifierTableE
libclangBasic.so.8:_ZN5clang7Builtin7Context13isBuiltinFuncEPKc
libclangBasic.so.8:_ZN5clang7Builtin7Context16InitializeTargetERKNS_10TargetInfoEPS3_
libclangBasic.so.8:_ZN5clang7Builtin7Context18builtinIsSupportedERKNS0_4InfoERKNS_11LangOptionsE
libclangBasic.so.8:_ZN5clang7Builtin7Context18initializeBuiltinsERNS_15IdentifierTableERKNS_11LangOptionsE
libclangBasic.so.8:_ZN5clang7targets15RISCVTargetInfo20handleTargetFeaturesERSt6vectorINSt7__cxx1112basic_stringIcSt11char_traitsIcESaIcEEESaIS8_EERNS_17DiagnosticsEngineE
libclangBasic.so.8:_ZN5clang7targets16getDarwinDefinesERNS_12MacroBuilderERKNS_11LangOptionsERKN4llvm6TripleERNS6_9StringRefERNS6_12VersionTupleE
libclangBasic.so.8:_ZN5clang8Selector19getMethodFamilyImplES0_
libclangBasic.so.8:_ZN5clang8Selector23getInstTypeMethodFamilyES0_
libclangBasic.so.8:_ZN5clang8Selector25getStringFormatFamilyImplES0_
libclangBasic.so.8:_ZN5clanglsERKNS_17DiagnosticBuilderESt4pairINS_15NullabilityKindEbE
libclangBasic.so.8:_ZN5clanglsERN4llvm11raw_ostreamENS_19DiagnosticLevelMaskE
libclangBasic.so.8:_ZN5clanglsERN4llvm11raw_ostreamERKNS_11ObjCRuntimeE
libclangBasic.so.8:_ZNK5clang10Diagnostic16FormatDiagnosticEPKcS2_RN4llvm15SmallVectorImplIcEE
libclangBasic.so.8:_ZNK5clang10Diagnostic16FormatDiagnosticERN4llvm15SmallVectorImplIcEE
libclangBasic.so.8:_ZNK5clang10TargetInfo12getTypeAlignENS0_7IntTypeE
libclangBasic.so.8:_ZNK5clang10TargetInfo12getTypeWidthENS0_7IntTypeE
libclangBasic.so.8:_ZNK5clang10TargetInfo14initFeatureMapERN4llvm9StringMapIbNS1_15MallocAllocatorEEERNS_17DiagnosticsEngineENS1_9StringRefERKSt6vectorINSt7__cxx1112basic_stringIcSt11char_traitsIcESaIcEEESaISF_EE
libclangBasic.so.8:_ZNK5clang10TargetInfo14isValidClobberEN4llvm9StringRefE
libclangBasic.so.8:_ZNK5clang10TargetInfo17getIntTypeByWidthEjb
libclangBasic.so.8:_ZNK5clang10TargetInfo18getCallingConvKindEb
libclangBasic.so.8:_ZNK5clang10TargetInfo18getRealTypeByWidthEj
libclangBasic.so.8:_ZNK5clang10TargetInfo19CheckFixedPointBitsEv
libclangBasic.so.8:_ZNK5clang10TargetInfo19resolveSymbolicNameERPKcN4llvm8ArrayRefINS0_14ConstraintInfoEEERj
libclangBasic.so.8:_ZNK5clang10TargetInfo21getTypeConstantSuffixENS0_7IntTypeE
libclangBasic.so.8:_ZNK5clang10TargetInfo22getLeastIntTypeByWidthEjb
libclangBasic.so.8:_ZNK5clang10TargetInfo22getOpenCLTypeAddrSpaceENS0_14OpenCLTypeKindE
libclangBasic.so.8:_ZNK5clang10TargetInfo22isValidGCCRegisterNameEN4llvm9StringRefE
libclangBasic.so.8:_ZNK5clang10TargetInfo23validateInputConstraintEN4llvm15MutableArrayRefINS0_14ConstraintInfoEEERS3_
libclangBasic.so.8:_ZNK5clang10TargetInfo24validateOutputConstraintERNS0_14ConstraintInfoE
libclangBasic.so.8:_ZNK5clang10TargetInfo28getNormalizedGCCRegisterNameEN4llvm9StringRefEb
libclangBasic.so.8:_ZNK5clang10TargetInfo32checkCFProtectionBranchSupportedERNS_17DiagnosticsEngineE
libclangBasic.so.8:_ZNK5clang10TargetInfo32checkCFProtectionReturnSupportedERNS_17DiagnosticsEngineE
libclangBasic.so.8:_ZNK5clang11FileManager10PrintStatsEv
libclangBasic.so.8:_ZNK5clang11FileManager16makeAbsolutePathERN4llvm15SmallVectorImplIcEE
libclangBasic.so.8:_ZNK5clang11FileManager17FixupRelativePathERN4llvm15SmallVectorImplIcEE
libclangBasic.so.8:_ZNK5clang11FileManager18GetUniqueIDMappingERN4llvm15SmallVectorImplIPKNS_9FileEntryEEE
libclangBasic.so.8:_ZNK5clang11LangOptions15isNoBuiltinFuncEN4llvm9StringRefE
libclangBasic.so.8:_ZNK5clang11LangOptions21getOpenCLVersionTupleEv
libclangBasic.so.8:_ZNK5clang11ObjCRuntime11getAsStringB5cxx11Ev
libclangBasic.so.8:_ZNK5clang11SourceRange13printToStringB5cxx11ERKNS_13SourceManagerE
libclangBasic.so.8:_ZNK5clang11SourceRange4dumpERKNS_13SourceManagerE
libclangBasic.so.8:_ZNK5clang11SourceRange5printERN4llvm11raw_ostreamERKNS_13SourceManagerE
libclangBasic.so.8:_ZNK5clang12APFixedPoint7compareERKS0_
libclangBasic.so.8:_ZNK5clang12APFixedPoint7convertERKNS_19FixedPointSemanticsE
libclangBasic.so.8:_ZNK5clang13DiagnosticIDs11ProcessDiagERNS_17DiagnosticsEngineE
libclangBasic.so.8:_ZNK5clang13DiagnosticIDs14getDescriptionEj
libclangBasic.so.8:_ZNK5clang13DiagnosticIDs15isUnrecoverableEj
libclangBasic.so.8:_ZNK5clang13DiagnosticIDs18getDiagnosticLevelEjNS_14SourceLocationERKNS_17DiagnosticsEngineE
libclangBasic.so.8:_ZNK5clang13DiagnosticIDs21getDiagnosticSeverityEjNS_14SourceLocationERKNS_17DiagnosticsEngineE
libclangBasic.so.8:_ZNK5clang13DiagnosticIDs21getDiagnosticsInGroupENS_4diag6FlavorEN4llvm9StringRefERNS3_15SmallVectorImplIjEE
libclangBasic.so.8:_ZNK5clang13DiagnosticIDs8EmitDiagERNS_17DiagnosticsEngineENS0_5LevelE
libclangBasic.so.8:_ZNK5clang13FullSourceLoc10getFileLocEv
libclangBasic.so.8:_ZNK5clang13FullSourceLoc12getFileEntryEv
libclangBasic.so.8:_ZNK5clang13FullSourceLoc13getBufferDataEPb
libclangBasic.so.8:_ZNK5clang13FullSourceLoc13getFileOffsetEv
libclangBasic.so.8:_ZNK5clang13FullSourceLoc13getLineNumberEPb
libclangBasic.so.8:_ZNK5clang13FullSourceLoc14getPresumedLocEb
libclangBasic.so.8:_ZNK5clang13FullSourceLoc14getSpellingLocEv
libclangBasic.so.8:_ZNK5clang13FullSourceLoc15getColumnNumberEPb
libclangBasic.so.8:_ZNK5clang13FullSourceLoc15getExpansionLocEv
libclangBasic.so.8:_ZNK5clang13FullSourceLoc16getCharacterDataEPb
libclangBasic.so.8:_ZNK5clang13FullSourceLoc16getDecomposedLocEv
libclangBasic.so.8:_ZNK5clang13FullSourceLoc16isInSystemHeaderEv
libclangBasic.so.8:_ZNK5clang13FullSourceLoc18getModuleImportLocEv
libclangBasic.so.8:_ZNK5clang13FullSourceLoc19isMacroArgExpansionEPS0_
libclangBasic.so.8:_ZNK5clang13FullSourceLoc21getSpellingLineNumberEPb
libclangBasic.so.8:_ZNK5clang13FullSourceLoc22getExpansionLineNumberEPb
libclangBasic.so.8:_ZNK5clang13FullSourceLoc23getSpellingColumnNumberEPb
libclangBasic.so.8:_ZNK5clang13FullSourceLoc24getExpansionColumnNumberEPb
libclangBasic.so.8:_ZNK5clang13FullSourceLoc26getImmediateMacroCallerLocEv
libclangBasic.so.8:_ZNK5clang13FullSourceLoc29isBeforeInTranslationUnitThanENS_14SourceLocationE
libclangBasic.so.8:_ZNK5clang13FullSourceLoc4dumpEv
libclangBasic.so.8:_ZNK5clang13FullSourceLoc9getFileIDEv
libclangBasic.so.8:_ZNK5clang13SelectorTable14getTotalMemoryEv
libclangBasic.so.8:_ZNK5clang13SourceManager10PrintStatsEv
libclangBasic.so.8:_ZNK5clang13SourceManager12isInMainFileENS_14SourceLocationE
libclangBasic.so.8:_ZNK5clang13SourceManager13getBufferDataENS_6FileIDEPb
libclangBasic.so.8:_ZNK5clang13SourceManager13getBufferNameENS_14SourceLocationEPb
libclangBasic.so.8:_ZNK5clang13SourceManager13getFileIDSizeENS_6FileIDE
libclangBasic.so.8:_ZNK5clang13SourceManager13getFileIDSlowEj
libclangBasic.so.8:_ZNK5clang13SourceManager13getLineNumberENS_6FileIDEjPb
libclangBasic.so.8:_ZNK5clang13SourceManager13getNextFileIDENS_6FileIDE
libclangBasic.so.8:_ZNK5clang13SourceManager13loadSLocEntryEjPb
libclangBasic.so.8:_ZNK5clang13SourceManager13translateFileEPKNS_9FileEntryE
libclangBasic.so.8:_ZNK5clang13SourceManager14getFileIDLocalEj
libclangBasic.so.8:_ZNK5clang13SourceManager14getPresumedLocENS_14SourceLocationEb
libclangBasic.so.8:_ZNK5clang13SourceManager15getColumnNumberENS_6FileIDEjPb
libclangBasic.so.8:_ZNK5clang13SourceManager15getFileIDLoadedEj
libclangBasic.so.8:_ZNK5clang13SourceManager16getCharacterDataENS_14SourceLocationEPb
libclangBasic.so.8:_ZNK5clang13SourceManager16translateLineColENS_6FileIDEjj
libclangBasic.so.8:_ZNK5clang13SourceManager17getExpansionRangeENS_14SourceLocationE
libclangBasic.so.8:_ZNK5clang13SourceManager17getPreviousFileIDENS_6FileIDE
libclangBasic.so.8:_ZNK5clang13SourceManager18getFileLocSlowCaseENS_14SourceLocationE
libclangBasic.so.8:_ZNK5clang13SourceManager19isMacroArgExpansionENS_14SourceLocationEPS1_
libclangBasic.so.8:_ZNK5clang13SourceManager20getInBeforeInTUCacheENS_6FileIDES1_
libclangBasic.so.8:_ZNK5clang13SourceManager20getMemoryBufferSizesEv
libclangBasic.so.8:_ZNK5clang13SourceManager20getTopMacroCallerLocENS_14SourceLocationE
libclangBasic.so.8:_ZNK5clang13SourceManager20isMacroBodyExpansionENS_14SourceLocationE
libclangBasic.so.8:_ZNK5clang13SourceManager20translateFileLineColEPKNS_9FileEntryEjj
libclangBasic.so.8:_ZNK5clang13SourceManager21computeMacroArgsCacheERSt3mapIjNS_14SourceLocationESt4lessIjESaISt4pairIKjS2_EEENS_6FileIDE
libclangBasic.so.8:_ZNK5clang13SourceManager21getDataStructureSizesEv
libclangBasic.so.8:_ZNK5clang13SourceManager21getFileCharacteristicENS_14SourceLocationE
libclangBasic.so.8:_ZNK5clang13SourceManager21getPresumedLineNumberENS_14SourceLocationEPb
libclangBasic.so.8:_ZNK5clang13SourceManager21getSpellingLineNumberENS_14SourceLocationEPb
libclangBasic.so.8:_ZNK5clang13SourceManager22getExpansionLineNumberENS_14SourceLocationEPb
libclangBasic.so.8:_ZNK5clang13SourceManager22getSpellingLocSlowCaseENS_14SourceLocationE
libclangBasic.so.8:_ZNK5clang13SourceManager23getExpansionLocSlowCaseENS_14SourceLocationE
libclangBasic.so.8:_ZNK5clang13SourceManager23getImmediateSpellingLocENS_14SourceLocationE
libclangBasic.so.8:_ZNK5clang13SourceManager23getPresumedColumnNumberENS_14SourceLocationEPb
libclangBasic.so.8:_ZNK5clang13SourceManager23getSpellingColumnNumberENS_14SourceLocationEPb
libclangBasic.so.8:_ZNK5clang13SourceManager24getDecomposedIncludedLocENS_6FileIDE
libclangBasic.so.8:_ZNK5clang13SourceManager24getExpansionColumnNumberENS_14SourceLocationEPb
libclangBasic.so.8:_ZNK5clang13SourceManager24getFakeBufferForRecoveryEv
libclangBasic.so.8:_ZNK5clang13SourceManager25isBeforeInTranslationUnitENS_14SourceLocationES1_
libclangBasic.so.8:_ZNK5clang13SourceManager26getImmediateExpansionRangeENS_14SourceLocationE
libclangBasic.so.8:_ZNK5clang13SourceManager26isInTheSameTranslationUnitERSt4pairINS_6FileIDEjES4_
libclangBasic.so.8:_ZNK5clang13SourceManager27getMacroArgExpandedLocationENS_14SourceLocationE
libclangBasic.so.8:_ZNK5clang13SourceManager30getFakeContentCacheForRecoveryEv
libclangBasic.so.8:_ZNK5clang13SourceManager32getDecomposedSpellingLocSlowCaseEPKNS_6SrcMgr9SLocEntryEj
libclangBasic.so.8:_ZNK5clang13SourceManager32isAtEndOfImmediateMacroExpansionENS_14SourceLocationEPS1_
libclangBasic.so.8:_ZNK5clang13SourceManager33associateFileChunkWithMacroArgExpERSt3mapIjNS_14SourceLocationESt4lessIjESaISt4pairIKjS2_EEENS_6FileIDES2_S2_j
libclangBasic.so.8:_ZNK5clang13SourceManager33getDecomposedExpansionLocSlowCaseEPKNS_6SrcMgr9SLocEntryE
libclangBasic.so.8:_ZNK5clang13SourceManager34isAtStartOfImmediateMacroExpansionENS_14SourceLocationEPS1_
libclangBasic.so.8:_ZNK5clang13SourceManager4dumpEv
libclangBasic.so.8:_ZNK5clang14CodeGenOptions15isNoBuiltinFuncEPKc
libclangBasic.so.8:_ZNK5clang14IdentifierInfo14getPPKeywordIDEv
libclangBasic.so.8:_ZNK5clang14IdentifierInfo18isCPlusPlusKeywordERKNS_11LangOptionsE
libclangBasic.so.8:_ZNK5clang14IdentifierInfo9isKeywordERKNS_11LangOptionsE
libclangBasic.so.8:_ZNK5clang14SourceLocation13printToStringB5cxx11ERKNS_13SourceManagerE
libclangBasic.so.8:_ZNK5clang14SourceLocation4dumpERKNS_13SourceManagerE
libclangBasic.so.8:_ZNK5clang14SourceLocation5printERN4llvm11raw_ostreamERKNS_13SourceManagerE
libclangBasic.so.8:_ZNK5clang15IdentifierTable10PrintStatsEv
libclangBasic.so.8:_ZNK5clang17DiagnosticsEngine12DiagStateMap4File6lookupEj
libclangBasic.so.8:_ZNK5clang17DiagnosticsEngine12DiagStateMap4dumpERNS_13SourceManagerEN4llvm9StringRefE
libclangBasic.so.8:_ZNK5clang17DiagnosticsEngine12DiagStateMap6lookupERNS_13SourceManagerENS_14SourceLocationE
libclangBasic.so.8:_ZNK5clang17DiagnosticsEngine12DiagStateMap7getFileERNS_13SourceManagerENS_6FileIDE
libclangBasic.so.8:_ZNK5clang17DiagnosticsEngine4dumpEN4llvm9StringRefE
libclangBasic.so.8:_ZNK5clang17DiagnosticsEngine4dumpEv
libclangBasic.so.8:_ZNK5clang18DiagnosticConsumer25IncludeInDiagnosticCountsEv
libclangBasic.so.8:_ZNK5clang18SanitizerBlacklist17isBlacklistedFileEmN4llvm9StringRefES2_
libclangBasic.so.8:_ZNK5clang18SanitizerBlacklist17isBlacklistedTypeEmN4llvm9StringRefES2_
libclangBasic.so.8:_ZNK5clang18SanitizerBlacklist19isBlacklistedGlobalEmN4llvm9StringRefES2_
libclangBasic.so.8:_ZNK5clang18SanitizerBlacklist21isBlacklistedFunctionEmN4llvm9StringRefE
libclangBasic.so.8:_ZNK5clang18SanitizerBlacklist21isBlacklistedLocationEmNS_14SourceLocationEN4llvm9StringRefE
libclangBasic.so.8:_ZNK5clang18XRayFunctionFilter19shouldImbueFunctionEN4llvm9StringRefE
libclangBasic.so.8:_ZNK5clang18XRayFunctionFilter19shouldImbueLocationENS_14SourceLocationEN4llvm9StringRefE
libclangBasic.so.8:_ZNK5clang18XRayFunctionFilter26shouldImbueFunctionsInFileEN4llvm9StringRefES2_
libclangBasic.so.8:_ZNK5clang19PrettyStackTraceLoc5printERN4llvm11raw_ostreamE
libclangBasic.so.8:_ZNK5clang20MultiKeywordSelector7getNameB5cxx11Ev
libclangBasic.so.8:_ZNK5clang24SanitizerSpecialCaseList9inSectionEmN4llvm9StringRefES2_S2_
libclangBasic.so.8:_ZNK5clang28ForwardingDiagnosticConsumer25IncludeInDiagnosticCountsEv
libclangBasic.so.8:_ZNK5clang6Module11isAvailableERKNS_11LangOptionsERKNS_10TargetInfoERSt4pairINSt7__cxx1112basic_stringIcSt11char_traitsIcESaIcEEEbERNS0_25UnresolvedHeaderDirectiveERPS0_
libclangBasic.so.8:_ZNK5clang6Module12directlyUsesEPKS0_
libclangBasic.so.8:_ZNK5clang6Module13findSubmoduleEN4llvm9StringRefE
libclangBasic.so.8:_ZNK5clang6Module13isSubModuleOfEPKS0_
libclangBasic.so.8:_ZNK5clang6Module14getUmbrellaDirEv
libclangBasic.so.8:_ZNK5clang6Module16fullModuleNameIsEN4llvm8ArrayRefINS1_9StringRefEEE
libclangBasic.so.8:_ZNK5clang6Module17getFullModuleNameB5cxx11Eb
libclangBasic.so.8:_ZNK5clang6Module17getTopLevelModuleEv
libclangBasic.so.8:_ZNK5clang6Module18getExportedModulesERN4llvm15SmallVectorImplIPS0_EE
libclangBasic.so.8:_ZNK5clang6Module24buildVisibleModulesCacheEv
libclangBasic.so.8:_ZNK5clang6Module4dumpEv
libclangBasic.so.8:_ZNK5clang6Module5printERN4llvm11raw_ostreamEj
libclangBasic.so.8:_ZNK5clang6SrcMgr12ContentCache18getSizeBytesMappedEv
libclangBasic.so.8:_ZNK5clang6SrcMgr12ContentCache19getMemoryBufferKindEv
libclangBasic.so.8:_ZNK5clang6SrcMgr12ContentCache7getSizeEv
libclangBasic.so.8:_ZNK5clang6SrcMgr12ContentCache9getBufferERNS_17DiagnosticsEngineERKNS_13SourceManagerENS_14SourceLocationEPb
libclangBasic.so.8:_ZNK5clang7Builtin7Context15canBeRedeclaredEj
libclangBasic.so.8:_ZNK5clang7Builtin7Context22getRequiredVectorWidthEj
libclangBasic.so.8:_ZNK5clang7Builtin7Context6isLikeEjRjRbPKc
libclangBasic.so.8:_ZNK5clang7Builtin7Context9getRecordEj
libclangBasic.so.8:_ZNK5clang7targets15RISCVTargetInfo10hasFeatureEN4llvm9StringRefE
libclangBasic.so.8:_ZNK5clang7targets15RISCVTargetInfo14getGCCRegNamesEv
libclangBasic.so.8:_ZNK5clang7targets15RISCVTargetInfo16getGCCRegAliasesEv
libclangBasic.so.8:_ZNK5clang7targets15RISCVTargetInfo16getTargetDefinesERKNS_11LangOptionsERNS_12MacroBuilderE
libclangBasic.so.8:_ZNK5clang8Selector10getNumArgsEv
libclangBasic.so.8:_ZNK5clang8Selector11getAsStringB5cxx11Ev
libclangBasic.so.8:_ZNK5clang8Selector14getNameForSlotEj
libclangBasic.so.8:_ZNK5clang8Selector24getIdentifierInfoForSlotEj
libclangBasic.so.8:_ZNK5clang8Selector4dumpEv
libclangBasic.so.8:_ZNK5clang8Selector5printERN4llvm11raw_ostreamE
libclangCodeGen.so.8:_ZN5clang12EmbedBitcodeEPN4llvm6ModuleERKNS_14CodeGenOptionsENS0_15MemoryBufferRefE
libclangCodeGen.so.8:_ZN5clang12EmitBCAction6anchorEv
libclangCodeGen.so.8:_ZN5clang12EmitBCActionC1EPN4llvm11LLVMContextE
libclangCodeGen.so.8:_ZN5clang12EmitBCActionC2EPN4llvm11LLVMContextE
libclangCodeGen.so.8:_ZN5clang13CodeGenAction10loadModuleEN4llvm15MemoryBufferRefE
libclangCodeGen.so.8:_ZN5clang13CodeGenAction10takeModuleEv
libclangCodeGen.so.8:_ZN5clang13CodeGenAction13ExecuteActionEv
libclangCodeGen.so.8:_ZN5clang13CodeGenAction15takeLLVMContextEv
libclangCodeGen.so.8:_ZN5clang13CodeGenAction17CreateASTConsumerERNS_16CompilerInstanceEN4llvm9StringRefE
libclangCodeGen.so.8:_ZN5clang13CodeGenAction19EndSourceFileActionEv
libclangCodeGen.so.8:_ZN5clang13CodeGenActionC1EjPN4llvm11LLVMContextE
libclangCodeGen.so.8:_ZN5clang13CodeGenActionC2EjPN4llvm11LLVMContextE
libclangCodeGen.so.8:_ZN5clang13CodeGenActionD0Ev
libclangCodeGen.so.8:_ZN5clang13CodeGenActionD1Ev
libclangCodeGen.so.8:_ZN5clang13CodeGenActionD2Ev
libclangCodeGen.so.8:_ZN5clang13CodeGenerator11StartModuleEN4llvm9StringRefERNS1_11LLVMContextE
libclangCodeGen.so.8:_ZN5clang13CodeGenerator13ReleaseModuleEv
libclangCodeGen.so.8:_ZN5clang13CodeGenerator14getCGDebugInfoEv
libclangCodeGen.so.8:_ZN5clang13CodeGenerator15GetAddrOfGlobalENS_10GlobalDeclEb
libclangCodeGen.so.8:_ZN5clang13CodeGenerator21GetDeclForMangledNameEN4llvm9StringRefE
libclangCodeGen.so.8:_ZN5clang13CodeGenerator3CGMEv
libclangCodeGen.so.8:_ZN5clang13CodeGenerator6anchorEv
libclangCodeGen.so.8:_ZN5clang13CodeGenerator9GetModuleEv
libclangCodeGen.so.8:_ZN5clang13EmitObjAction6anchorEv
libclangCodeGen.so.8:_ZN5clang13EmitObjActionC1EPN4llvm11LLVMContextE
libclangCodeGen.so.8:_ZN5clang13EmitObjActionC2EPN4llvm11LLVMContextE
libclangCodeGen.so.8:_ZN5clang14EmitLLVMAction6anchorEv
libclangCodeGen.so.8:_ZN5clang14EmitLLVMActionC1EPN4llvm11LLVMContextE
libclangCodeGen.so.8:_ZN5clang14EmitLLVMActionC2EPN4llvm11LLVMContextE
libclangCodeGen.so.8:_ZN5clang15BackendConsumer20InlineAsmDiagHandlerERKN4llvm23DiagnosticInfoInlineAsmE
libclangCodeGen.so.8:_ZN5clang15BackendConsumer20StackSizeDiagHandlerERKN4llvm23DiagnosticInfoStackSizeE
libclangCodeGen.so.8:_ZN5clang15BackendConsumer21DiagnosticHandlerImplERKN4llvm14DiagnosticInfoE
libclangCodeGen.so.8:_ZN5clang15BackendConsumer21InlineAsmDiagHandler2ERKN4llvm12SMDiagnosticENS_14SourceLocationE
libclangCodeGen.so.8:_ZN5clang15BackendConsumer22UnsupportedDiagHandlerERKN4llvm25DiagnosticInfoUnsupportedE
libclangCodeGen.so.8:_ZN5clang15BackendConsumer23EmitOptimizationMessageERKN4llvm30DiagnosticInfoOptimizationBaseEj
libclangCodeGen.so.8:_ZN5clang15BackendConsumer25OptimizationRemarkHandlerERKN4llvm30DiagnosticInfoOptimizationBaseE
libclangCodeGen.so.8:_ZN5clang15BackendConsumer25OptimizationRemarkHandlerERKN4llvm34OptimizationRemarkAnalysisAliasingE
libclangCodeGen.so.8:_ZN5clang15BackendConsumer25OptimizationRemarkHandlerERKN4llvm35OptimizationRemarkAnalysisFPCommuteE
libclangCodeGen.so.8:_ZN5clang15BackendConsumer26OptimizationFailureHandlerERKN4llvm33DiagnosticInfoOptimizationFailureE
libclangCodeGen.so.8:_ZN5clang15BackendConsumer6anchorEv
libclangCodeGen.so.8:_ZN5clang16MacroPPCallbacks10FileExitedENS_14SourceLocationE
libclangCodeGen.so.8:_ZN5clang16MacroPPCallbacks11FileChangedENS_14SourceLocationENS_11PPCallbacks16FileChangeReasonENS_6SrcMgr18CharacteristicKindENS_6FileIDE
libclangCodeGen.so.8:_ZN5clang16MacroPPCallbacks11FileEnteredENS_14SourceLocationE
libclangCodeGen.so.8:_ZN5clang16MacroPPCallbacks12MacroDefinedERKNS_5TokenEPKNS_14MacroDirectiveE
libclangCodeGen.so.8:_ZN5clang16MacroPPCallbacks14MacroUndefinedERKNS_5TokenERKNS_15MacroDefinitionEPKNS_14MacroDirectiveE
libclangCodeGen.so.8:_ZN5clang16MacroPPCallbacks15getCurrentScopeEv
libclangCodeGen.so.8:_ZN5clang16MacroPPCallbacks18InclusionDirectiveENS_14SourceLocationERKNS_5TokenEN4llvm9StringRefEbNS_15CharSourceRangeEPKNS_9FileEntryES6_S6_PKNS_6ModuleENS_6SrcMgr18CharacteristicKindE
libclangCodeGen.so.8:_ZN5clang16MacroPPCallbacks18getCorrectLocationENS_14SourceLocationE
libclangCodeGen.so.8:_ZN5clang16MacroPPCallbacks20writeMacroDefinitionERKNS_14IdentifierInfoERKNS_9MacroInfoERNS_12PreprocessorERN4llvm11raw_ostreamESB_
libclangCodeGen.so.8:_ZN5clang16MacroPPCallbacks23updateStatusToNextScopeEv
libclangCodeGen.so.8:_ZN5clang16MacroPPCallbacksC1EPNS_13CodeGeneratorERNS_12PreprocessorE
libclangCodeGen.so.8:_ZN5clang16MacroPPCallbacksC2EPNS_13CodeGeneratorERNS_12PreprocessorE
libclangCodeGen.so.8:_ZN5clang17CreateLLVMCodeGenERNS_17DiagnosticsEngineEN4llvm9StringRefERKNS_19HeaderSearchOptionsERKNS_19PreprocessorOptionsERKNS_14CodeGenOptionsERNS2_11LLVMContextEPNS_18CoverageSourceInfoE
libclangCodeGen.so.8:_ZN5clang17EmitBackendOutputERNS_17DiagnosticsEngineERKNS_19HeaderSearchOptionsERKNS_14CodeGenOptionsERKNS_13TargetOptionsERKNS_11LangOptionsERKN4llvm10DataLayoutEPNSE_6ModuleENS_13BackendActionESt10unique_ptrINSE_17raw_pwrite_streamESt14default_deleteISM_EE
libclangCodeGen.so.8:_ZN5clang17FindThinLTOModuleEN4llvm15MemoryBufferRefE
libclangCodeGen.so.8:_ZN5clang17FindThinLTOModuleEN4llvm15MutableArrayRefINS0_13BitcodeModuleEEE
libclangCodeGen.so.8:_ZN5clang18CoverageSourceInfo18SourceRangeSkippedENS_11SourceRangeENS_14SourceLocationE
libclangCodeGen.so.8:_ZN5clang18EmitAssemblyAction6anchorEv
libclangCodeGen.so.8:_ZN5clang18EmitAssemblyActionC1EPN4llvm11LLVMContextE
libclangCodeGen.so.8:_ZN5clang18EmitAssemblyActionC2EPN4llvm11LLVMContextE
libclangCodeGen.so.8:_ZN5clang18EmitLLVMOnlyAction6anchorEv
libclangCodeGen.so.8:_ZN5clang18EmitLLVMOnlyActionC1EPN4llvm11LLVMContextE
libclangCodeGen.so.8:_ZN5clang18EmitLLVMOnlyActionC2EPN4llvm11LLVMContextE
libclangCodeGen.so.8:_ZN5clang21EmitCodeGenOnlyAction6anchorEv
libclangCodeGen.so.8:_ZN5clang21EmitCodeGenOnlyActionC1EPN4llvm11LLVMContextE
libclangCodeGen.so.8:_ZN5clang21EmitCodeGenOnlyActionC2EPN4llvm11LLVMContextE
libclangCodeGen.so.8:_ZN5clang22ClangDiagnosticHandler17handleDiagnosticsERKN4llvm14DiagnosticInfoE
libclangCodeGen.so.8:_ZN5clang7CodeGen10CodeGenPGO11setFuncNameEN4llvm9StringRefENS2_11GlobalValue12LinkageTypesE
libclangCodeGen.so.8:_ZN5clang7CodeGen10CodeGenPGO11setFuncNameEPN4llvm8FunctionE
libclangCodeGen.so.8:_ZN5clang7CodeGen10CodeGenPGO12valueProfileERNS0_11CGBuilderTyEjPN4llvm11InstructionEPNS4_5ValueE
libclangCodeGen.so.8:_ZN5clang7CodeGen10CodeGenPGO16loadRegionCountsEPN4llvm22IndexedInstrProfReaderEb
libclangCodeGen.so.8:_ZN5clang7CodeGen10CodeGenPGO17mapRegionCountersEPKNS_4DeclE
libclangCodeGen.so.8:_ZN5clang7CodeGen10CodeGenPGO19computeRegionCountsEPKNS_4DeclE
libclangCodeGen.so.8:_ZN5clang7CodeGen10CodeGenPGO20assignRegionCountersENS_10GlobalDeclEPN4llvm8FunctionE
libclangCodeGen.so.8:_ZN5clang7CodeGen10CodeGenPGO20emitCounterIncrementERNS0_11CGBuilderTyEPKNS_4StmtEPN4llvm5ValueE
libclangCodeGen.so.8:_ZN5clang7CodeGen10CodeGenPGO23applyFunctionAttributesEPN4llvm22IndexedInstrProfReaderEPNS2_8FunctionE
libclangCodeGen.so.8:_ZN5clang7CodeGen10CodeGenPGO23emitEmptyCounterMappingEPKNS_4DeclEN4llvm9StringRefENS5_11GlobalValue12LinkageTypesE
libclangCodeGen.so.8:_ZN5clang7CodeGen10CodeGenPGO24emitCounterRegionMappingEPKNS_4DeclE
libclangCodeGen.so.8:_ZN5clang7CodeGen10CodeGenPGO24skipRegionMappingForDeclEPKNS_4DeclE
libclangCodeGen.so.8:_ZN5clang7CodeGen11CGBlockInfoC1EPKNS_9BlockDeclEN4llvm9StringRefE
libclangCodeGen.so.8:_ZN5clang7CodeGen11CGBlockInfoC2EPKNS_9BlockDeclEN4llvm9StringRefE
libclangCodeGen.so.8:_ZN5clang7CodeGen11CGDebugInfo10CreateTypeEPKNS_10AtomicTypeEPN4llvm6DIFileE
libclangCodeGen.so.8:_ZN5clang7CodeGen11CGDebugInfo10CreateTypeEPKNS_10RecordTypeE
libclangCodeGen.so.8:_ZN5clang7CodeGen11CGDebugInfo10CreateTypeEPKNS_10VectorTypeEPN4llvm6DIFileE
libclangCodeGen.so.8:_ZN5clang7CodeGen11CGDebugInfo10CreateTypeEPKNS_11BuiltinTypeE
libclangCodeGen.so.8:_ZN5clang7CodeGen11CGDebugInfo10CreateTypeEPKNS_11ComplexTypeE
libclangCodeGen.so.8:_ZN5clang7CodeGen11CGDebugInfo10CreateTypeEPKNS_11PointerTypeEPN4llvm6DIFileE
libclangCodeGen.so.8:_ZN5clang7CodeGen11CGDebugInfo10CreateTypeEPKNS_11TypedefTypeEPN4llvm6DIFileE
libclangCodeGen.so.8:_ZN5clang7CodeGen11CGDebugInfo10CreateTypeEPKNS_12FunctionTypeEPN4llvm6DIFileE
libclangCodeGen.so.8:_ZN5clang7CodeGen11CGDebugInfo10CreateTypeEPKNS_14ObjCObjectTypeEPN4llvm6DIFileE
libclangCodeGen.so.8:_ZN5clang7CodeGen11CGDebugInfo10CreateTypeEPKNS_16BlockPointerTypeEPN4llvm6DIFileE
libclangCodeGen.so.8:_ZN5clang7CodeGen11CGDebugInfo10CreateTypeEPKNS_17MemberPointerTypeEPN4llvm6DIFileE
libclangCodeGen.so.8:_ZN5clang7CodeGen11CGDebugInfo10CreateTypeEPKNS_17ObjCInterfaceTypeEPN4llvm6DIFileE
libclangCodeGen.so.8:_ZN5clang7CodeGen11CGDebugInfo10CreateTypeEPKNS_17ObjCTypeParamTypeEPN4llvm6DIFileE
libclangCodeGen.so.8:_ZN5clang7CodeGen11CGDebugInfo10CreateTypeEPKNS_19LValueReferenceTypeEPN4llvm6DIFileE
libclangCodeGen.so.8:_ZN5clang7CodeGen11CGDebugInfo10CreateTypeEPKNS_19RValueReferenceTypeEPN4llvm6DIFileE
libclangCodeGen.so.8:_ZN5clang7CodeGen11CGDebugInfo10CreateTypeEPKNS_21ObjCObjectPointerTypeEPN4llvm6DIFileE
libclangCodeGen.so.8:_ZN5clang7CodeGen11CGDebugInfo10CreateTypeEPKNS_26TemplateSpecializationTypeEPN4llvm6DIFileE
libclangCodeGen.so.8:_ZN5clang7CodeGen11CGDebugInfo10CreateTypeEPKNS_8PipeTypeEPN4llvm6DIFileE
libclangCodeGen.so.8:_ZN5clang7CodeGen11CGDebugInfo10CreateTypeEPKNS_9ArrayTypeEPN4llvm6DIFileE
libclangCodeGen.so.8:_ZN5clang7CodeGen11CGDebugInfo10createFileEN4llvm9StringRefENS2_8OptionalINS2_6DIFile12ChecksumInfoIS3_EEEENS4_IS3_EE
libclangCodeGen.so.8:_ZN5clang7CodeGen11CGDebugInfo11CreateMacroEPN4llvm11DIMacroFileEjNS_14SourceLocationENS2_9StringRefES6_
libclangCodeGen.so.8:_ZN5clang7CodeGen11CGDebugInfo11EmitDeclareEPKNS_7VarDeclEPN4llvm5ValueENS5_8OptionalIjEERNS0_11CGBuilderTyE
libclangCodeGen.so.8:_ZN5clang7CodeGen11CGDebugInfo11setLocationENS_14SourceLocationE
libclangCodeGen.so.8:_ZN5clang7CodeGen11CGDebugInfo12EmitLocationERNS0_11CGBuilderTyENS_14SourceLocationE
libclangCodeGen.so.8:_ZN5clang7CodeGen11CGDebugInfo12completeTypeEPKNS_10RecordDeclE
libclangCodeGen.so.8:_ZN5clang7CodeGen11CGDebugInfo12completeTypeEPKNS_8EnumDeclE
libclangCodeGen.so.8:_ZN5clang7CodeGen11CGDebugInfo12getClassNameEPKNS_10RecordDeclE
libclangCodeGen.so.8:_ZN5clang7CodeGen11CGDebugInfo13EmitUsingDeclERKNS_9UsingDeclE
libclangCodeGen.so.8:_ZN5clang7CodeGen11CGDebugInfo13completeClassEPKNS_10RecordDeclE
libclangCodeGen.so.8:_ZN5clang7CodeGen11CGDebugInfo13getLineNumberENS_14SourceLocationE
libclangCodeGen.so.8:_ZN5clang7CodeGen11CGDebugInfo13getTypeOrNullENS_8QualTypeE
libclangCodeGen.so.8:_ZN5clang7CodeGen11CGDebugInfo13getVTableNameEPKNS_13CXXRecordDeclE
libclangCodeGen.so.8:_ZN5clang7CodeGen11CGDebugInfo14CreateEnumTypeEPKNS_8EnumTypeE
libclangCodeGen.so.8:_ZN5clang7CodeGen11CGDebugInfo14CreateSelfTypeERKNS_8QualTypeEPN4llvm6DITypeE
libclangCodeGen.so.8:_ZN5clang7CodeGen11CGDebugInfo14CreateTypeNodeENS_8QualTypeEPN4llvm6DIFileE
libclangCodeGen.so.8:_ZN5clang7CodeGen11CGDebugInfo14EmitImportDeclERKNS_10ImportDeclE
libclangCodeGen.so.8:_ZN5clang7CodeGen11CGDebugInfo15CollectCXXBasesEPKNS_13CXXRecordDeclEPN4llvm6DIFileERNS5_15SmallVectorImplIPNS5_8MetadataEEEPNS5_6DITypeE
libclangCodeGen.so.8:_ZN5clang7CodeGen11CGDebugInfo15EmitFunctionEndERNS0_11CGBuilderTyEPN4llvm8FunctionE
libclangCodeGen.so.8:_ZN5clang7CodeGen11CGDebugInfo15createFieldTypeEN4llvm9StringRefENS_8QualTypeENS_14SourceLocationENS_15AccessSpecifierEmjPNS2_6DIFileEPNS2_7DIScopeEPKNS_10RecordDeclE
libclangCodeGen.so.8:_ZN5clang7CodeGen11CGDebugInfo15getColumnNumberENS_14SourceLocationEb
libclangCodeGen.so.8:_ZN5clang7CodeGen11CGDebugInfo15getFunctionNameEPKNS_12FunctionDeclE
libclangCodeGen.so.8:_ZN5clang7CodeGen11CGDebugInfo15getFunctionStubENS_10GlobalDeclE
libclangCodeGen.so.8:_ZN5clang7CodeGen11CGDebugInfo15getOrCreateFileENS_14SourceLocationE
libclangCodeGen.so.8:_ZN5clang7CodeGen11CGDebugInfo15getOrCreateTypeENS_8QualTypeEPN4llvm6DIFileE
libclangCodeGen.so.8:_ZN5clang7CodeGen11CGDebugInfo15getSelectorNameENS_8SelectorE
libclangCodeGen.so.8:_ZN5clang7CodeGen11CGDebugInfo16CreateMemberTypeEPN4llvm6DIFileENS_8QualTypeENS2_9StringRefEPm
libclangCodeGen.so.8:_ZN5clang7CodeGen11CGDebugInfo16EmitFunctionDeclENS_10GlobalDeclENS_14SourceLocationENS_8QualTypeE
libclangCodeGen.so.8:_ZN5clang7CodeGen11CGDebugInfo17CollectVTableInfoEPKNS_13CXXRecordDeclEPN4llvm6DIFileERNS5_15SmallVectorImplIPNS5_8MetadataEEEPNS5_15DICompositeTypeE
libclangCodeGen.so.8:_ZN5clang7CodeGen11CGDebugInfo17CreateCompileUnitEv
libclangCodeGen.so.8:_ZN5clang7CodeGen11CGDebugInfo17CreateLimitedTypeEPKNS_10RecordTypeE
libclangCodeGen.so.8:_ZN5clang7CodeGen11CGDebugInfo17EmitFunctionStartENS_10GlobalDeclENS_14SourceLocationES3_NS_8QualTypeEPN4llvm8FunctionEbRNS0_11CGBuilderTyE
libclangCodeGen.so.8:_ZN5clang7CodeGen11CGDebugInfo17completeClassDataEPKNS_10RecordDeclE
libclangCodeGen.so.8:_ZN5clang7CodeGen11CGDebugInfo17getCurrentDirnameEv
libclangCodeGen.so.8:_ZN5clang7CodeGen11CGDebugInfo17getObjCMethodNameEPKNS_14ObjCMethodDeclE
libclangCodeGen.so.8:_ZN5clang7CodeGen11CGDebugInfo18CollectCXXBasesAuxEPKNS_13CXXRecordDeclEPN4llvm6DIFileERNS5_15SmallVectorImplIPNS5_8MetadataEEEPNS5_6DITypeERKNS5_14iterator_rangeIPKNS_16CXXBaseSpecifierEEERNS5_8DenseSetINS_16CanonicalDeclPtrIS3_EENS5_12DenseMapInfoISO_EEEENS5_6DINode7DIFlagsE
libclangCodeGen.so.8:_ZN5clang7CodeGen11CGDebugInfo18CreateLexicalBlockENS_14SourceLocationE
libclangCodeGen.so.8:_ZN5clang7CodeGen11CGDebugInfo18EmitGlobalVariableEPKNS_9ValueDeclERKNS_7APValueE
libclangCodeGen.so.8:_ZN5clang7CodeGen11CGDebugInfo18EmitGlobalVariableEPN4llvm14GlobalVariableEPKNS_7VarDeclE
libclangCodeGen.so.8:_ZN5clang7CodeGen11CGDebugInfo18EmitNamespaceAliasERKNS_18NamespaceAliasDeclE
libclangCodeGen.so.8:_ZN5clang7CodeGen11CGDebugInfo18EmitUsingDirectiveERKNS_18UsingDirectiveDeclE
libclangCodeGen.so.8:_ZN5clang7CodeGen11CGDebugInfo18createBitFieldTypeEPKNS_9FieldDeclEPN4llvm7DIScopeEPKNS_10RecordDeclE
libclangCodeGen.so.8:_ZN5clang7CodeGen11CGDebugInfo19CollectRecordFieldsEPKNS_10RecordDeclEPN4llvm6DIFileERNS5_15SmallVectorImplIPNS5_8MetadataEEEPNS5_15DICompositeTypeE
libclangCodeGen.so.8:_ZN5clang7CodeGen11CGDebugInfo19CreateQualifiedTypeENS_8QualTypeEPN4llvm6DIFileE
libclangCodeGen.so.8:_ZN5clang7CodeGen11CGDebugInfo19CreateTempMacroFileEPN4llvm11DIMacroFileENS_14SourceLocationES5_
libclangCodeGen.so.8:_ZN5clang7CodeGen11CGDebugInfo19EmitLexicalBlockEndERNS0_11CGBuilderTyENS_14SourceLocationE
libclangCodeGen.so.8:_ZN5clang7CodeGen11CGDebugInfo19SourceLocToDebugLocENS_14SourceLocationE
libclangCodeGen.so.8:_ZN5clang7CodeGen11CGDebugInfo19collectVarDeclPropsEPKNS_7VarDeclERPN4llvm6DIFileERjRNS_8QualTypeERNS5_9StringRefESD_RPNS5_7MDTupleERPNS5_7DIScopeE
libclangCodeGen.so.8:_ZN5clang7CodeGen11CGDebugInfo19completeUnusedClassERKNS_13CXXRecordDeclE
libclangCodeGen.so.8:_ZN5clang7CodeGen11CGDebugInfo20CreateTypeDefinitionEPKNS_10RecordTypeE
libclangCodeGen.so.8:_ZN5clang7CodeGen11CGDebugInfo20CreateTypeDefinitionEPKNS_17ObjCInterfaceTypeEPN4llvm6DIFileE
libclangCodeGen.so.8:_ZN5clang7CodeGen11CGDebugInfo20CreateTypeDefinitionEPKNS_8EnumTypeE
libclangCodeGen.so.8:_ZN5clang7CodeGen11CGDebugInfo20EmitExplicitCastTypeENS_8QualTypeE
libclangCodeGen.so.8:_ZN5clang7CodeGen11CGDebugInfo20completeRequiredTypeEPKNS_10RecordDeclE
libclangCodeGen.so.8:_ZN5clang7CodeGen11CGDebugInfo20getContextDescriptorEPKNS_4DeclEPN4llvm7DIScopeE
libclangCodeGen.so.8:_ZN5clang7CodeGen11CGDebugInfo20getOrCreateModuleRefENS_17ExternalASTSource19ASTSourceDescriptorEb
libclangCodeGen.so.8:_ZN5clang7CodeGen11CGDebugInfo20getOrCreateNamespaceEPKNS_13NamespaceDeclE
libclangCodeGen.so.8:_ZN5clang7CodeGen11CGDebugInfo21CollectContainingTypeEPKNS_13CXXRecordDeclEPN4llvm15DICompositeTypeE
libclangCodeGen.so.8:_ZN5clang7CodeGen11CGDebugInfo21CollectTemplateParamsEPKNS_21TemplateParameterListEN4llvm8ArrayRefINS_16TemplateArgumentEEEPNS5_6DIFileE
libclangCodeGen.so.8:_ZN5clang7CodeGen11CGDebugInfo21CreatePointerLikeTypeEN4llvm5dwarf3TagEPKNS_4TypeENS_8QualTypeEPNS2_6DIFileE
libclangCodeGen.so.8:_ZN5clang7CodeGen11CGDebugInfo21EmitInlineFunctionEndERNS0_11CGBuilderTyE
libclangCodeGen.so.8:_ZN5clang7CodeGen11CGDebugInfo21EmitLexicalBlockStartERNS0_11CGBuilderTyENS_14SourceLocationE
libclangCodeGen.so.8:_ZN5clang7CodeGen11CGDebugInfo21getOrCreateMethodTypeEPKNS_13CXXMethodDeclEPN4llvm6DIFileE
libclangCodeGen.so.8:_ZN5clang7CodeGen11CGDebugInfo21getOrCreateRecordTypeENS_8QualTypeENS_14SourceLocationE
libclangCodeGen.so.8:_ZN5clang7CodeGen11CGDebugInfo21getParentModuleOrNullEPKNS_4DeclE
libclangCodeGen.so.8:_ZN5clang7CodeGen11CGDebugInfo22CollectAnonRecordDeclsEPKNS_10RecordDeclEPN4llvm6DIFileEjNS5_9StringRefEPNS5_14GlobalVariableEPNS5_7DIScopeE
libclangCodeGen.so.8:_ZN5clang7CodeGen11CGDebugInfo22getFunctionDeclarationEPKNS_4DeclE
libclangCodeGen.so.8:_ZN5clang7CodeGen11CGDebugInfo22getOrCreateLimitedTypeEPKNS_10RecordTypeEPN4llvm6DIFileE
libclangCodeGen.so.8:_ZN5clang7CodeGen11CGDebugInfo23CollectRecordNestedTypeEPKNS_8TypeDeclERN4llvm15SmallVectorImplIPNS5_8MetadataEEE
libclangCodeGen.so.8:_ZN5clang7CodeGen11CGDebugInfo23CreateCXXMemberFunctionEPKNS_13CXXMethodDeclEPN4llvm6DIFileEPNS5_6DITypeE
libclangCodeGen.so.8:_ZN5clang7CodeGen11CGDebugInfo23CreateRecordStaticFieldEPKNS_7VarDeclEPN4llvm6DITypeEPKNS_10RecordDeclE
libclangCodeGen.so.8:_ZN5clang7CodeGen11CGDebugInfo23EmitInlineFunctionStartERNS0_11CGBuilderTyENS_10GlobalDeclE
libclangCodeGen.so.8:_ZN5clang7CodeGen11CGDebugInfo23getOrCreateFunctionTypeEPKNS_4DeclENS_8QualTypeEPN4llvm6DIFileE
libclangCodeGen.so.8:_ZN5clang7CodeGen11CGDebugInfo24CollectCXXTemplateParamsEPKNS_31ClassTemplateSpecializationDeclEPN4llvm6DIFileE
libclangCodeGen.so.8:_ZN5clang7CodeGen11CGDebugInfo24CollectRecordNormalFieldEPKNS_9FieldDeclEmPN4llvm6DIFileERNS5_15SmallVectorImplIPNS5_8MetadataEEEPNS5_6DITypeEPKNS_10RecordDeclE
libclangCodeGen.so.8:_ZN5clang7CodeGen11CGDebugInfo24CollectVarTemplateParamsEPKNS_7VarDeclEPN4llvm6DIFileE
libclangCodeGen.so.8:_ZN5clang7CodeGen11CGDebugInfo24EmitDeclareOfArgVariableEPKNS_7VarDeclEPN4llvm5ValueEjRNS0_11CGBuilderTyE
libclangCodeGen.so.8:_ZN5clang7CodeGen11CGDebugInfo24collectFunctionDeclPropsENS_10GlobalDeclEPN4llvm6DIFileERNS3_9StringRefES7_RPNS3_7DIScopeERNS3_24MDTupleTypedArrayWrapperINS3_6DINodeEEERNSC_7DIFlagsE
libclangCodeGen.so.8:_ZN5clang7CodeGen11CGDebugInfo24getDeclContextDescriptorEPKNS_4DeclE
libclangCodeGen.so.8:_ZN5clang7CodeGen11CGDebugInfo24getFunctionFwdDeclOrStubENS_10GlobalDeclEb
libclangCodeGen.so.8:_ZN5clang7CodeGen11CGDebugInfo24getOrCreateInterfaceTypeENS_8QualTypeENS_14SourceLocationE
libclangCodeGen.so.8:_ZN5clang7CodeGen11CGDebugInfo24getOrCreateRecordFwdDeclEPKNS_10RecordTypeEPN4llvm7DIScopeE
libclangCodeGen.so.8:_ZN5clang7CodeGen11CGDebugInfo24getOrCreateStructPtrTypeEN4llvm9StringRefERPNS2_6DITypeE
libclangCodeGen.so.8:_ZN5clang7CodeGen11CGDebugInfo24getOrCreateVTablePtrTypeEPN4llvm6DIFileE
libclangCodeGen.so.8:_ZN5clang7CodeGen11CGDebugInfo25CollectCXXMemberFunctionsEPKNS_13CXXRecordDeclEPN4llvm6DIFileERNS5_15SmallVectorImplIPNS5_8MetadataEEEPNS5_6DITypeE
libclangCodeGen.so.8:_ZN5clang7CodeGen11CGDebugInfo25CollectRecordLambdaFieldsEPKNS_13CXXRecordDeclERN4llvm15SmallVectorImplIPNS5_8MetadataEEEPNS5_6DITypeE
libclangCodeGen.so.8:_ZN5clang7CodeGen11CGDebugInfo25EmitDeclareOfAutoVariableEPKNS_7VarDeclEPN4llvm5ValueERNS0_11CGBuilderTyE
libclangCodeGen.so.8:_ZN5clang7CodeGen11CGDebugInfo25getOrCreateStandaloneTypeENS_8QualTypeENS_14SourceLocationE
libclangCodeGen.so.8:_ZN5clang7CodeGen11CGDebugInfo26completeTemplateDefinitionERKNS_31ClassTemplateSpecializationDeclE
libclangCodeGen.so.8:_ZN5clang7CodeGen11CGDebugInfo26getDeclarationOrDefinitionEPKNS_4DeclE
libclangCodeGen.so.8:_ZN5clang7CodeGen11CGDebugInfo27getCurrentContextDescriptorEPKNS_4DeclE
libclangCodeGen.so.8:_ZN5clang7CodeGen11CGDebugInfo28EmitTypeForVarWithBlocksAttrEPKNS_7VarDeclEPm
libclangCodeGen.so.8:_ZN5clang7CodeGen11CGDebugInfo29CollectFunctionTemplateParamsEPKNS_12FunctionDeclEPN4llvm6DIFileE
libclangCodeGen.so.8:_ZN5clang7CodeGen11CGDebugInfo29getFunctionForwardDeclarationENS_10GlobalDeclE
libclangCodeGen.so.8:_ZN5clang7CodeGen11CGDebugInfo29getOrCreateInstanceMethodTypeENS_8QualTypeEPKNS_17FunctionProtoTypeEPN4llvm6DIFileE
libclangCodeGen.so.8:_ZN5clang7CodeGen11CGDebugInfo33EmitDeclareOfBlockDeclRefVariableEPKNS_7VarDeclEPN4llvm5ValueERNS0_11CGBuilderTyERKNS0_11CGBlockInfoEPNS5_11InstructionE
libclangCodeGen.so.8:_ZN5clang7CodeGen11CGDebugInfo35getGlobalVariableForwardDeclarationEPKNS_7VarDeclE
libclangCodeGen.so.8:_ZN5clang7CodeGen11CGDebugInfo36EmitDeclareOfBlockLiteralArgVariableERKNS0_11CGBlockInfoEN4llvm9StringRefEjPNS5_10AllocaInstERNS0_11CGBuilderTyE
libclangCodeGen.so.8:_ZN5clang7CodeGen11CGDebugInfo41collectDefaultElementTypesForBlockPointerEPKNS_16BlockPointerTypeEPN4llvm6DIFileEPNS5_13DIDerivedTypeEjRNS5_15SmallVectorImplIPNS5_8MetadataEEE
libclangCodeGen.so.8:_ZN5clang7CodeGen11CGDebugInfo42collectDefaultFieldsForBlockLiteralDeclareERKNS0_11CGBlockInfoERKNS_10ASTContextENS_14SourceLocationERKN4llvm12StructLayoutEPNS9_6DIFileERNS9_15SmallVectorImplIPNS9_8MetadataEEE
libclangCodeGen.so.8:_ZN5clang7CodeGen11CGDebugInfo44getOrCreateStaticDataMemberDeclarationOrNullEPKNS_7VarDeclE
libclangCodeGen.so.8:_ZN5clang7CodeGen11CGDebugInfo8finalizeEv
libclangCodeGen.so.8:_ZN5clang7CodeGen11CGDebugInfo8setDwoIdEm
libclangCodeGen.so.8:_ZN5clang7CodeGen11CGDebugInfo9getSourceERKNS_13SourceManagerENS_6FileIDE
libclangCodeGen.so.8:_ZN5clang7CodeGen11CGDebugInfoC1ERNS0_13CodeGenModuleE
libclangCodeGen.so.8:_ZN5clang7CodeGen11CGDebugInfoC2ERNS0_13CodeGenModuleE
libclangCodeGen.so.8:_ZN5clang7CodeGen11CGDebugInfoD1Ev
libclangCodeGen.so.8:_ZN5clang7CodeGen11CGDebugInfoD2Ev
libclangCodeGen.so.8:_ZN5clang7CodeGen11CallArgList22allocateArgumentMemoryERNS0_15CodeGenFunctionE
libclangCodeGen.so.8:_ZN5clang7CodeGen11CodeGenTBAA11getTypeInfoENS_8QualTypeE
libclangCodeGen.so.8:_ZN5clang7CodeGen11CodeGenTBAA13CollectFieldsEmNS_8QualTypeERN4llvm15SmallVectorImplINS3_9MDBuilder15TBAAStructFieldEEEb
libclangCodeGen.so.8:_ZN5clang7CodeGen11CodeGenTBAA13getAccessInfoENS_8QualTypeE
libclangCodeGen.so.8:_ZN5clang7CodeGen11CodeGenTBAA15getBaseTypeInfoENS_8QualTypeE
libclangCodeGen.so.8:_ZN5clang7CodeGen11CodeGenTBAA16getAccessTagInfoENS0_14TBAAAccessInfoE
libclangCodeGen.so.8:_ZN5clang7CodeGen11CodeGenTBAA17getTBAAStructInfoENS_8QualTypeE
libclangCodeGen.so.8:_ZN5clang7CodeGen11CodeGenTBAA17getTypeInfoHelperEPKNS_4TypeE
libclangCodeGen.so.8:_ZN5clang7CodeGen11CodeGenTBAA20createScalarTypeNodeEN4llvm9StringRefEPNS2_6MDNodeEm
libclangCodeGen.so.8:_ZN5clang7CodeGen11CodeGenTBAA20mergeTBAAInfoForCastENS0_14TBAAAccessInfoES2_
libclangCodeGen.so.8:_ZN5clang7CodeGen11CodeGenTBAA21getBaseTypeInfoHelperEPKNS_4TypeE
libclangCodeGen.so.8:_ZN5clang7CodeGen11CodeGenTBAA22getVTablePtrAccessInfoEPN4llvm4TypeE
libclangCodeGen.so.8:_ZN5clang7CodeGen11CodeGenTBAA30mergeTBAAInfoForMemoryTransferENS0_14TBAAAccessInfoES2_
libclangCodeGen.so.8:_ZN5clang7CodeGen11CodeGenTBAA35mergeTBAAInfoForConditionalOperatorENS0_14TBAAAccessInfoES2_
libclangCodeGen.so.8:_ZN5clang7CodeGen11CodeGenTBAA7getCharEv
libclangCodeGen.so.8:_ZN5clang7CodeGen11CodeGenTBAA7getRootEv
libclangCodeGen.so.8:_ZN5clang7CodeGen11CodeGenTBAAC1ERNS_10ASTContextERN4llvm6ModuleERKNS_14CodeGenOptionsERKNS_11LangOptionsERNS_13MangleContextE
libclangCodeGen.so.8:_ZN5clang7CodeGen11CodeGenTBAAC2ERNS_10ASTContextERN4llvm6ModuleERKNS_14CodeGenOptionsERKNS_11LangOptionsERNS_13MangleContextE
libclangCodeGen.so.8:_ZN5clang7CodeGen11CodeGenTBAAD1Ev
libclangCodeGen.so.8:_ZN5clang7CodeGen11CodeGenTBAAD2Ev
libclangCodeGen.so.8:_ZN5clang7CodeGen12CodeGenTypes11ConvertTypeENS_8QualTypeE
libclangCodeGen.so.8:_ZN5clang7CodeGen12CodeGenTypes11arrangeCallERKNS0_14CGFunctionInfoERKNS0_11CallArgListE
libclangCodeGen.so.8:_ZN5clang7CodeGen12CodeGenTypes15GetFunctionTypeENS_10GlobalDeclE
libclangCodeGen.so.8:_ZN5clang7CodeGen12CodeGenTypes15GetFunctionTypeERKNS0_14CGFunctionInfoE
libclangCodeGen.so.8:_ZN5clang7CodeGen12CodeGenTypes16getExpandedTypesENS_8QualTypeERPPN4llvm4TypeE
libclangCodeGen.so.8:_ZN5clang7CodeGen12CodeGenTypes17ConvertTypeForMemENS_8QualTypeE
libclangCodeGen.so.8:_ZN5clang7CodeGen12CodeGenTypes17addRecordTypeNameEPKNS_10RecordDeclEPN4llvm10StructTypeENS5_9StringRefE
libclangCodeGen.so.8:_ZN5clang7CodeGen12CodeGenTypes17getCGRecordLayoutEPKNS_10RecordDeclE
libclangCodeGen.so.8:_ZN5clang7CodeGen12CodeGenTypes19ComputeRecordLayoutEPKNS_10RecordDeclEPN4llvm10StructTypeE
libclangCodeGen.so.8:_ZN5clang7CodeGen12CodeGenTypes19ConvertFunctionTypeENS_8QualTypeEPKNS_12FunctionDeclE
libclangCodeGen.so.8:_ZN5clang7CodeGen12CodeGenTypes19UpdateCompletedTypeEPKNS_7TagDeclE
libclangCodeGen.so.8:_ZN5clang7CodeGen12CodeGenTypes19isZeroInitializableENS_8QualTypeE
libclangCodeGen.so.8:_ZN5clang7CodeGen12CodeGenTypes19isZeroInitializableEPKNS_10RecordDeclE
libclangCodeGen.so.8:_ZN5clang7CodeGen12CodeGenTypes20arrangeCXXMethodCallERKNS0_11CallArgListEPKNS_17FunctionProtoTypeENS0_12RequiredArgsEj
libclangCodeGen.so.8:_ZN5clang7CodeGen12CodeGenTypes20arrangeCXXMethodTypeEPKNS_13CXXRecordDeclEPKNS_17FunctionProtoTypeEPKNS_13CXXMethodDeclE
libclangCodeGen.so.8:_ZN5clang7CodeGen12CodeGenTypes20arrangeMSCtorClosureEPKNS_18CXXConstructorDeclENS_11CXXCtorTypeE
libclangCodeGen.so.8:_ZN5clang7CodeGen12CodeGenTypes21ConvertRecordDeclTypeEPKNS_10RecordDeclE
libclangCodeGen.so.8:_ZN5clang7CodeGen12CodeGenTypes21isFuncTypeConvertibleEPKNS_12FunctionTypeE
libclangCodeGen.so.8:_ZN5clang7CodeGen12CodeGenTypes22arrangeNullaryFunctionEv
libclangCodeGen.so.8:_ZN5clang7CodeGen12CodeGenTypes23arrangeFreeFunctionCallERKNS0_11CallArgListEPKNS_12FunctionTypeEb
libclangCodeGen.so.8:_ZN5clang7CodeGen12CodeGenTypes23arrangeFreeFunctionTypeENS_7CanQualINS_17FunctionProtoTypeEEEPKNS_12FunctionDeclE
libclangCodeGen.so.8:_ZN5clang7CodeGen12CodeGenTypes23arrangeFreeFunctionTypeENS_7CanQualINS_19FunctionNoProtoTypeEEE
libclangCodeGen.so.8:_ZN5clang7CodeGen12CodeGenTypes23arrangeLLVMFunctionInfoENS_7CanQualINS_4TypeEEEbbN4llvm8ArrayRefIS4_EENS_12FunctionType7ExtInfoENS6_INS8_16ExtParameterInfoEEENS0_12RequiredArgsE
libclangCodeGen.so.8:_ZN5clang7CodeGen12CodeGenTypes23inheritingCtorHasParamsERKNS_20InheritedConstructorENS_11CXXCtorTypeE
libclangCodeGen.so.8:_ZN5clang7CodeGen12CodeGenTypes24GetFunctionTypeForVTableENS_10GlobalDeclE
libclangCodeGen.so.8:_ZN5clang7CodeGen12CodeGenTypes24RefreshTypeCacheForClassEPKNS_13CXXRecordDeclE
libclangCodeGen.so.8:_ZN5clang7CodeGen12CodeGenTypes24arrangeBlockFunctionCallERKNS0_11CallArgListEPKNS_12FunctionTypeE
libclangCodeGen.so.8:_ZN5clang7CodeGen12CodeGenTypes24arrangeGlobalDeclarationENS_10GlobalDeclE
libclangCodeGen.so.8:_ZN5clang7CodeGen12CodeGenTypes25arrangeCXXConstructorCallERKNS0_11CallArgListEPKNS_18CXXConstructorDeclENS_11CXXCtorTypeEjjb
libclangCodeGen.so.8:_ZN5clang7CodeGen12CodeGenTypes26arrangeBuiltinFunctionCallENS_8QualTypeERKNS0_11CallArgListE
libclangCodeGen.so.8:_ZN5clang7CodeGen12CodeGenTypes26arrangeFunctionDeclarationEPKNS_12FunctionDeclE
libclangCodeGen.so.8:_ZN5clang7CodeGen12CodeGenTypes26isFuncParamTypeConvertibleENS_8QualTypeE
libclangCodeGen.so.8:_ZN5clang7CodeGen12CodeGenTypes26isPointerZeroInitializableENS_8QualTypeE
libclangCodeGen.so.8:_ZN5clang7CodeGen12CodeGenTypes27ClangCallConvToLLVMCallConvENS_11CallingConvE
libclangCodeGen.so.8:_ZN5clang7CodeGen12CodeGenTypes27arrangeCXXMethodDeclarationEPKNS_13CXXMethodDeclE
libclangCodeGen.so.8:_ZN5clang7CodeGen12CodeGenTypes28arrangeObjCMethodDeclarationEPKNS_14ObjCMethodDeclE
libclangCodeGen.so.8:_ZN5clang7CodeGen12CodeGenTypes29arrangeCXXStructorDeclarationEPKNS_13CXXMethodDeclENS0_12StructorTypeE
libclangCodeGen.so.8:_ZN5clang7CodeGen12CodeGenTypes31arrangeBlockFunctionDeclarationEPKNS_17FunctionProtoTypeERKNS0_15FunctionArgListE
libclangCodeGen.so.8:_ZN5clang7CodeGen12CodeGenTypes31arrangeObjCMessageSendSignatureEPKNS_14ObjCMethodDeclENS_8QualTypeE
libclangCodeGen.so.8:_ZN5clang7CodeGen12CodeGenTypes32arrangeUnprototypedMustTailThunkEPKNS_13CXXMethodDeclE
libclangCodeGen.so.8:_ZN5clang7CodeGen12CodeGenTypes33arrangeBuiltinFunctionDeclarationENS_7CanQualINS_4TypeEEEN4llvm8ArrayRefIS4_EE
libclangCodeGen.so.8:_ZN5clang7CodeGen12CodeGenTypes33arrangeBuiltinFunctionDeclarationENS_8QualTypeERKNS0_15FunctionArgListE
libclangCodeGen.so.8:_ZN5clang7CodeGen12CodeGenTypes34arrangeUnprototypedObjCMessageSendENS_8QualTypeERKNS0_11CallArgListE
libclangCodeGen.so.8:_ZN5clang7CodeGen12CodeGenTypesC1ERNS0_13CodeGenModuleE
libclangCodeGen.so.8:_ZN5clang7CodeGen12CodeGenTypesC2ERNS0_13CodeGenModuleE
libclangCodeGen.so.8:_ZN5clang7CodeGen12CodeGenTypesD1Ev
libclangCodeGen.so.8:_ZN5clang7CodeGen12CodeGenTypesD2Ev
libclangCodeGen.so.8:_ZN5clang7CodeGen12EHScopeStack10deallocateEm
libclangCodeGen.so.8:_ZN5clang7CodeGen12EHScopeStack10popCleanupEv
libclangCodeGen.so.8:_ZN5clang7CodeGen12EHScopeStack10pushFilterEj
libclangCodeGen.so.8:_ZN5clang7CodeGen12EHScopeStack11pushCleanupENS0_11CleanupKindEm
libclangCodeGen.so.8:_ZN5clang7CodeGen12EHScopeStack13popNullFixupsEv
libclangCodeGen.so.8:_ZN5clang7CodeGen12EHScopeStack13pushTerminateEv
libclangCodeGen.so.8:_ZN5clang7CodeGen12EHScopeStack7Cleanup6anchorEv
libclangCodeGen.so.8:_ZN5clang7CodeGen12EHScopeStack8allocateEm
libclangCodeGen.so.8:_ZN5clang7CodeGen12EHScopeStack9popFilterEv
libclangCodeGen.so.8:_ZN5clang7CodeGen12EHScopeStack9pushCatchEj
libclangCodeGen.so.8:_ZN5clang7CodeGen13CGCUDARuntime22EmitCUDAKernelCallExprERNS0_15CodeGenFunctionEPKNS_18CUDAKernelCallExprENS0_15ReturnValueSlotE
libclangCodeGen.so.8:_ZN5clang7CodeGen13CGCUDARuntimeD0Ev
libclangCodeGen.so.8:_ZN5clang7CodeGen13CGCUDARuntimeD1Ev
libclangCodeGen.so.8:_ZN5clang7CodeGen13CGCUDARuntimeD2Ev
libclangCodeGen.so.8:_ZN5clang7CodeGen13CGObjCRuntime16EmitTryCatchStmtERNS0_15CodeGenFunctionERKNS_13ObjCAtTryStmtEPN4llvm8ConstantES9_S9_
libclangCodeGen.so.8:_ZN5clang7CodeGen13CGObjCRuntime18getMessageSendInfoEPKNS_14ObjCMethodDeclENS_8QualTypeERNS0_11CallArgListE
libclangCodeGen.so.8:_ZN5clang7CodeGen13CGObjCRuntime20EmitInitOfCatchParamERNS0_15CodeGenFunctionEPN4llvm5ValueEPKNS_7VarDeclE
libclangCodeGen.so.8:_ZN5clang7CodeGen13CGObjCRuntime21ComputeIvarBaseOffsetERNS0_13CodeGenModuleEPKNS_17ObjCInterfaceDeclEPKNS_12ObjCIvarDeclE
libclangCodeGen.so.8:_ZN5clang7CodeGen13CGObjCRuntime21ComputeIvarBaseOffsetERNS0_13CodeGenModuleEPKNS_22ObjCImplementationDeclEPKNS_12ObjCIvarDeclE
libclangCodeGen.so.8:_ZN5clang7CodeGen13CGObjCRuntime22EmitAtSynchronizedStmtERNS0_15CodeGenFunctionERKNS_22ObjCAtSynchronizedStmtEPN4llvm8FunctionES9_
libclangCodeGen.so.8:_ZN5clang7CodeGen13CGObjCRuntime24ComputeBitfieldBitOffsetERNS0_13CodeGenModuleEPKNS_17ObjCInterfaceDeclEPKNS_12ObjCIvarDeclE
libclangCodeGen.so.8:_ZN5clang7CodeGen13CGObjCRuntime24EmitValueForIvarAtOffsetERNS0_15CodeGenFunctionEPKNS_17ObjCInterfaceDeclEPN4llvm5ValueEPKNS_12ObjCIvarDeclEjS9_
libclangCodeGen.so.8:_ZN5clang7CodeGen13CGObjCRuntimeD0Ev
libclangCodeGen.so.8:_ZN5clang7CodeGen13CGObjCRuntimeD1Ev
libclangCodeGen.so.8:_ZN5clang7CodeGen13CGObjCRuntimeD2Ev
libclangCodeGen.so.8:_ZN5clang7CodeGen13CodeGenModule10EmitGlobalENS_10GlobalDeclE
libclangCodeGen.so.8:_ZN5clang7CodeGen13CodeGenModule10EmitVTableEPNS_13CXXRecordDeclE
libclangCodeGen.so.8:_ZN5clang7CodeGen13CodeGenModule11getSanStatsEv
libclangCodeGen.so.8:_ZN5clang7CodeGen13CodeGenModule12EmitCtorListERSt6vectorINS1_8StructorESaIS3_EEPKc
libclangCodeGen.so.8:_ZN5clang7CodeGen13CodeGenModule12EmitDeferredEv
libclangCodeGen.so.8:_ZN5clang7CodeGen13CodeGenModule12checkAliasesEv
libclangCodeGen.so.8:_ZN5clang7CodeGen13CodeGenModule12emitLLVMUsedEv
libclangCodeGen.so.8:_ZN5clang7CodeGen13CodeGenModule12getIntrinsicEjN4llvm8ArrayRefIPNS2_4TypeEEE
libclangCodeGen.so.8:_ZN5clang7CodeGen13CodeGenModule13AddGlobalCtorEPN4llvm8FunctionEiPNS2_8ConstantE
libclangCodeGen.so.8:_ZN5clang7CodeGen13CodeGenModule13AddGlobalDtorEPN4llvm8FunctionEi
libclangCodeGen.so.8:_ZN5clang7CodeGen13CodeGenModule13MustBeEmittedEPKNS_9ValueDeclE
libclangCodeGen.so.8:_ZN5clang7CodeGen13CodeGenModule13addUsedGlobalEPN4llvm11GlobalValueE
libclangCodeGen.so.8:_ZN5clang7CodeGen13CodeGenModule14GetAddrOfThunkEN4llvm9StringRefEPNS2_4TypeENS_10GlobalDeclE
libclangCodeGen.so.8:_ZN5clang7CodeGen13CodeGenModule14GetGlobalValueEN4llvm9StringRefE
libclangCodeGen.so.8:_ZN5clang7CodeGen13CodeGenModule14addReplacementEN4llvm9StringRefEPNS2_8ConstantE
libclangCodeGen.so.8:_ZN5clang7CodeGen13CodeGenModule14getMangledNameENS_10GlobalDeclE
libclangCodeGen.so.8:_ZN5clang7CodeGen13CodeGenModule14getNullPointerEPN4llvm11PointerTypeENS_8QualTypeE
libclangCodeGen.so.8:_ZN5clang7CodeGen13CodeGenModule14getTerminateFnEv
libclangCodeGen.so.8:_ZN5clang7CodeGen13CodeGenModule14isTypeConstantENS_8QualTypeEb
libclangCodeGen.so.8:_ZN5clang7CodeGen13CodeGenModule15AddDependentLibEN4llvm9StringRefE
libclangCodeGen.so.8:_ZN5clang7CodeGen13CodeGenModule15EmitDeclContextEPKNS_11DeclContextE
libclangCodeGen.so.8:_ZN5clang7CodeGen13CodeGenModule15EmitLinkageSpecEPKNS_15LinkageSpecDeclE
libclangCodeGen.so.8:_ZN5clang7CodeGen13CodeGenModule15GetAddrOfGlobalENS_10GlobalDeclENS0_15ForDefinition_tE
libclangCodeGen.so.8:_ZN5clang7CodeGen13CodeGenModule15getTBAATypeInfoENS_8QualTypeE
libclangCodeGen.so.8:_ZN5clang7CodeGen13CodeGenModule16EmitAnnotateAttrEPN4llvm11GlobalValueEPKNS_12AnnotateAttrENS_14SourceLocationE
libclangCodeGen.so.8:_ZN5clang7CodeGen13CodeGenModule16EmitCoverageFileEv
libclangCodeGen.so.8:_ZN5clang7CodeGen13CodeGenModule16EmitDeclMetadataEv
libclangCodeGen.so.8:_ZN5clang7CodeGen13CodeGenModule16EmitNullConstantENS_8QualTypeE
libclangCodeGen.so.8:_ZN5clang7CodeGen13CodeGenModule16EmitTopLevelDeclEPNS_4DeclE
libclangCodeGen.so.8:_ZN5clang7CodeGen13CodeGenModule16ErrorUnsupportedEPKNS_4DeclEPKc
libclangCodeGen.so.8:_ZN5clang7CodeGen13CodeGenModule16ErrorUnsupportedEPKNS_4StmtEPKc
libclangCodeGen.so.8:_ZN5clang7CodeGen13CodeGenModule16getVTableLinkageEPKNS_13CXXRecordDeclE
libclangCodeGen.so.8:_ZN5clang7CodeGen13CodeGenModule17AddDefaultFnAttrsERN4llvm8FunctionE
libclangCodeGen.so.8:_ZN5clang7CodeGen13CodeGenModule17AddDetectMismatchEN4llvm9StringRefES3_
libclangCodeGen.so.8:_ZN5clang7CodeGen13CodeGenModule17GetAddrOfFunctionENS_10GlobalDeclEPN4llvm4TypeEbbNS0_15ForDefinition_tE
libclangCodeGen.so.8:_ZN5clang7CodeGen13CodeGenModule17applyReplacementsEv
libclangCodeGen.so.8:_ZN5clang7CodeGen13CodeGenModule17createCUDARuntimeEv
libclangCodeGen.so.8:_ZN5clang7CodeGen13CodeGenModule17createObjCRuntimeEv
libclangCodeGen.so.8:_ZN5clang7CodeGen13CodeGenModule17getTBAAAccessInfoENS_8QualTypeE
libclangCodeGen.so.8:_ZN5clang7CodeGen13CodeGenModule17getTBAAStructInfoENS_8QualTypeE
libclangCodeGen.so.8:_ZN5clang7CodeGen13CodeGenModule17getVBaseAlignmentENS_9CharUnitsEPKNS_13CXXRecordDeclES5_
libclangCodeGen.so.8:_ZN5clang7CodeGen13CodeGenModule18AddELFLibDirectiveEN4llvm9StringRefE
libclangCodeGen.so.8:_ZN5clang7CodeGen13CodeGenModule18EmitAnnotationUnitENS_14SourceLocationE
libclangCodeGen.so.8:_ZN5clang7CodeGen13CodeGenModule18EmitOpenCLMetadataEv
libclangCodeGen.so.8:_ZN5clang7CodeGen13CodeGenModule18EmitTargetMetadataEv
libclangCodeGen.so.8:_ZN5clang7CodeGen13CodeGenModule18GetAddrOfGlobalVarEPKNS_7VarDeclEPN4llvm4TypeENS0_15ForDefinition_tE
libclangCodeGen.so.8:_ZN5clang7CodeGen13CodeGenModule18ReturnTypeUsesSRetERKNS0_14CGFunctionInfoE
libclangCodeGen.so.8:_ZN5clang7CodeGen13CodeGenModule18codegenCXXStructorEPKNS_13CXXMethodDeclENS0_12StructorTypeE
libclangCodeGen.so.8:_ZN5clang7CodeGen13CodeGenModule18getFunctionLinkageENS_10GlobalDeclE
libclangCodeGen.so.8:_ZN5clang7CodeGen13CodeGenModule18getMostBaseClassesEPKNS_13CXXRecordDeclE
libclangCodeGen.so.8:_ZN5clang7CodeGen13CodeGenModule18isPaddedAtomicTypeENS_8QualTypeE
libclangCodeGen.so.8:_ZN5clang7CodeGen13CodeGenModule18isPaddedAtomicTypeEPKNS_10AtomicTypeE
libclangCodeGen.so.8:_ZN5clang7CodeGen13CodeGenModule18shouldEmitFunctionENS_10GlobalDeclE
libclangCodeGen.so.8:_ZN5clang7CodeGen13CodeGenModule19AppendLinkerOptionsEN4llvm9StringRefE
libclangCodeGen.so.8:_ZN5clang7CodeGen13CodeGenModule19EmitAliasDefinitionENS_10GlobalDeclE
libclangCodeGen.so.8:_ZN5clang7CodeGen13CodeGenModule19EmitDeferredVTablesEv
libclangCodeGen.so.8:_ZN5clang7CodeGen13CodeGenModule19EmitOMPRequiresDeclEPKNS_15OMPRequiresDeclE
libclangCodeGen.so.8:_ZN5clang7CodeGen13CodeGenModule19GetWeakRefReferenceEPKNS_9ValueDeclE
libclangCodeGen.so.8:_ZN5clang7CodeGen13CodeGenModule19MayBeEmittedEagerlyEPKNS_9ValueDeclE
libclangCodeGen.so.8:_ZN5clang7CodeGen13CodeGenModule19ReturnTypeUsesFPRetENS_8QualTypeE
libclangCodeGen.so.8:_ZN5clang7CodeGen13CodeGenModule19SetCommonAttributesENS_10GlobalDeclEPN4llvm11GlobalValueE
libclangCodeGen.so.8:_ZN5clang7CodeGen13CodeGenModule19SimplifyPersonalityEv
libclangCodeGen.so.8:_ZN5clang7CodeGen13CodeGenModule19UpdateCompletedTypeEPKNS_7TagDeclE
libclangCodeGen.so.8:_ZN5clang7CodeGen13CodeGenModule19createOpenCLRuntimeEv
libclangCodeGen.so.8:_ZN5clang7CodeGen13CodeGenModule19createOpenMPRuntimeEv
libclangCodeGen.so.8:_ZN5clang7CodeGen13CodeGenModule19emitIFuncDefinitionENS_10GlobalDeclE
libclangCodeGen.so.8:_ZN5clang7CodeGen13CodeGenModule19getBlockMangledNameENS_10GlobalDeclEPKNS_9BlockDeclE
libclangCodeGen.so.8:_ZN5clang7CodeGen13CodeGenModule19getTBAABaseTypeInfoENS_8QualTypeE
libclangCodeGen.so.8:_ZN5clang7CodeGen13CodeGenModule20AddGlobalAnnotationsEPKNS_9ValueDeclEPN4llvm11GlobalValueE
libclangCodeGen.so.8:_ZN5clang7CodeGen13CodeGenModule20EmitAnnotationLineNoENS_14SourceLocationE
libclangCodeGen.so.8:_ZN5clang7CodeGen13CodeGenModule20EmitAnnotationStringEN4llvm9StringRefE
libclangCodeGen.so.8:_ZN5clang7CodeGen13CodeGenModule20EmitGlobalDefinitionENS_10GlobalDeclEPN4llvm11GlobalValueE
libclangCodeGen.so.8:_ZN5clang7CodeGen13CodeGenModule20GetAddrOfGlobalBlockEPKNS_9BlockExprEN4llvm9StringRefE
libclangCodeGen.so.8:_ZN5clang7CodeGen13CodeGenModule20ReturnTypeUsesFP2RetENS_8QualTypeE
libclangCodeGen.so.8:_ZN5clang7CodeGen13CodeGenModule20getAddrOfCXXStructorEPKNS_13CXXMethodDeclENS0_12StructorTypeEPKNS0_14CGFunctionInfoEPN4llvm12FunctionTypeEbNS0_15ForDefinition_tE
libclangCodeGen.so.8:_ZN5clang7CodeGen13CodeGenModule20getBlockObjectAssignEv
libclangCodeGen.so.8:_ZN5clang7CodeGen13CodeGenModule20getLLVMLifetimeEndFnEv
libclangCodeGen.so.8:_ZN5clang7CodeGen13CodeGenModule20getTBAAAccessTagInfoENS0_14TBAAAccessInfoE
libclangCodeGen.so.8:_ZN5clang7CodeGen13CodeGenModule20getTargetCodeGenInfoEv
libclangCodeGen.so.8:_ZN5clang7CodeGen13CodeGenModule20isTriviallyRecursiveEPKNS_12FunctionDeclE
libclangCodeGen.so.8:_ZN5clang7CodeGen13CodeGenModule20mergeTBAAInfoForCastENS0_14TBAAAccessInfoES2_
libclangCodeGen.so.8:_ZN5clang7CodeGen13CodeGenModule20setAddrOfGlobalBlockEPKNS_9BlockExprEPN4llvm8ConstantE
libclangCodeGen.so.8:_ZN5clang7CodeGen13CodeGenModule21AddVTableTypeMetadataEPN4llvm14GlobalVariableENS_9CharUnitsEPKNS_13CXXRecordDeclE
libclangCodeGen.so.8:_ZN5clang7CodeGen13CodeGenModule21CreateBuiltinFunctionEPN4llvm12FunctionTypeENS2_9StringRefENS2_13AttributeListE
libclangCodeGen.so.8:_ZN5clang7CodeGen13CodeGenModule21CreateRuntimeFunctionEPN4llvm12FunctionTypeENS2_9StringRefENS2_13AttributeListEb
libclangCodeGen.so.8:_ZN5clang7CodeGen13CodeGenModule21CreateRuntimeVariableEPN4llvm4TypeENS2_9StringRefE
libclangCodeGen.so.8:_ZN5clang7CodeGen13CodeGenModule21EmitCXXGlobalDtorFuncEv
libclangCodeGen.so.8:_ZN5clang7CodeGen13CodeGenModule21EmitCXXGlobalInitFuncEv
libclangCodeGen.so.8:_ZN5clang7CodeGen13CodeGenModule21EmitGlobalAnnotationsEv
libclangCodeGen.so.8:_ZN5clang7CodeGen13CodeGenModule21EmitModuleLinkOptionsEv
libclangCodeGen.so.8:_ZN5clang7CodeGen13CodeGenModule21EmitPointerToInitFuncEPKNS_7VarDeclEPN4llvm14GlobalVariableEPNS5_8FunctionEPNS_11InitSegAttrE
libclangCodeGen.so.8:_ZN5clang7CodeGen13CodeGenModule21EmitUuidofInitializerEN4llvm9StringRefE
libclangCodeGen.so.8:_ZN5clang7CodeGen13CodeGenModule21GetOrCreateLLVMGlobalEN4llvm9StringRefEPNS2_11PointerTypeEPKNS_7VarDeclENS0_15ForDefinition_tE
libclangCodeGen.so.8:_ZN5clang7CodeGen13CodeGenModule21SetFunctionAttributesENS_10GlobalDeclEPN4llvm8FunctionEbb
libclangCodeGen.so.8:_ZN5clang7CodeGen13CodeGenModule21addCompilerUsedGlobalEPN4llvm11GlobalValueE
libclangCodeGen.so.8:_ZN5clang7CodeGen13CodeGenModule21getBlockObjectDisposeEv
libclangCodeGen.so.8:_ZN5clang7CodeGen13CodeGenModule21getBuiltinLibFunctionEPKNS_12FunctionDeclEj
libclangCodeGen.so.8:_ZN5clang7CodeGen13CodeGenModule21getFunctionFeatureMapERN4llvm9StringMapIbNS2_15MallocAllocatorEEENS_10GlobalDeclE
libclangCodeGen.so.8:_ZN5clang7CodeGen13CodeGenModule21maybeSetTrivialComdatERKNS_4DeclERN4llvm12GlobalObjectE
libclangCodeGen.so.8:_ZN5clang7CodeGen13CodeGenModule21setNonAliasAttributesENS_10GlobalDeclEPN4llvm12GlobalObjectE
libclangCodeGen.so.8:_ZN5clang7CodeGen13CodeGenModule22ConstructAttributeListEN4llvm9StringRefERKNS0_14CGFunctionInfoENS0_12CGCalleeInfoERNS2_13AttributeListERjb
libclangCodeGen.so.8:_ZN5clang7CodeGen13CodeGenModule22EmitVTableTypeMetadataEPN4llvm14GlobalVariableERKNS_12VTableLayoutE
libclangCodeGen.so.8:_ZN5clang7CodeGen13CodeGenModule22HasHiddenLTOVisibilityEPKNS_13CXXRecordDeclE
libclangCodeGen.so.8:_ZN5clang7CodeGen13CodeGenModule22getBlockDescriptorTypeEv
libclangCodeGen.so.8:_ZN5clang7CodeGen13CodeGenModule22getLLVMLifetimeStartFnEv
libclangCodeGen.so.8:_ZN5clang7CodeGen13CodeGenModule23CreateCrossDsoCfiTypeIdEPN4llvm8MetadataE
libclangCodeGen.so.8:_ZN5clang7CodeGen13CodeGenModule23EmitCommandLineMetadataEv
libclangCodeGen.so.8:_ZN5clang7CodeGen13CodeGenModule23EmitGlobalVarDefinitionEPKNS_7VarDeclEb
libclangCodeGen.so.8:_ZN5clang7CodeGen13CodeGenModule23EmitNullConstantForBaseEPKNS_13CXXRecordDeclE
libclangCodeGen.so.8:_ZN5clang7CodeGen13CodeGenModule23EmitOMPDeclareReductionEPKNS_23OMPDeclareReductionDeclEPNS0_15CodeGenFunctionE
libclangCodeGen.so.8:_ZN5clang7CodeGen13CodeGenModule23EmitTentativeDefinitionEPKNS_7VarDeclE
libclangCodeGen.so.8:_ZN5clang7CodeGen13CodeGenModule23GetAddrOfRTTIDescriptorENS_8QualTypeEb
libclangCodeGen.so.8:_ZN5clang7CodeGen13CodeGenModule23GetAddrOfUuidDescriptorEPKNS_13CXXUuidofExprE
libclangCodeGen.so.8:_ZN5clang7CodeGen13CodeGenModule23GetOrCreateLLVMFunctionEN4llvm9StringRefEPNS2_4TypeENS_10GlobalDeclEbbbNS2_13AttributeListENS0_15ForDefinition_tE
libclangCodeGen.so.8:_ZN5clang7CodeGen13CodeGenModule23UpdateMultiVersionNamesENS_10GlobalDeclEPKNS_12FunctionDeclE
libclangCodeGen.so.8:_ZN5clang7CodeGen13CodeGenModule23addGlobalValReplacementEPN4llvm11GlobalValueEPNS2_8ConstantE
libclangCodeGen.so.8:_ZN5clang7CodeGen13CodeGenModule23getNSConcreteStackBlockEv
libclangCodeGen.so.8:_ZN5clang7CodeGen13CodeGenModule24EmitExplicitCastExprTypeEPKNS_16ExplicitCastExprEPNS0_15CodeGenFunctionE
libclangCodeGen.so.8:_ZN5clang7CodeGen13CodeGenModule24EmitOMPThreadPrivateDeclEPKNS_20OMPThreadPrivateDeclE
libclangCodeGen.so.8:_ZN5clang7CodeGen13CodeGenModule24EmitStaticExternCAliasesEv
libclangCodeGen.so.8:_ZN5clang7CodeGen13CodeGenModule24EmitVersionIdentMetadataEv
libclangCodeGen.so.8:_ZN5clang7CodeGen13CodeGenModule24GetAddrOfConstantCStringERKNSt7__cxx1112basic_stringIcSt11char_traitsIcESaIcEEEPKc
libclangCodeGen.so.8:_ZN5clang7CodeGen13CodeGenModule24GetAddrOfGlobalTemporaryEPKNS_24MaterializeTemporaryExprEPKNS_4ExprE
libclangCodeGen.so.8:_ZN5clang7CodeGen13CodeGenModule24GetGlobalVarAddressSpaceEPKNS_7VarDeclE
libclangCodeGen.so.8:_ZN5clang7CodeGen13CodeGenModule24RefreshTypeCacheForClassEPKNS_13CXXRecordDeclE
libclangCodeGen.so.8:_ZN5clang7CodeGen13CodeGenModule24emitAtAvailableLinkGuardEv
libclangCodeGen.so.8:_ZN5clang7CodeGen13CodeGenModule24getClassPointerAlignmentEPKNS_13CXXRecordDeclE
libclangCodeGen.so.8:_ZN5clang7CodeGen13CodeGenModule24getMemberPointerConstantEPKNS_13UnaryOperatorE
libclangCodeGen.so.8:_ZN5clang7CodeGen13CodeGenModule24getNSConcreteGlobalBlockEv
libclangCodeGen.so.8:_ZN5clang7CodeGen13CodeGenModule24getOrCreateStaticVarDeclERKNS_7VarDeclEN4llvm11GlobalValue12LinkageTypesE
libclangCodeGen.so.8:_ZN5clang7CodeGen13CodeGenModule25GetAddrOfConstantCFStringEPKNS_13StringLiteralE
libclangCodeGen.so.8:_ZN5clang7CodeGen13CodeGenModule25SetLLVMFunctionAttributesENS_10GlobalDeclERKNS0_14CGFunctionInfoEPN4llvm8FunctionE
libclangCodeGen.so.8:_ZN5clang7CodeGen13CodeGenModule25emitCPUDispatchDefinitionENS_10GlobalDeclE
libclangCodeGen.so.8:_ZN5clang7CodeGen13CodeGenModule25emitMultiVersionFunctionsEv
libclangCodeGen.so.8:_ZN5clang7CodeGen13CodeGenModule25filterFunctionTargetAttrsEPKNS_10TargetAttrE
libclangCodeGen.so.8:_ZN5clang7CodeGen13CodeGenModule25getDynamicOffsetAlignmentENS_9CharUnitsEPKNS_13CXXRecordDeclES2_
libclangCodeGen.so.8:_ZN5clang7CodeGen13CodeGenModule26ClearUnusedCoverageMappingEPKNS_4DeclE
libclangCodeGen.so.8:_ZN5clang7CodeGen13CodeGenModule26ConstructDefaultFnAttrListEN4llvm9StringRefEbbRNS2_11AttrBuilderE
libclangCodeGen.so.8:_ZN5clang7CodeGen13CodeGenModule26EmitCXXThreadLocalInitFuncEv
libclangCodeGen.so.8:_ZN5clang7CodeGen13CodeGenModule26applyGlobalValReplacementsEv
libclangCodeGen.so.8:_ZN5clang7CodeGen13CodeGenModule26getGenericBlockLiteralTypeEv
libclangCodeGen.so.8:_ZN5clang7CodeGen13CodeGenModule26getTBAAVTablePtrAccessInfoEPN4llvm4TypeE
libclangCodeGen.so.8:_ZN5clang7CodeGen13CodeGenModule27DecorateInstructionWithTBAAEPN4llvm11InstructionENS0_14TBAAAccessInfoE
libclangCodeGen.so.8:_ZN5clang7CodeGen13CodeGenModule27EmitObjCIvarInitializationsEPNS_22ObjCImplementationDeclE
